
3-PIT Demo.elf:     file format elf32-littleriscv
3-PIT Demo.elf
architecture: riscv:rv32, flags 0x00000112:
EXEC_P, HAS_SYMS, D_PAGED
start address 0x00000000

Program Header:
    LOAD off    0x00001000 vaddr 0x00000000 paddr 0x00000000 align 2**12
         filesz 0x000054b8 memsz 0x000054b8 flags r-x
    LOAD off    0x00007000 vaddr 0x20000000 paddr 0x000054b8 align 2**12
         filesz 0x00000098 memsz 0x00000188 flags rw-
    LOAD off    0x00007800 vaddr 0x20004800 paddr 0x20004800 align 2**12
         filesz 0x00000000 memsz 0x00000800 flags rw-

Sections:
Idx Name           Size      VMA       LMA       File off  Algn  Flags
  0 .init          00000038  00000000  00000000  00001000  2**1  CONTENTS, ALLOC, LOAD, READONLY, CODE
  1 .vector        00000108  00000038  00000038  00001038  2**1  CONTENTS, ALLOC, LOAD, READONLY, CODE
  2 .text          00005378  00000140  00000140  00001140  2**2  CONTENTS, ALLOC, LOAD, READONLY, CODE
  3 .fini          00000000  000054b8  000054b8  00007098  2**0  CONTENTS, ALLOC, LOAD, CODE
  4 .dalign        00000000  20000000  20000000  00007098  2**0  CONTENTS
  5 .dlalign       00000000  000054b8  000054b8  00007098  2**0  CONTENTS
  6 .data          00000098  20000000  000054b8  00007000  2**2  CONTENTS, ALLOC, LOAD, DATA
  7 .bss           000000f0  20000098  00005550  00007098  2**2  ALLOC
  8 .stack         00000800  20004800  20004800  00007800  2**0  ALLOC
  9 .debug_info    0001da5a  00000000  00000000  00007098  2**0  CONTENTS, READONLY, DEBUGGING
 10 .debug_abbrev  00003b48  00000000  00000000  00024af2  2**0  CONTENTS, READONLY, DEBUGGING
 11 .debug_aranges 00000ab8  00000000  00000000  00028640  2**3  CONTENTS, READONLY, DEBUGGING
 12 .debug_ranges  000008f8  00000000  00000000  000290f8  2**3  CONTENTS, READONLY, DEBUGGING
 13 .debug_line    0000b88c  00000000  00000000  000299f0  2**0  CONTENTS, READONLY, DEBUGGING
 14 .debug_str     00003be9  00000000  00000000  0003527c  2**0  CONTENTS, READONLY, DEBUGGING
 15 .comment       00000033  00000000  00000000  00038e65  2**0  CONTENTS, READONLY
 16 .debug_frame   00002e20  00000000  00000000  00038e98  2**2  CONTENTS, READONLY, DEBUGGING
 17 .stab          000000b4  00000000  00000000  0003bcb8  2**2  CONTENTS, READONLY, DEBUGGING
 18 .stabstr       00000183  00000000  00000000  0003bd6c  2**0  CONTENTS, READONLY, DEBUGGING
SYMBOL TABLE:
00000000 l    d  .init	00000000 .init
00000038 l    d  .vector	00000000 .vector
00000140 l    d  .text	00000000 .text
000054b8 l    d  .fini	00000000 .fini
20000000 l    d  .dalign	00000000 .dalign
000054b8 l    d  .dlalign	00000000 .dlalign
20000000 l    d  .data	00000000 .data
20000098 l    d  .bss	00000000 .bss
20004800 l    d  .stack	00000000 .stack
00000000 l    d  .debug_info	00000000 .debug_info
00000000 l    d  .debug_abbrev	00000000 .debug_abbrev
00000000 l    d  .debug_aranges	00000000 .debug_aranges
00000000 l    d  .debug_ranges	00000000 .debug_ranges
00000000 l    d  .debug_line	00000000 .debug_line
00000000 l    d  .debug_str	00000000 .debug_str
00000000 l    d  .comment	00000000 .comment
00000000 l    d  .debug_frame	00000000 .debug_frame
00000000 l    d  .stab	00000000 .stab
00000000 l    d  .stabstr	00000000 .stabstr
00000000 l    df *ABS*	00000000 ./Libraries/wch_libraries/Startup/startup_ch32v10x.o
00000038 l       .vector	00000000 _vector_base
00000000 l    df *ABS*	00000000 isr.c
00000000 l    df *ABS*	00000000 main.c
00000000 l    df *ABS*	00000000 ch32v10x_exti.c
00000000 l    df *ABS*	00000000 ch32v10x_gpio.c
00000000 l    df *ABS*	00000000 ch32v10x_misc.c
0000092e l     F .text	00000032 NVIC_EnableIRQ
00000960 l     F .text	00000032 NVIC_DisableIRQ
00000992 l     F .text	0000002a NVIC_SetPriority
00000000 l    df *ABS*	00000000 ch32v10x_rcc.c
20000000 l     O .data	00000010 APBAHBPrescTable
20000088 l     O .data	00000004 ADCPrescTable
00000000 l    df *ABS*	00000000 ch32v10x_tim.c
00000000 l    df *ABS*	00000000 ch32v10x_usart.c
00000000 l    df *ABS*	00000000 SEEKFREE_OLED.c
00005384 l     O .text	0000000d __func__.3179
00000000 l    df *ABS*	00000000 zf_gpio.c
00000000 l    df *ABS*	00000000 zf_nvic.c
00000000 l    df *ABS*	00000000 zf_pit.c
000053a4 l     O .text	00000017 __func__.3543
00000000 l    df *ABS*	00000000 zf_pwm.c
00000000 l    df *ABS*	00000000 zf_systick.c
00000000 l    df *ABS*	00000000 zf_uart.c
00000000 l    df *ABS*	00000000 board.c
00000000 l    df *ABS*	00000000 clock_config.c
00003440 l     F .text	00000140 SetSysClock
00000000 l    df *ABS*	00000000 Control.c
00000000 l    df *ABS*	00000000 Get_deta.c
200000a4 l     O .bss	00000001 uart_num.6308
00000000 l    df *ABS*	00000000 Init.c
00000000 l    df *ABS*	00000000 Key.c
200000a8 l     O .bss	00000006 keytime.6328
00000000 l    df *ABS*	00000000 menu.c
00000000 l    df *ABS*	00000000 assert.c
00000000 l    df *ABS*	00000000 fprintf.c
00000000 l    df *ABS*	00000000 nano-vfprintf.c
00003eee l     F .text	00000028 __sfputc_r
00000000 l    df *ABS*	00000000 nano-vfprintf_i.c
00000000 l    df *ABS*	00000000 wbuf.c
00000000 l    df *ABS*	00000000 wsetup.c
00000000 l    df *ABS*	00000000 abort.c
00000000 l    df *ABS*	00000000 fflush.c
00000000 l    df *ABS*	00000000 findfp.c
00004922 l     F .text	0000006a std
00000000 l    df *ABS*	00000000 fwalk.c
00000000 l    df *ABS*	00000000 makebuf.c
00000000 l    df *ABS*	00000000 memchr.c
00000000 l    df *ABS*	00000000 nano-mallocr.c
00000000 l    df *ABS*	00000000 nano-mallocr.c
00000000 l    df *ABS*	00000000 sbrkr.c
00000000 l    df *ABS*	00000000 signal.c
00000000 l    df *ABS*	00000000 signalr.c
00000000 l    df *ABS*	00000000 stdio.c
00000000 l    df *ABS*	00000000 writer.c
00000000 l    df *ABS*	00000000 closer.c
00000000 l    df *ABS*	00000000 fstatr.c
00000000 l    df *ABS*	00000000 isattyr.c
00000000 l    df *ABS*	00000000 lseekr.c
00000000 l    df *ABS*	00000000 mlock.c
00000000 l    df *ABS*	00000000 readr.c
00000000 l    df *ABS*	00000000 close.c
00000000 l    df *ABS*	00000000 fstat.c
00000000 l    df *ABS*	00000000 getpid.c
00000000 l    df *ABS*	00000000 isatty.c
00000000 l    df *ABS*	00000000 kill.c
00000000 l    df *ABS*	00000000 lseek.c
00000000 l    df *ABS*	00000000 read.c
00000000 l    df *ABS*	00000000 sbrk.c
200000c0 l     O .bss	00000004 heap_end.1518
00000000 l    df *ABS*	00000000 _exit.c
00000000 l    df *ABS*	00000000 SEEKFREE_FONT.c
00000000 l    df *ABS*	00000000 zf_qtimer.c
00000000 l    df *ABS*	00000000 impure.c
20000028 l     O .data	00000060 impure_data
00000000 l    df *ABS*	00000000 Flash.c
00000000 l    df *ABS*	00000000 common.c
00000000 l    df *ABS*	00000000 reent.c
00004fc6 g     F .text	00000028 _isatty_r
00005062 g     F .text	0000000c _getpid
00004fee g     F .text	0000002c _lseek_r
200000d0 g     O .bss	00000002 slave_b
00002712 g     F .text	00000080 gpio_interrupt_init
200000a6 g     O .bss	00000001 key_msg_rear
00004e60 g     F .text	0000002a _kill_r
20000888 g       .data	00000000 __global_pointer$
00004f0a g     F .text	00000036 __sseek
000049dc g     F .text	00000066 __sinit
000045a6 g     F .text	000000c0 __swbuf_r
00004996 g     F .text	00000046 __sfmoreglue
0000501c g     F .text	00000002 __malloc_unlock
000038d4 g     F .text	00000078 key_init
000016ca g     F .text	0000004c TIM_OC1PreloadConfig
00003c14 g     F .text	00000018 Menu_player
200000a5 g     O .bss	00000001 key_msg_front
000009bc g     F .text	00000226 NVIC_Init
200000a0 g     O .bss	00000004 sys_clk
00002114 g     F .text	0000012e oled_init
200000d2 g     O .bss	00000002 slave_c
00003e38 g     F .text	0000003a Menu_Image
00001da4 g     F .text	00000046 USART_GetFlagStatus
00004f9c g     F .text	0000002a _fstat_r
00003e72 g     F .text	0000001c Menu_Line
000053bc g     O .text	00000010 TIMERN
20000184 g     O .bss	00000004 errno
20000098 g       .bss	00000000 _sbss
00000800 g       *ABS*	00000000 __stack_size
200000d4 g     O .bss	0000000b temp_buff
200000b0 g     O .bss	00000004 interact_signal
000038be g     F .text	00000016 running
200000df g     O .bss	00000001 uart_flag
000015fa g     F .text	00000060 TIM_CtrlPWMOutputs
0000498c g     F .text	0000000a _cleanup_r
00000750 g     F .text	0000013c GPIO_PinRemapConfig
00003614 g     F .text	00000040 EXTI0_IRQHandler
00003654 g     F .text	00000086 get_slave_data
000015a2 g     F .text	00000058 TIM_Cmd
000017bc g     F .text	0000005a TIM_OC4PreloadConfig
000026ac g     F .text	00000066 gpio_toggle
00001d7e g     F .text	00000026 USART_ReceiveData
00004df4 g     F .text	00000062 _raise_r
00005056 g     F .text	0000000c _fstat
00003e8e g     F .text	0000003a __assert_func
00000038 g       .init	00000000 _einit
0000284c g     F .text	00000028 sys_recover_irq
000019ca g     F .text	0000002e TIM_ClearITPendingBit
00000dfc g     F .text	00000046 RCC_APB2PeriphClockCmd
00003ad6 g     F .text	0000013e key_IRQHandler
00004e8a g     F .text	00000002 _getpid_r
000004ee g     F .text	0000022a GPIO_Init
00002792 g     F .text	00000098 nvic_init
20000098 g     O .bss	00000004 NVIC_Priority_Group
00001c2c g     F .text	00000060 USART_Cmd
00003984 g     F .text	000000aa send_key_msg
00004dcc g     F .text	00000028 _sbrk_r
00003cee g     F .text	00000090 Menu_Key_Page_Handle
000012a8 g     F .text	000001b0 TIM_OC3Init
0000501e g     F .text	0000002c _read_r
00001eec g     F .text	0000004e USART_ClearITPendingBit
200000a7 g     O .bss	00000001 key_msg_flag
00000e42 g     F .text	00000046 RCC_APB1PeriphClockCmd
0000506e g     F .text	0000000c _isatty
20000094 g     O .data	00000004 _global_impure_ptr
000036da g     F .text	000000cc data_analysis
000018b8 g     F .text	0000004c TIM_OC3FastConfig
00004772 g     F .text	0000000e abort
00002898 g     F .text	0000015e timer_pit_interrupt_ms
0000509e g     F .text	00000020 _sbrk
200000e0 g     O .bss	00000001 show_flag
000004ce g     F .text	00000020 EXTI_ClearITPendingBit
20000188 g       .bss	00000000 _ebss
00001dea g     F .text	00000102 USART_GetITStatus
00000f82 g     F .text	00000170 TIM_OC1Init
00001770 g     F .text	0000004c TIM_OC3PreloadConfig
00003c2c g     F .text	000000c2 Menu_Getsign
0000311c g     F .text	00000070 systick_delay
00003db4 g     F .text	00000084 Menu_Main
000053cc g     O .text	00000010 UARTN
00002d5a g     F .text	000003c2 pwm_init
00003ec8 g     F .text	00000026 fprintf
00000718 g     F .text	00000038 GPIO_WriteBit
00002096 g     F .text	0000007e oled_hexascii
00005458 g     O .text	00000020 __sf_fake_stderr
20000188 g       .bss	00000000 end
00003a2e g     F .text	000000a8 get_key_msg
000037a6 g     F .text	00000118 Init_ALL
0000195a g     F .text	00000070 TIM_GetITStatus
00000be2 g     F .text	0000021a RCC_GetClocksFreq
00003f16 g     F .text	00000042 __sfputs_r
00003278 g     F .text	000000ba uart_init
00004c40 g     F .text	0000001a memchr
000019f8 g     F .text	00000234 USART_Init
000022dc g     F .text	0000006a oled_fill
00004c5a g     F .text	000000a4 _free_r
00002656 g     F .text	00000056 gpio_get
000001e8 g     F .text	00000044 TIM3_IRQHandler
00002874 g     F .text	00000024 EnableGlobalIRQ
0000318c g     F .text	000000ec uart_gpio_init
00001816 g     F .text	0000004c TIM_OC1FastConfig
00000000 g       .init	00000000 _start
00005086 g     F .text	0000000c _lseek
00001716 g     F .text	0000005a TIM_OC2PreloadConfig
0000282a g     F .text	00000022 close_all_irq
00005394 g     O .text	00000010 GPION
0000165a g     F .text	00000070 TIM_ITConfig
000010f2 g     F .text	000001b6 TIM_OC2Init
00001c8c g     F .text	000000c4 USART_ITConfig
00000308 g     F .text	00000170 EXTI_Init
00002346 g     F .text	000000d2 oled_p6x8str
200000b4 g     O .bss	00000004 interact_page
00004f74 g     F .text	00000028 _close_r
20000000 g       .dalign	00000000 _data_vma
00001458 g     F .text	0000014a TIM_OC4Init
00004666 g     F .text	0000010c __swsetup_r
00004a42 g     F .text	0000009e __sfp
2000008c g     O .data	00000004 flash_a_test
200000ae g     O .bss	00000001 change_enable
0000088c g     F .text	000000a2 GPIO_EXTILineConfig
00003382 g     F .text	00000046 board_init
00004e8c g     F .text	00000030 __sread
0000501a g     F .text	00000002 __malloc_lock
000048bc g     F .text	00000066 _fflush_r
000035fc g     F .text	00000018 main_control
00000478 g     F .text	00000056 EXTI_GetITStatus
00005478 g     O .text	00000020 __sf_fake_stdin
00000140 g     F .text	000000a8 memset
0000027c g     F .text	00000012 main
00004f40 g     F .text	00000006 __sclose
00004cfe g     F .text	000000ce _malloc_r
00001862 g     F .text	00000056 TIM_OC2FastConfig
00003580 g     F .text	0000007c SystemInit
00000000 g       .init	00000000 _sinit
00004f46 g     F .text	0000002e _write_r
00001f3a g     F .text	000000ae oled_wrdat
200000c4 g     O .bss	0000000c irq_status
000041f6 g     F .text	0000010c _printf_common
20000090 g     O .data	00000004 _impure_ptr
0000394c g     F .text	00000038 key_get
00004780 g     F .text	0000013c __sflush_r
0000515c g     O .text	00000228 oled_6x8
200000e2 g     O .bss	00000002 slave_a
20005000 g       .stack	00000000 _eusrstack
00003d7e g     F .text	00000036 Menu_Display
2000009c g     O .bss	00000001 close_all_irq_flag
00004b4c g     F .text	00000058 __swhatbuf_r
00001d50 g     F .text	0000002e USART_SendData
000033c8 g     F .text	00000078 _write
20000098 g       .data	00000000 _edata
00000e88 g     F .text	000000fa TIM_TimeBaseInit
000054b8 g       .dlalign	00000000 _data_lma
0000022c g     F .text	00000050 USART2_IRQHandler
00004ebc g     F .text	0000004e __swrite
00003ec8 g     F .text	00000026 fiprintf
00003f58 g     F .text	0000029e _vfiprintf_r
00004ae0 g     F .text	0000006c _fwalk_reent
20000010 g     O .data	00000018 KEY_PTxn
0000507a g     F .text	0000000c _kill
00002242 g     F .text	0000009a oled_set_pos
200000e4 g     O .bss	000000a0 key_msg
00005498 g     O .text	00000020 __sf_fake_stdout
00005092 g     F .text	0000000c _read
0000028e  w      .text	00000000 handle_reset
000029f6 g     F .text	00000364 pwm_gpio_init
000050be g     F .text	00000002 _exit
00004ba4 g     F .text	0000009c __smakebuf_r
00004302 g     F .text	000002a4 _printf_i
200000bc g     O .bss	00000004 __malloc_sbrk_start
00003332 g     F .text	00000050 uart_rx_irq
000024b2 g     F .text	000001a4 gpio_init
200000b8 g     O .bss	00000004 __malloc_free_list
00003f58 g     F .text	0000029e _vfprintf_r
00001904 g     F .text	00000056 TIM_OC4FastConfig
00002418 g     F .text	0000009a oled_int16
00001fe8 g     F .text	000000ae oled_wrcmd
0000504a g     F .text	0000000c _close
00004e56 g     F .text	0000000a raise



Disassembly of section .init:

00000000 <_sinit>:
_start():
D:\WCH\代码\3-PIT%20Demo\obj/../Libraries/wch_libraries/Startup/startup_ch32v10x.S:13

	.section	.init,"ax",@progbits
	.global	_start
	.align	1
_start:
	j	handle_reset
   0:	28e0006f          	j	28e <handle_reset>
   4:	00000013          	nop
   8:	00000013          	nop
   c:	00000013          	nop
  10:	00000013          	nop
  14:	00000013          	nop
  18:	00000013          	nop
  1c:	00000013          	nop
  20:	00000013          	nop
  24:	00000013          	nop
  28:	00000013          	nop
  2c:	00000013          	nop
  30:	00000013          	nop
  34:	00100073          	ebreak

Disassembly of section .vector:

00000038 <_vector_base>:
_vector_base():
D:\WCH\代码\3-PIT%20Demo\obj/../Libraries/wch_libraries/Startup/startup_ch32v10x.S:31
	.word 0x00100073
    .section    .vector,"ax",@progbits
    .align  1
_vector_base:
    .option norvc;
        j   _start
  38:	fc9ff06f          	j	0 <_sinit>
  3c:	0000                	unimp
  3e:	0000                	unimp
D:\WCH\代码\3-PIT%20Demo\obj/../Libraries/wch_libraries/Startup/startup_ch32v10x.S:33
    .word   0
        j   NMI_Handler                 /* NMI Handler */
  40:	fc1ff06f          	j	0 <_sinit>
D:\WCH\代码\3-PIT%20Demo\obj/../Libraries/wch_libraries/Startup/startup_ch32v10x.S:34
        j   HardFault_Handler           /* Hard Fault Handler */
  44:	fbdff06f          	j	0 <_sinit>
	...
D:\WCH\代码\3-PIT%20Demo\obj/../Libraries/wch_libraries/Startup/startup_ch32v10x.S:43
    .word   0
    .word   0
    .word   0
    .word   0
    .word   0
        j   SysTick_Handler            /* SysTick Handler */
  68:	f99ff06f          	j	0 <_sinit>
  6c:	0000                	unimp
  6e:	0000                	unimp
D:\WCH\代码\3-PIT%20Demo\obj/../Libraries/wch_libraries/Startup/startup_ch32v10x.S:45
    .word   0
        j   SW_handler                 /* SW Handler */
  70:	f91ff06f          	j	0 <_sinit>
  74:	0000                	unimp
  76:	0000                	unimp
D:\WCH\代码\3-PIT%20Demo\obj/../Libraries/wch_libraries/Startup/startup_ch32v10x.S:48
    .word   0
    /* External Interrupts */
        j   WWDG_IRQHandler            /* Window Watchdog */
  78:	f89ff06f          	j	0 <_sinit>
D:\WCH\代码\3-PIT%20Demo\obj/../Libraries/wch_libraries/Startup/startup_ch32v10x.S:49
        j   PVD_IRQHandler             /* PVD through EXTI Line detect */
  7c:	f85ff06f          	j	0 <_sinit>
D:\WCH\代码\3-PIT%20Demo\obj/../Libraries/wch_libraries/Startup/startup_ch32v10x.S:50
        j   TAMPER_IRQHandler          /* TAMPER */
  80:	f81ff06f          	j	0 <_sinit>
D:\WCH\代码\3-PIT%20Demo\obj/../Libraries/wch_libraries/Startup/startup_ch32v10x.S:51
        j   RTC_IRQHandler             /* RTC */
  84:	f7dff06f          	j	0 <_sinit>
D:\WCH\代码\3-PIT%20Demo\obj/../Libraries/wch_libraries/Startup/startup_ch32v10x.S:52
        j   FLASH_IRQHandler           /* Flash */
  88:	f79ff06f          	j	0 <_sinit>
D:\WCH\代码\3-PIT%20Demo\obj/../Libraries/wch_libraries/Startup/startup_ch32v10x.S:53
        j   RCC_IRQHandler             /* RCC */
  8c:	f75ff06f          	j	0 <_sinit>
D:\WCH\代码\3-PIT%20Demo\obj/../Libraries/wch_libraries/Startup/startup_ch32v10x.S:54
        j   EXTI0_IRQHandler           /* EXTI Line 0 */
  90:	5840306f          	j	3614 <EXTI0_IRQHandler>
D:\WCH\代码\3-PIT%20Demo\obj/../Libraries/wch_libraries/Startup/startup_ch32v10x.S:55
        j   EXTI1_IRQHandler           /* EXTI Line 1 */
  94:	f6dff06f          	j	0 <_sinit>
D:\WCH\代码\3-PIT%20Demo\obj/../Libraries/wch_libraries/Startup/startup_ch32v10x.S:56
        j   EXTI2_IRQHandler           /* EXTI Line 2 */
  98:	f69ff06f          	j	0 <_sinit>
D:\WCH\代码\3-PIT%20Demo\obj/../Libraries/wch_libraries/Startup/startup_ch32v10x.S:57
        j   EXTI3_IRQHandler           /* EXTI Line 3 */
  9c:	f65ff06f          	j	0 <_sinit>
D:\WCH\代码\3-PIT%20Demo\obj/../Libraries/wch_libraries/Startup/startup_ch32v10x.S:58
        j   EXTI4_IRQHandler           /* EXTI Line 4 */
  a0:	f61ff06f          	j	0 <_sinit>
D:\WCH\代码\3-PIT%20Demo\obj/../Libraries/wch_libraries/Startup/startup_ch32v10x.S:59
        j   DMA1_Channel1_IRQHandler   /* DMA1 Channel 1 */
  a4:	f5dff06f          	j	0 <_sinit>
D:\WCH\代码\3-PIT%20Demo\obj/../Libraries/wch_libraries/Startup/startup_ch32v10x.S:60
        j   DMA1_Channel2_IRQHandler   /* DMA1 Channel 2 */
  a8:	f59ff06f          	j	0 <_sinit>
D:\WCH\代码\3-PIT%20Demo\obj/../Libraries/wch_libraries/Startup/startup_ch32v10x.S:61
        j   DMA1_Channel3_IRQHandler   /* DMA1 Channel 3 */
  ac:	f55ff06f          	j	0 <_sinit>
D:\WCH\代码\3-PIT%20Demo\obj/../Libraries/wch_libraries/Startup/startup_ch32v10x.S:62
        j   DMA1_Channel4_IRQHandler   /* DMA1 Channel 4 */
  b0:	f51ff06f          	j	0 <_sinit>
D:\WCH\代码\3-PIT%20Demo\obj/../Libraries/wch_libraries/Startup/startup_ch32v10x.S:63
        j   DMA1_Channel5_IRQHandler   /* DMA1 Channel 5 */
  b4:	f4dff06f          	j	0 <_sinit>
D:\WCH\代码\3-PIT%20Demo\obj/../Libraries/wch_libraries/Startup/startup_ch32v10x.S:64
        j   DMA1_Channel6_IRQHandler   /* DMA1 Channel 6 */
  b8:	f49ff06f          	j	0 <_sinit>
D:\WCH\代码\3-PIT%20Demo\obj/../Libraries/wch_libraries/Startup/startup_ch32v10x.S:65
        j   DMA1_Channel7_IRQHandler   /* DMA1 Channel 7 */
  bc:	f45ff06f          	j	0 <_sinit>
D:\WCH\代码\3-PIT%20Demo\obj/../Libraries/wch_libraries/Startup/startup_ch32v10x.S:66
        j   ADC1_2_IRQHandler          /* ADC1_2 */
  c0:	f41ff06f          	j	0 <_sinit>
	...
D:\WCH\代码\3-PIT%20Demo\obj/../Libraries/wch_libraries/Startup/startup_ch32v10x.S:71
        .word   0
        .word   0
        .word   0
        .word   0
        j   EXTI9_5_IRQHandler         /* EXTI Line 9..5 */
  d4:	f2dff06f          	j	0 <_sinit>
D:\WCH\代码\3-PIT%20Demo\obj/../Libraries/wch_libraries/Startup/startup_ch32v10x.S:72
        j   TIM1_BRK_IRQHandler        /* TIM1 Break */
  d8:	f29ff06f          	j	0 <_sinit>
D:\WCH\代码\3-PIT%20Demo\obj/../Libraries/wch_libraries/Startup/startup_ch32v10x.S:73
        j   TIM1_UP_IRQHandler         /* TIM1 Update */
  dc:	f25ff06f          	j	0 <_sinit>
D:\WCH\代码\3-PIT%20Demo\obj/../Libraries/wch_libraries/Startup/startup_ch32v10x.S:74
        j   TIM1_TRG_COM_IRQHandler    /* TIM1 Trigger and Commutation */
  e0:	f21ff06f          	j	0 <_sinit>
D:\WCH\代码\3-PIT%20Demo\obj/../Libraries/wch_libraries/Startup/startup_ch32v10x.S:75
        j   TIM1_CC_IRQHandler         /* TIM1 Capture Compare */
  e4:	f1dff06f          	j	0 <_sinit>
D:\WCH\代码\3-PIT%20Demo\obj/../Libraries/wch_libraries/Startup/startup_ch32v10x.S:76
        j   TIM2_IRQHandler            /* TIM2 */
  e8:	f19ff06f          	j	0 <_sinit>
D:\WCH\代码\3-PIT%20Demo\obj/../Libraries/wch_libraries/Startup/startup_ch32v10x.S:77
        j   TIM3_IRQHandler            /* TIM3 */
  ec:	0fc0006f          	j	1e8 <TIM3_IRQHandler>
D:\WCH\代码\3-PIT%20Demo\obj/../Libraries/wch_libraries/Startup/startup_ch32v10x.S:78
        j   TIM4_IRQHandler            /* TIM4 */
  f0:	f11ff06f          	j	0 <_sinit>
D:\WCH\代码\3-PIT%20Demo\obj/../Libraries/wch_libraries/Startup/startup_ch32v10x.S:79
        j   I2C1_EV_IRQHandler         /* I2C1 Event */
  f4:	f0dff06f          	j	0 <_sinit>
D:\WCH\代码\3-PIT%20Demo\obj/../Libraries/wch_libraries/Startup/startup_ch32v10x.S:80
        j   I2C1_ER_IRQHandler         /* I2C1 Error */
  f8:	f09ff06f          	j	0 <_sinit>
D:\WCH\代码\3-PIT%20Demo\obj/../Libraries/wch_libraries/Startup/startup_ch32v10x.S:81
        j   I2C2_EV_IRQHandler         /* I2C2 Event */
  fc:	f05ff06f          	j	0 <_sinit>
D:\WCH\代码\3-PIT%20Demo\obj/../Libraries/wch_libraries/Startup/startup_ch32v10x.S:82
        j   I2C2_ER_IRQHandler         /* I2C2 Error */
 100:	f01ff06f          	j	0 <_sinit>
D:\WCH\代码\3-PIT%20Demo\obj/../Libraries/wch_libraries/Startup/startup_ch32v10x.S:83
        j   SPI1_IRQHandler            /* SPI1 */
 104:	efdff06f          	j	0 <_sinit>
D:\WCH\代码\3-PIT%20Demo\obj/../Libraries/wch_libraries/Startup/startup_ch32v10x.S:84
        j   SPI2_IRQHandler            /* SPI2 */
 108:	ef9ff06f          	j	0 <_sinit>
D:\WCH\代码\3-PIT%20Demo\obj/../Libraries/wch_libraries/Startup/startup_ch32v10x.S:85
        j   USART1_IRQHandler          /* USART1 */
 10c:	ef5ff06f          	j	0 <_sinit>
D:\WCH\代码\3-PIT%20Demo\obj/../Libraries/wch_libraries/Startup/startup_ch32v10x.S:86
        j   USART2_IRQHandler          /* USART2 */
 110:	11c0006f          	j	22c <USART2_IRQHandler>
D:\WCH\代码\3-PIT%20Demo\obj/../Libraries/wch_libraries/Startup/startup_ch32v10x.S:87
        j   USART3_IRQHandler          /* USART3 */
 114:	eedff06f          	j	0 <_sinit>
D:\WCH\代码\3-PIT%20Demo\obj/../Libraries/wch_libraries/Startup/startup_ch32v10x.S:88
        j   EXTI15_10_IRQHandler       /* EXTI Line 15..10 */
 118:	ee9ff06f          	j	0 <_sinit>
D:\WCH\代码\3-PIT%20Demo\obj/../Libraries/wch_libraries/Startup/startup_ch32v10x.S:89
        j   RTCAlarm_IRQHandler        /* RTC Alarm through EXTI Line */
 11c:	ee5ff06f          	j	0 <_sinit>
D:\WCH\代码\3-PIT%20Demo\obj/../Libraries/wch_libraries/Startup/startup_ch32v10x.S:90
        j   USBWakeUp_IRQHandler       /* USB Wakeup from suspend */
 120:	ee1ff06f          	j	0 <_sinit>
D:\WCH\代码\3-PIT%20Demo\obj/../Libraries/wch_libraries/Startup/startup_ch32v10x.S:91
        j   USBHD_IRQHandler           /* USBHD */
 124:	eddff06f          	j	0 <_sinit>
	...

Disassembly of section .text:

00000140 <memset>:
memset():
     140:	433d                	li	t1,15
     142:	872a                	mv	a4,a0
     144:	02c37363          	bgeu	t1,a2,16a <memset+0x2a>
     148:	00f77793          	andi	a5,a4,15
     14c:	efbd                	bnez	a5,1ca <memset+0x8a>
     14e:	e5ad                	bnez	a1,1b8 <memset+0x78>
     150:	ff067693          	andi	a3,a2,-16
     154:	8a3d                	andi	a2,a2,15
     156:	96ba                	add	a3,a3,a4
     158:	c30c                	sw	a1,0(a4)
     15a:	c34c                	sw	a1,4(a4)
     15c:	c70c                	sw	a1,8(a4)
     15e:	c74c                	sw	a1,12(a4)
     160:	0741                	addi	a4,a4,16
     162:	fed76be3          	bltu	a4,a3,158 <memset+0x18>
     166:	e211                	bnez	a2,16a <memset+0x2a>
     168:	8082                	ret
     16a:	40c306b3          	sub	a3,t1,a2
     16e:	068a                	slli	a3,a3,0x2
     170:	00000297          	auipc	t0,0x0
     174:	9696                	add	a3,a3,t0
     176:	00a68067          	jr	10(a3)
     17a:	00b70723          	sb	a1,14(a4)
     17e:	00b706a3          	sb	a1,13(a4)
     182:	00b70623          	sb	a1,12(a4)
     186:	00b705a3          	sb	a1,11(a4)
     18a:	00b70523          	sb	a1,10(a4)
     18e:	00b704a3          	sb	a1,9(a4)
     192:	00b70423          	sb	a1,8(a4)
     196:	00b703a3          	sb	a1,7(a4)
     19a:	00b70323          	sb	a1,6(a4)
     19e:	00b702a3          	sb	a1,5(a4)
     1a2:	00b70223          	sb	a1,4(a4)
     1a6:	00b701a3          	sb	a1,3(a4)
     1aa:	00b70123          	sb	a1,2(a4)
     1ae:	00b700a3          	sb	a1,1(a4)
     1b2:	00b70023          	sb	a1,0(a4)
     1b6:	8082                	ret
     1b8:	0ff5f593          	andi	a1,a1,255
     1bc:	00859693          	slli	a3,a1,0x8
     1c0:	8dd5                	or	a1,a1,a3
     1c2:	01059693          	slli	a3,a1,0x10
     1c6:	8dd5                	or	a1,a1,a3
     1c8:	b761                	j	150 <memset+0x10>
     1ca:	00279693          	slli	a3,a5,0x2
     1ce:	00000297          	auipc	t0,0x0
     1d2:	9696                	add	a3,a3,t0
     1d4:	8286                	mv	t0,ra
     1d6:	fa8680e7          	jalr	-88(a3)
     1da:	8096                	mv	ra,t0
     1dc:	17c1                	addi	a5,a5,-16
     1de:	8f1d                	sub	a4,a4,a5
     1e0:	963e                	add	a2,a2,a5
     1e2:	f8c374e3          	bgeu	t1,a2,16a <memset+0x2a>
     1e6:	b7a5                	j	14e <memset+0xe>

000001e8 <TIM3_IRQHandler>:
TIM3_IRQHandler():
D:\WCH\代码\3-PIT%20Demo\obj/../USER/isr.c:11

void TIM3_IRQHandler(void) __attribute__((interrupt("WCH-Interrupt-fast")));
void USART2_IRQHandler(void) __attribute__((interrupt("WCH-Interrupt-fast")));

void TIM3_IRQHandler(void)
{
     1e8:	1141                	addi	sp,sp,-16
     1ea:	c622                	sw	s0,12(sp)
     1ec:	0800                	addi	s0,sp,16
D:\WCH\代码\3-PIT%20Demo\obj/../USER/isr.c:13

    if(TIM_GetITStatus(TIM3, TIM_IT_Update) != RESET)
     1ee:	4585                	li	a1,1
     1f0:	400007b7          	lui	a5,0x40000
     1f4:	40078513          	addi	a0,a5,1024 # 40000400 <_eusrstack+0x1fffb400>
     1f8:	762010ef          	jal	ra,195a <TIM_GetITStatus>
     1fc:	87aa                	mv	a5,a0
     1fe:	c395                	beqz	a5,222 <TIM3_IRQHandler+0x3a>
D:\WCH\代码\3-PIT%20Demo\obj/../USER/isr.c:15
    {
        TIM_ClearITPendingBit(TIM3, TIM_IT_Update );
     200:	4585                	li	a1,1
     202:	400007b7          	lui	a5,0x40000
     206:	40078513          	addi	a0,a5,1024 # 40000400 <_eusrstack+0x1fffb400>
     20a:	7c0010ef          	jal	ra,19ca <TIM_ClearITPendingBit>
D:\WCH\代码\3-PIT%20Demo\obj/../USER/isr.c:16
        flash_a_test++;
     20e:	200007b7          	lui	a5,0x20000
     212:	08c7a783          	lw	a5,140(a5) # 2000008c <flash_a_test>
     216:	00178713          	addi	a4,a5,1
     21a:	200007b7          	lui	a5,0x20000
     21e:	08e7a623          	sw	a4,140(a5) # 2000008c <flash_a_test>
D:\WCH\代码\3-PIT%20Demo\obj/../USER/isr.c:18
    }
}
     222:	0001                	nop
     224:	4432                	lw	s0,12(sp)
     226:	0141                	addi	sp,sp,16
     228:	30200073          	mret

0000022c <USART2_IRQHandler>:
USART2_IRQHandler():
D:\WCH\代码\3-PIT%20Demo\obj/../USER/isr.c:21

void USART2_IRQHandler(void)
{
     22c:	1101                	addi	sp,sp,-32
     22e:	ce22                	sw	s0,28(sp)
     230:	1000                	addi	s0,sp,32
D:\WCH\代码\3-PIT%20Demo\obj/../USER/isr.c:23
    uint8 dat;
    if(USART_GetITStatus(USART2, USART_IT_RXNE) != RESET)
     232:	52500593          	li	a1,1317
     236:	400047b7          	lui	a5,0x40004
     23a:	40078513          	addi	a0,a5,1024 # 40004400 <_eusrstack+0x1ffff400>
     23e:	3ad010ef          	jal	ra,1dea <USART_GetITStatus>
     242:	87aa                	mv	a5,a0
     244:	c79d                	beqz	a5,272 <USART2_IRQHandler+0x46>
D:\WCH\代码\3-PIT%20Demo\obj/../USER/isr.c:25
    {
        USART_ClearITPendingBit(USART2, USART_IT_RXNE); //清除串口接收中断标志位
     246:	52500593          	li	a1,1317
     24a:	400047b7          	lui	a5,0x40004
     24e:	40078513          	addi	a0,a5,1024 # 40004400 <_eusrstack+0x1ffff400>
     252:	49b010ef          	jal	ra,1eec <USART_ClearITPendingBit>
D:\WCH\代码\3-PIT%20Demo\obj/../USER/isr.c:26
        dat = USART_ReceiveData(USART2);                //获取串口数据
     256:	400047b7          	lui	a5,0x40004
     25a:	40078513          	addi	a0,a5,1024 # 40004400 <_eusrstack+0x1ffff400>
     25e:	321010ef          	jal	ra,1d7e <USART_ReceiveData>
     262:	87aa                	mv	a5,a0
     264:	fef407a3          	sb	a5,-17(s0)
D:\WCH\代码\3-PIT%20Demo\obj/../USER/isr.c:27
        get_slave_data(dat);                            //将每一个字节的串口数据存入temp_buff中。
     268:	fef44783          	lbu	a5,-17(s0)
     26c:	853e                	mv	a0,a5
     26e:	3e6030ef          	jal	ra,3654 <get_slave_data>
D:\WCH\代码\3-PIT%20Demo\obj/../USER/isr.c:29
    }
}
     272:	0001                	nop
     274:	4472                	lw	s0,28(sp)
     276:	6105                	addi	sp,sp,32
     278:	30200073          	mret

0000027c <main>:
main():
D:\WCH\代码\3-PIT%20Demo\obj/../USER/main.c:5
#include "FIRELOCK.h"


int main(void)
{
     27c:	1141                	addi	sp,sp,-16
     27e:	c606                	sw	ra,12(sp)
     280:	c422                	sw	s0,8(sp)
     282:	0800                	addi	s0,sp,16
D:\WCH\代码\3-PIT%20Demo\obj/../USER/main.c:7

    Init_ALL();//flash_page_read ( FLASH_SECTION_00,  FLASH_PAGE_0, (uint32 *)&flash_a_test, 16);
     284:	522030ef          	jal	ra,37a6 <Init_ALL>
D:\WCH\代码\3-PIT%20Demo\obj/../USER/main.c:15 (discriminator 1)
//        //将第15个扇区的第0页 读取到read_buff中
//flash_page_program(FLASH_SECTION_15, FLASH_PAGE_3, write_buff, 10);

    while(1)
    {
       running();
     288:	636030ef          	jal	ra,38be <running>
     28c:	bff5                	j	288 <main+0xc>

0000028e <handle_reset>:
handle_reset():
D:\WCH\代码\3-PIT%20Demo\obj/../Libraries/wch_libraries/Startup/startup_ch32v10x.S:147
	.weak	handle_reset
	.align	1
handle_reset:
.option push 
.option	norelax 
	la gp, __global_pointer$
     28e:	20000197          	auipc	gp,0x20000
     292:	5fa18193          	addi	gp,gp,1530 # 20000888 <__global_pointer$>
D:\WCH\代码\3-PIT%20Demo\obj/../Libraries/wch_libraries/Startup/startup_ch32v10x.S:150
.option	pop 
1:
	la sp, _eusrstack 
     296:	20005117          	auipc	sp,0x20005
     29a:	d6a10113          	addi	sp,sp,-662 # 20005000 <_eusrstack>
D:\WCH\代码\3-PIT%20Demo\obj/../Libraries/wch_libraries/Startup/startup_ch32v10x.S:153
2:
	/* Load data section from flash to RAM */
	la a0, _data_lma
     29e:	00005517          	auipc	a0,0x5
     2a2:	21a50513          	addi	a0,a0,538 # 54b8 <_data_lma>
D:\WCH\代码\3-PIT%20Demo\obj/../Libraries/wch_libraries/Startup/startup_ch32v10x.S:154
	la a1, _data_vma
     2a6:	20000597          	auipc	a1,0x20000
     2aa:	d5a58593          	addi	a1,a1,-678 # 20000000 <_data_vma>
D:\WCH\代码\3-PIT%20Demo\obj/../Libraries/wch_libraries/Startup/startup_ch32v10x.S:155
	la a2, _edata
     2ae:	81018613          	addi	a2,gp,-2032 # 20000098 <_edata>
D:\WCH\代码\3-PIT%20Demo\obj/../Libraries/wch_libraries/Startup/startup_ch32v10x.S:156
	bgeu a1, a2, 2f
     2b2:	00c5fa63          	bgeu	a1,a2,2c6 <handle_reset+0x38>
D:\WCH\代码\3-PIT%20Demo\obj/../Libraries/wch_libraries/Startup/startup_ch32v10x.S:158
1:
	lw t0, (a0)
     2b6:	00052283          	lw	t0,0(a0)
D:\WCH\代码\3-PIT%20Demo\obj/../Libraries/wch_libraries/Startup/startup_ch32v10x.S:159
	sw t0, (a1)
     2ba:	0055a023          	sw	t0,0(a1)
D:\WCH\代码\3-PIT%20Demo\obj/../Libraries/wch_libraries/Startup/startup_ch32v10x.S:160
	addi a0, a0, 4
     2be:	0511                	addi	a0,a0,4
D:\WCH\代码\3-PIT%20Demo\obj/../Libraries/wch_libraries/Startup/startup_ch32v10x.S:161
	addi a1, a1, 4
     2c0:	0591                	addi	a1,a1,4
D:\WCH\代码\3-PIT%20Demo\obj/../Libraries/wch_libraries/Startup/startup_ch32v10x.S:162
	bltu a1, a2, 1b
     2c2:	fec5eae3          	bltu	a1,a2,2b6 <handle_reset+0x28>
D:\WCH\代码\3-PIT%20Demo\obj/../Libraries/wch_libraries/Startup/startup_ch32v10x.S:165
2:
	/* clear bss section */
	la a0, _sbss
     2c6:	81018513          	addi	a0,gp,-2032 # 20000098 <_edata>
D:\WCH\代码\3-PIT%20Demo\obj/../Libraries/wch_libraries/Startup/startup_ch32v10x.S:166
	la a1, _ebss
     2ca:	90018593          	addi	a1,gp,-1792 # 20000188 <_ebss>
D:\WCH\代码\3-PIT%20Demo\obj/../Libraries/wch_libraries/Startup/startup_ch32v10x.S:167
	bgeu a0, a1, 2f
     2ce:	00b57763          	bgeu	a0,a1,2dc <handle_reset+0x4e>
D:\WCH\代码\3-PIT%20Demo\obj/../Libraries/wch_libraries/Startup/startup_ch32v10x.S:169
1:
	sw zero, (a0)
     2d2:	00052023          	sw	zero,0(a0)
D:\WCH\代码\3-PIT%20Demo\obj/../Libraries/wch_libraries/Startup/startup_ch32v10x.S:170
	addi a0, a0, 4
     2d6:	0511                	addi	a0,a0,4
D:\WCH\代码\3-PIT%20Demo\obj/../Libraries/wch_libraries/Startup/startup_ch32v10x.S:171
	bltu a0, a1, 1b
     2d8:	feb56de3          	bltu	a0,a1,2d2 <handle_reset+0x44>
D:\WCH\代码\3-PIT%20Demo\obj/../Libraries/wch_libraries/Startup/startup_ch32v10x.S:174
2:
	/* enable all interrupt */
  li t0, 0x88
     2dc:	08800293          	li	t0,136
D:\WCH\代码\3-PIT%20Demo\obj/../Libraries/wch_libraries/Startup/startup_ch32v10x.S:175
  csrs mstatus, t0
     2e0:	3002a073          	csrs	mstatus,t0
D:\WCH\代码\3-PIT%20Demo\obj/../Libraries/wch_libraries/Startup/startup_ch32v10x.S:176
	la t0, _vector_base
     2e4:	00000297          	auipc	t0,0x0
     2e8:	d5428293          	addi	t0,t0,-684 # 38 <_einit>
D:\WCH\代码\3-PIT%20Demo\obj/../Libraries/wch_libraries/Startup/startup_ch32v10x.S:177
  ori t0, t0, 1
     2ec:	0012e293          	ori	t0,t0,1
D:\WCH\代码\3-PIT%20Demo\obj/../Libraries/wch_libraries/Startup/startup_ch32v10x.S:178
	csrw mtvec, t0
     2f0:	30529073          	csrw	mtvec,t0
D:\WCH\代码\3-PIT%20Demo\obj/../Libraries/wch_libraries/Startup/startup_ch32v10x.S:180

  jal  SystemInit
     2f4:	28c030ef          	jal	ra,3580 <SystemInit>
D:\WCH\代码\3-PIT%20Demo\obj/../Libraries/wch_libraries/Startup/startup_ch32v10x.S:181
	la t0, main
     2f8:	00000297          	auipc	t0,0x0
     2fc:	f8428293          	addi	t0,t0,-124 # 27c <main>
D:\WCH\代码\3-PIT%20Demo\obj/../Libraries/wch_libraries/Startup/startup_ch32v10x.S:182
	csrw mepc, t0
     300:	34129073          	csrw	mepc,t0
D:\WCH\代码\3-PIT%20Demo\obj/../Libraries/wch_libraries/Startup/startup_ch32v10x.S:183
	mret
     304:	30200073          	mret

00000308 <EXTI_Init>:
EXTI_Init():
D:\WCH\代码\3-PIT%20Demo\obj/../Libraries/wch_libraries/Peripheral/ch32v10x_exti.c:37
*                  parameters in the EXTI_InitStruct.
* Input          : EXTI_InitStruct: pointer to a EXTI_InitTypeDef structure
* Return         : None
*********************************************************************************/	
void EXTI_Init(EXTI_InitTypeDef* EXTI_InitStruct)
{
     308:	7179                	addi	sp,sp,-48
     30a:	d622                	sw	s0,44(sp)
     30c:	1800                	addi	s0,sp,48
     30e:	fca42e23          	sw	a0,-36(s0)
D:\WCH\代码\3-PIT%20Demo\obj/../Libraries/wch_libraries/Peripheral/ch32v10x_exti.c:38
  uint32_t tmp = 0;
     312:	fe042623          	sw	zero,-20(s0)
D:\WCH\代码\3-PIT%20Demo\obj/../Libraries/wch_libraries/Peripheral/ch32v10x_exti.c:40

  tmp = (uint32_t)EXTI_BASE;
     316:	400107b7          	lui	a5,0x40010
     31a:	40078793          	addi	a5,a5,1024 # 40010400 <_eusrstack+0x2000b400>
     31e:	fef42623          	sw	a5,-20(s0)
D:\WCH\代码\3-PIT%20Demo\obj/../Libraries/wch_libraries/Peripheral/ch32v10x_exti.c:41
  if (EXTI_InitStruct->EXTI_LineCmd != DISABLE)
     322:	fdc42783          	lw	a5,-36(s0)
     326:	47dc                	lw	a5,12(a5)
     328:	12078063          	beqz	a5,448 <EXTI_Init+0x140>
D:\WCH\代码\3-PIT%20Demo\obj/../Libraries/wch_libraries/Peripheral/ch32v10x_exti.c:43
  {
    EXTI->INTENR &= ~EXTI_InitStruct->EXTI_Line;
     32c:	400107b7          	lui	a5,0x40010
     330:	40078793          	addi	a5,a5,1024 # 40010400 <_eusrstack+0x2000b400>
     334:	4394                	lw	a3,0(a5)
     336:	fdc42783          	lw	a5,-36(s0)
     33a:	439c                	lw	a5,0(a5)
     33c:	fff7c713          	not	a4,a5
     340:	400107b7          	lui	a5,0x40010
     344:	40078793          	addi	a5,a5,1024 # 40010400 <_eusrstack+0x2000b400>
     348:	8f75                	and	a4,a4,a3
     34a:	c398                	sw	a4,0(a5)
D:\WCH\代码\3-PIT%20Demo\obj/../Libraries/wch_libraries/Peripheral/ch32v10x_exti.c:44
    EXTI->EVENR &= ~EXTI_InitStruct->EXTI_Line;
     34c:	400107b7          	lui	a5,0x40010
     350:	40078793          	addi	a5,a5,1024 # 40010400 <_eusrstack+0x2000b400>
     354:	43d4                	lw	a3,4(a5)
     356:	fdc42783          	lw	a5,-36(s0)
     35a:	439c                	lw	a5,0(a5)
     35c:	fff7c713          	not	a4,a5
     360:	400107b7          	lui	a5,0x40010
     364:	40078793          	addi	a5,a5,1024 # 40010400 <_eusrstack+0x2000b400>
     368:	8f75                	and	a4,a4,a3
     36a:	c3d8                	sw	a4,4(a5)
D:\WCH\代码\3-PIT%20Demo\obj/../Libraries/wch_libraries/Peripheral/ch32v10x_exti.c:45
    tmp += EXTI_InitStruct->EXTI_Mode;
     36c:	fdc42783          	lw	a5,-36(s0)
     370:	43dc                	lw	a5,4(a5)
     372:	fec42703          	lw	a4,-20(s0)
     376:	97ba                	add	a5,a5,a4
     378:	fef42623          	sw	a5,-20(s0)
D:\WCH\代码\3-PIT%20Demo\obj/../Libraries/wch_libraries/Peripheral/ch32v10x_exti.c:46
    *(__IO uint32_t *) tmp |= EXTI_InitStruct->EXTI_Line;
     37c:	fec42783          	lw	a5,-20(s0)
     380:	4394                	lw	a3,0(a5)
     382:	fdc42783          	lw	a5,-36(s0)
     386:	4398                	lw	a4,0(a5)
     388:	fec42783          	lw	a5,-20(s0)
     38c:	8f55                	or	a4,a4,a3
     38e:	c398                	sw	a4,0(a5)
D:\WCH\代码\3-PIT%20Demo\obj/../Libraries/wch_libraries/Peripheral/ch32v10x_exti.c:47
    EXTI->RTENR &= ~EXTI_InitStruct->EXTI_Line;
     390:	400107b7          	lui	a5,0x40010
     394:	40078793          	addi	a5,a5,1024 # 40010400 <_eusrstack+0x2000b400>
     398:	4794                	lw	a3,8(a5)
     39a:	fdc42783          	lw	a5,-36(s0)
     39e:	439c                	lw	a5,0(a5)
     3a0:	fff7c713          	not	a4,a5
     3a4:	400107b7          	lui	a5,0x40010
     3a8:	40078793          	addi	a5,a5,1024 # 40010400 <_eusrstack+0x2000b400>
     3ac:	8f75                	and	a4,a4,a3
     3ae:	c798                	sw	a4,8(a5)
D:\WCH\代码\3-PIT%20Demo\obj/../Libraries/wch_libraries/Peripheral/ch32v10x_exti.c:48
    EXTI->FTENR &= ~EXTI_InitStruct->EXTI_Line;
     3b0:	400107b7          	lui	a5,0x40010
     3b4:	40078793          	addi	a5,a5,1024 # 40010400 <_eusrstack+0x2000b400>
     3b8:	47d4                	lw	a3,12(a5)
     3ba:	fdc42783          	lw	a5,-36(s0)
     3be:	439c                	lw	a5,0(a5)
     3c0:	fff7c713          	not	a4,a5
     3c4:	400107b7          	lui	a5,0x40010
     3c8:	40078793          	addi	a5,a5,1024 # 40010400 <_eusrstack+0x2000b400>
     3cc:	8f75                	and	a4,a4,a3
     3ce:	c7d8                	sw	a4,12(a5)
D:\WCH\代码\3-PIT%20Demo\obj/../Libraries/wch_libraries/Peripheral/ch32v10x_exti.c:49
    if (EXTI_InitStruct->EXTI_Trigger == EXTI_Trigger_Rising_Falling)
     3d0:	fdc42783          	lw	a5,-36(s0)
     3d4:	4798                	lw	a4,8(a5)
     3d6:	47c1                	li	a5,16
     3d8:	02f71f63          	bne	a4,a5,416 <EXTI_Init+0x10e>
D:\WCH\代码\3-PIT%20Demo\obj/../Libraries/wch_libraries/Peripheral/ch32v10x_exti.c:51
    {
      EXTI->RTENR |= EXTI_InitStruct->EXTI_Line;
     3dc:	400107b7          	lui	a5,0x40010
     3e0:	40078793          	addi	a5,a5,1024 # 40010400 <_eusrstack+0x2000b400>
     3e4:	4794                	lw	a3,8(a5)
     3e6:	fdc42783          	lw	a5,-36(s0)
     3ea:	4398                	lw	a4,0(a5)
     3ec:	400107b7          	lui	a5,0x40010
     3f0:	40078793          	addi	a5,a5,1024 # 40010400 <_eusrstack+0x2000b400>
     3f4:	8f55                	or	a4,a4,a3
     3f6:	c798                	sw	a4,8(a5)
D:\WCH\代码\3-PIT%20Demo\obj/../Libraries/wch_libraries/Peripheral/ch32v10x_exti.c:52
      EXTI->FTENR |= EXTI_InitStruct->EXTI_Line;
     3f8:	400107b7          	lui	a5,0x40010
     3fc:	40078793          	addi	a5,a5,1024 # 40010400 <_eusrstack+0x2000b400>
     400:	47d4                	lw	a3,12(a5)
     402:	fdc42783          	lw	a5,-36(s0)
     406:	4398                	lw	a4,0(a5)
     408:	400107b7          	lui	a5,0x40010
     40c:	40078793          	addi	a5,a5,1024 # 40010400 <_eusrstack+0x2000b400>
     410:	8f55                	or	a4,a4,a3
     412:	c7d8                	sw	a4,12(a5)
D:\WCH\代码\3-PIT%20Demo\obj/../Libraries/wch_libraries/Peripheral/ch32v10x_exti.c:66
  else
  {
    tmp += EXTI_InitStruct->EXTI_Mode;
    *(__IO uint32_t *) tmp &= ~EXTI_InitStruct->EXTI_Line;
  }
}
     414:	a8b1                	j	470 <EXTI_Init+0x168>
D:\WCH\代码\3-PIT%20Demo\obj/../Libraries/wch_libraries/Peripheral/ch32v10x_exti.c:56
      tmp = (uint32_t)EXTI_BASE;
     416:	400107b7          	lui	a5,0x40010
     41a:	40078793          	addi	a5,a5,1024 # 40010400 <_eusrstack+0x2000b400>
     41e:	fef42623          	sw	a5,-20(s0)
D:\WCH\代码\3-PIT%20Demo\obj/../Libraries/wch_libraries/Peripheral/ch32v10x_exti.c:57
      tmp += EXTI_InitStruct->EXTI_Trigger;
     422:	fdc42783          	lw	a5,-36(s0)
     426:	479c                	lw	a5,8(a5)
     428:	fec42703          	lw	a4,-20(s0)
     42c:	97ba                	add	a5,a5,a4
     42e:	fef42623          	sw	a5,-20(s0)
D:\WCH\代码\3-PIT%20Demo\obj/../Libraries/wch_libraries/Peripheral/ch32v10x_exti.c:58
      *(__IO uint32_t *) tmp |= EXTI_InitStruct->EXTI_Line;
     432:	fec42783          	lw	a5,-20(s0)
     436:	4394                	lw	a3,0(a5)
     438:	fdc42783          	lw	a5,-36(s0)
     43c:	4398                	lw	a4,0(a5)
     43e:	fec42783          	lw	a5,-20(s0)
     442:	8f55                	or	a4,a4,a3
     444:	c398                	sw	a4,0(a5)
D:\WCH\代码\3-PIT%20Demo\obj/../Libraries/wch_libraries/Peripheral/ch32v10x_exti.c:66
}
     446:	a02d                	j	470 <EXTI_Init+0x168>
D:\WCH\代码\3-PIT%20Demo\obj/../Libraries/wch_libraries/Peripheral/ch32v10x_exti.c:63
    tmp += EXTI_InitStruct->EXTI_Mode;
     448:	fdc42783          	lw	a5,-36(s0)
     44c:	43dc                	lw	a5,4(a5)
     44e:	fec42703          	lw	a4,-20(s0)
     452:	97ba                	add	a5,a5,a4
     454:	fef42623          	sw	a5,-20(s0)
D:\WCH\代码\3-PIT%20Demo\obj/../Libraries/wch_libraries/Peripheral/ch32v10x_exti.c:64
    *(__IO uint32_t *) tmp &= ~EXTI_InitStruct->EXTI_Line;
     458:	fec42783          	lw	a5,-20(s0)
     45c:	4394                	lw	a3,0(a5)
     45e:	fdc42783          	lw	a5,-36(s0)
     462:	439c                	lw	a5,0(a5)
     464:	fff7c713          	not	a4,a5
     468:	fec42783          	lw	a5,-20(s0)
     46c:	8f75                	and	a4,a4,a3
     46e:	c398                	sw	a4,0(a5)
D:\WCH\代码\3-PIT%20Demo\obj/../Libraries/wch_libraries/Peripheral/ch32v10x_exti.c:66
}
     470:	0001                	nop
     472:	5432                	lw	s0,44(sp)
     474:	6145                	addi	sp,sp,48
     476:	8082                	ret

00000478 <EXTI_GetITStatus>:
EXTI_GetITStatus():
D:\WCH\代码\3-PIT%20Demo\obj/../Libraries/wch_libraries/Peripheral/ch32v10x_exti.c:131
* Description    : Checks whether the specified EXTI line is asserted or not.
* Input          : EXTI_Line: specifies the EXTI lines to be enabled or disabled.
* Return         : The new state of EXTI_Line (SET or RESET).
*********************************************************************************/	
ITStatus EXTI_GetITStatus(uint32_t EXTI_Line)
{
     478:	7179                	addi	sp,sp,-48
     47a:	d622                	sw	s0,44(sp)
     47c:	1800                	addi	s0,sp,48
     47e:	fca42e23          	sw	a0,-36(s0)
D:\WCH\代码\3-PIT%20Demo\obj/../Libraries/wch_libraries/Peripheral/ch32v10x_exti.c:132
  ITStatus bitstatus = RESET;
     482:	fe042623          	sw	zero,-20(s0)
D:\WCH\代码\3-PIT%20Demo\obj/../Libraries/wch_libraries/Peripheral/ch32v10x_exti.c:133
  uint32_t enablestatus = 0;
     486:	fe042423          	sw	zero,-24(s0)
D:\WCH\代码\3-PIT%20Demo\obj/../Libraries/wch_libraries/Peripheral/ch32v10x_exti.c:135
  
  enablestatus =  EXTI->INTENR & EXTI_Line;
     48a:	400107b7          	lui	a5,0x40010
     48e:	40078793          	addi	a5,a5,1024 # 40010400 <_eusrstack+0x2000b400>
     492:	439c                	lw	a5,0(a5)
     494:	fdc42703          	lw	a4,-36(s0)
     498:	8ff9                	and	a5,a5,a4
     49a:	fef42423          	sw	a5,-24(s0)
D:\WCH\代码\3-PIT%20Demo\obj/../Libraries/wch_libraries/Peripheral/ch32v10x_exti.c:136
  if (((EXTI->INTFR & EXTI_Line) != (uint32_t)RESET) && (enablestatus != (uint32_t)RESET))
     49e:	400107b7          	lui	a5,0x40010
     4a2:	40078793          	addi	a5,a5,1024 # 40010400 <_eusrstack+0x2000b400>
     4a6:	4bd8                	lw	a4,20(a5)
     4a8:	fdc42783          	lw	a5,-36(s0)
     4ac:	8ff9                	and	a5,a5,a4
     4ae:	cb81                	beqz	a5,4be <EXTI_GetITStatus+0x46>
D:\WCH\代码\3-PIT%20Demo\obj/../Libraries/wch_libraries/Peripheral/ch32v10x_exti.c:136 (discriminator 1)
     4b0:	fe842783          	lw	a5,-24(s0)
     4b4:	c789                	beqz	a5,4be <EXTI_GetITStatus+0x46>
D:\WCH\代码\3-PIT%20Demo\obj/../Libraries/wch_libraries/Peripheral/ch32v10x_exti.c:138
  {
    bitstatus = SET;
     4b6:	4785                	li	a5,1
     4b8:	fef42623          	sw	a5,-20(s0)
     4bc:	a019                	j	4c2 <EXTI_GetITStatus+0x4a>
D:\WCH\代码\3-PIT%20Demo\obj/../Libraries/wch_libraries/Peripheral/ch32v10x_exti.c:142
  }
  else
  {
    bitstatus = RESET;
     4be:	fe042623          	sw	zero,-20(s0)
D:\WCH\代码\3-PIT%20Demo\obj/../Libraries/wch_libraries/Peripheral/ch32v10x_exti.c:144
  }
  return bitstatus;
     4c2:	fec42783          	lw	a5,-20(s0)
D:\WCH\代码\3-PIT%20Demo\obj/../Libraries/wch_libraries/Peripheral/ch32v10x_exti.c:145
}
     4c6:	853e                	mv	a0,a5
     4c8:	5432                	lw	s0,44(sp)
     4ca:	6145                	addi	sp,sp,48
     4cc:	8082                	ret

000004ce <EXTI_ClearITPendingBit>:
EXTI_ClearITPendingBit():
D:\WCH\代码\3-PIT%20Demo\obj/../Libraries/wch_libraries/Peripheral/ch32v10x_exti.c:154
* Description    : Clears the EXTI's line pending bits.
* Input          : EXTI_Line: specifies the EXTI lines to be enabled or disabled.
* Return         : None
*********************************************************************************/
void EXTI_ClearITPendingBit(uint32_t EXTI_Line)
{  
     4ce:	1101                	addi	sp,sp,-32
     4d0:	ce22                	sw	s0,28(sp)
     4d2:	1000                	addi	s0,sp,32
     4d4:	fea42623          	sw	a0,-20(s0)
D:\WCH\代码\3-PIT%20Demo\obj/../Libraries/wch_libraries/Peripheral/ch32v10x_exti.c:155
  EXTI->INTFR = EXTI_Line;
     4d8:	400107b7          	lui	a5,0x40010
     4dc:	40078793          	addi	a5,a5,1024 # 40010400 <_eusrstack+0x2000b400>
     4e0:	fec42703          	lw	a4,-20(s0)
     4e4:	cbd8                	sw	a4,20(a5)
D:\WCH\代码\3-PIT%20Demo\obj/../Libraries/wch_libraries/Peripheral/ch32v10x_exti.c:156
}
     4e6:	0001                	nop
     4e8:	4472                	lw	s0,28(sp)
     4ea:	6105                	addi	sp,sp,32
     4ec:	8082                	ret

000004ee <GPIO_Init>:
GPIO_Init():
D:\WCH\代码\3-PIT%20Demo\obj/../Libraries/wch_libraries/Peripheral/ch32v10x_gpio.c:88
* Input          : GPIO_InitStruct: pointer to a GPIO_InitTypeDef structure that
*      contains the configuration information for the specified GPIO peripheral.
* Return         : None
*******************************************************************************/
void GPIO_Init(GPIO_TypeDef* GPIOx, GPIO_InitTypeDef* GPIO_InitStruct)
{
     4ee:	7139                	addi	sp,sp,-64
     4f0:	de22                	sw	s0,60(sp)
     4f2:	0080                	addi	s0,sp,64
     4f4:	fca42623          	sw	a0,-52(s0)
     4f8:	fcb42423          	sw	a1,-56(s0)
D:\WCH\代码\3-PIT%20Demo\obj/../Libraries/wch_libraries/Peripheral/ch32v10x_gpio.c:89
  uint32_t currentmode = 0x00, currentpin = 0x00, pinpos = 0x00, pos = 0x00;
     4fc:	fe042623          	sw	zero,-20(s0)
     500:	fe042023          	sw	zero,-32(s0)
     504:	fe042423          	sw	zero,-24(s0)
     508:	fc042e23          	sw	zero,-36(s0)
D:\WCH\代码\3-PIT%20Demo\obj/../Libraries/wch_libraries/Peripheral/ch32v10x_gpio.c:90
  uint32_t tmpreg = 0x00, pinmask = 0x00;
     50c:	fe042223          	sw	zero,-28(s0)
     510:	fc042c23          	sw	zero,-40(s0)
D:\WCH\代码\3-PIT%20Demo\obj/../Libraries/wch_libraries/Peripheral/ch32v10x_gpio.c:92

  currentmode = ((uint32_t)GPIO_InitStruct->GPIO_Mode) & ((uint32_t)0x0F);
     514:	fc842783          	lw	a5,-56(s0)
     518:	479c                	lw	a5,8(a5)
     51a:	8bbd                	andi	a5,a5,15
     51c:	fef42623          	sw	a5,-20(s0)
D:\WCH\代码\3-PIT%20Demo\obj/../Libraries/wch_libraries/Peripheral/ch32v10x_gpio.c:94
	
  if ((((uint32_t)GPIO_InitStruct->GPIO_Mode) & ((uint32_t)0x10)) != 0x00)
     520:	fc842783          	lw	a5,-56(s0)
     524:	479c                	lw	a5,8(a5)
     526:	8bc1                	andi	a5,a5,16
     528:	cb89                	beqz	a5,53a <GPIO_Init+0x4c>
D:\WCH\代码\3-PIT%20Demo\obj/../Libraries/wch_libraries/Peripheral/ch32v10x_gpio.c:96
  { 
    currentmode |= (uint32_t)GPIO_InitStruct->GPIO_Speed;
     52a:	fc842783          	lw	a5,-56(s0)
     52e:	43dc                	lw	a5,4(a5)
     530:	fec42703          	lw	a4,-20(s0)
     534:	8fd9                	or	a5,a5,a4
     536:	fef42623          	sw	a5,-20(s0)
D:\WCH\代码\3-PIT%20Demo\obj/../Libraries/wch_libraries/Peripheral/ch32v10x_gpio.c:99
  }

  if (((uint32_t)GPIO_InitStruct->GPIO_Pin & ((uint32_t)0x00FF)) != 0x00)
     53a:	fc842783          	lw	a5,-56(s0)
     53e:	0007d783          	lhu	a5,0(a5)
     542:	0ff7f793          	andi	a5,a5,255
     546:	cff1                	beqz	a5,622 <GPIO_Init+0x134>
D:\WCH\代码\3-PIT%20Demo\obj/../Libraries/wch_libraries/Peripheral/ch32v10x_gpio.c:101
  {
    tmpreg = GPIOx->CFGLR;
     548:	fcc42783          	lw	a5,-52(s0)
     54c:	439c                	lw	a5,0(a5)
     54e:	fef42223          	sw	a5,-28(s0)
D:\WCH\代码\3-PIT%20Demo\obj/../Libraries/wch_libraries/Peripheral/ch32v10x_gpio.c:103
		
    for (pinpos = 0x00; pinpos < 0x08; pinpos++)
     552:	fe042423          	sw	zero,-24(s0)
     556:	a865                	j	60e <GPIO_Init+0x120>
D:\WCH\代码\3-PIT%20Demo\obj/../Libraries/wch_libraries/Peripheral/ch32v10x_gpio.c:105
    {
      pos = ((uint32_t)0x01) << pinpos;
     558:	fe842783          	lw	a5,-24(s0)
     55c:	4705                	li	a4,1
     55e:	00f717b3          	sll	a5,a4,a5
     562:	fcf42e23          	sw	a5,-36(s0)
D:\WCH\代码\3-PIT%20Demo\obj/../Libraries/wch_libraries/Peripheral/ch32v10x_gpio.c:106
      currentpin = (GPIO_InitStruct->GPIO_Pin) & pos;
     566:	fc842783          	lw	a5,-56(s0)
     56a:	0007d783          	lhu	a5,0(a5)
     56e:	873e                	mv	a4,a5
     570:	fdc42783          	lw	a5,-36(s0)
     574:	8ff9                	and	a5,a5,a4
     576:	fef42023          	sw	a5,-32(s0)
D:\WCH\代码\3-PIT%20Demo\obj/../Libraries/wch_libraries/Peripheral/ch32v10x_gpio.c:108
			
      if (currentpin == pos)
     57a:	fe042703          	lw	a4,-32(s0)
     57e:	fdc42783          	lw	a5,-36(s0)
     582:	08f71163          	bne	a4,a5,604 <GPIO_Init+0x116>
D:\WCH\代码\3-PIT%20Demo\obj/../Libraries/wch_libraries/Peripheral/ch32v10x_gpio.c:110
      {
        pos = pinpos << 2;
     586:	fe842783          	lw	a5,-24(s0)
     58a:	078a                	slli	a5,a5,0x2
     58c:	fcf42e23          	sw	a5,-36(s0)
D:\WCH\代码\3-PIT%20Demo\obj/../Libraries/wch_libraries/Peripheral/ch32v10x_gpio.c:111
        pinmask = ((uint32_t)0x0F) << pos;
     590:	fdc42783          	lw	a5,-36(s0)
     594:	473d                	li	a4,15
     596:	00f717b3          	sll	a5,a4,a5
     59a:	fcf42c23          	sw	a5,-40(s0)
D:\WCH\代码\3-PIT%20Demo\obj/../Libraries/wch_libraries/Peripheral/ch32v10x_gpio.c:112
        tmpreg &= ~pinmask;
     59e:	fd842783          	lw	a5,-40(s0)
     5a2:	fff7c793          	not	a5,a5
     5a6:	fe442703          	lw	a4,-28(s0)
     5aa:	8ff9                	and	a5,a5,a4
     5ac:	fef42223          	sw	a5,-28(s0)
D:\WCH\代码\3-PIT%20Demo\obj/../Libraries/wch_libraries/Peripheral/ch32v10x_gpio.c:113
        tmpreg |= (currentmode << pos);
     5b0:	fdc42783          	lw	a5,-36(s0)
     5b4:	fec42703          	lw	a4,-20(s0)
     5b8:	00f717b3          	sll	a5,a4,a5
     5bc:	fe442703          	lw	a4,-28(s0)
     5c0:	8fd9                	or	a5,a5,a4
     5c2:	fef42223          	sw	a5,-28(s0)
D:\WCH\代码\3-PIT%20Demo\obj/../Libraries/wch_libraries/Peripheral/ch32v10x_gpio.c:115

        if (GPIO_InitStruct->GPIO_Mode == GPIO_Mode_IPD)
     5c6:	fc842783          	lw	a5,-56(s0)
     5ca:	4798                	lw	a4,8(a5)
     5cc:	02800793          	li	a5,40
     5d0:	00f71b63          	bne	a4,a5,5e6 <GPIO_Init+0xf8>
D:\WCH\代码\3-PIT%20Demo\obj/../Libraries/wch_libraries/Peripheral/ch32v10x_gpio.c:117
        {
          GPIOx->BCR = (((uint32_t)0x01) << pinpos);
     5d4:	fe842783          	lw	a5,-24(s0)
     5d8:	4705                	li	a4,1
     5da:	00f71733          	sll	a4,a4,a5
     5de:	fcc42783          	lw	a5,-52(s0)
     5e2:	cbd8                	sw	a4,20(a5)
     5e4:	a005                	j	604 <GPIO_Init+0x116>
D:\WCH\代码\3-PIT%20Demo\obj/../Libraries/wch_libraries/Peripheral/ch32v10x_gpio.c:121
        }
        else
        {
          if (GPIO_InitStruct->GPIO_Mode == GPIO_Mode_IPU)
     5e6:	fc842783          	lw	a5,-56(s0)
     5ea:	4798                	lw	a4,8(a5)
     5ec:	04800793          	li	a5,72
     5f0:	00f71a63          	bne	a4,a5,604 <GPIO_Init+0x116>
D:\WCH\代码\3-PIT%20Demo\obj/../Libraries/wch_libraries/Peripheral/ch32v10x_gpio.c:123
          {
            GPIOx->BSHR = (((uint32_t)0x01) << pinpos);
     5f4:	fe842783          	lw	a5,-24(s0)
     5f8:	4705                	li	a4,1
     5fa:	00f71733          	sll	a4,a4,a5
     5fe:	fcc42783          	lw	a5,-52(s0)
     602:	cb98                	sw	a4,16(a5)
D:\WCH\代码\3-PIT%20Demo\obj/../Libraries/wch_libraries/Peripheral/ch32v10x_gpio.c:103 (discriminator 2)
    for (pinpos = 0x00; pinpos < 0x08; pinpos++)
     604:	fe842783          	lw	a5,-24(s0)
     608:	0785                	addi	a5,a5,1
     60a:	fef42423          	sw	a5,-24(s0)
D:\WCH\代码\3-PIT%20Demo\obj/../Libraries/wch_libraries/Peripheral/ch32v10x_gpio.c:103 (discriminator 1)
     60e:	fe842703          	lw	a4,-24(s0)
     612:	479d                	li	a5,7
     614:	f4e7f2e3          	bgeu	a5,a4,558 <GPIO_Init+0x6a>
D:\WCH\代码\3-PIT%20Demo\obj/../Libraries/wch_libraries/Peripheral/ch32v10x_gpio.c:128
          }
        }
      }
    }
    GPIOx->CFGLR = tmpreg;
     618:	fcc42783          	lw	a5,-52(s0)
     61c:	fe442703          	lw	a4,-28(s0)
     620:	c398                	sw	a4,0(a5)
D:\WCH\代码\3-PIT%20Demo\obj/../Libraries/wch_libraries/Peripheral/ch32v10x_gpio.c:131
  }

  if (GPIO_InitStruct->GPIO_Pin > 0x00FF)
     622:	fc842783          	lw	a5,-56(s0)
     626:	0007d703          	lhu	a4,0(a5)
     62a:	0ff00793          	li	a5,255
     62e:	0ee7f163          	bgeu	a5,a4,710 <GPIO_Init+0x222>
D:\WCH\代码\3-PIT%20Demo\obj/../Libraries/wch_libraries/Peripheral/ch32v10x_gpio.c:133
  {
    tmpreg = GPIOx->CFGHR;
     632:	fcc42783          	lw	a5,-52(s0)
     636:	43dc                	lw	a5,4(a5)
     638:	fef42223          	sw	a5,-28(s0)
D:\WCH\代码\3-PIT%20Demo\obj/../Libraries/wch_libraries/Peripheral/ch32v10x_gpio.c:135
		
    for (pinpos = 0x00; pinpos < 0x08; pinpos++)
     63c:	fe042423          	sw	zero,-24(s0)
     640:	a875                	j	6fc <GPIO_Init+0x20e>
D:\WCH\代码\3-PIT%20Demo\obj/../Libraries/wch_libraries/Peripheral/ch32v10x_gpio.c:137
    {
      pos = (((uint32_t)0x01) << (pinpos + 0x08));
     642:	fe842783          	lw	a5,-24(s0)
     646:	07a1                	addi	a5,a5,8
     648:	4705                	li	a4,1
     64a:	00f717b3          	sll	a5,a4,a5
     64e:	fcf42e23          	sw	a5,-36(s0)
D:\WCH\代码\3-PIT%20Demo\obj/../Libraries/wch_libraries/Peripheral/ch32v10x_gpio.c:138
      currentpin = ((GPIO_InitStruct->GPIO_Pin) & pos);
     652:	fc842783          	lw	a5,-56(s0)
     656:	0007d783          	lhu	a5,0(a5)
     65a:	873e                	mv	a4,a5
     65c:	fdc42783          	lw	a5,-36(s0)
     660:	8ff9                	and	a5,a5,a4
     662:	fef42023          	sw	a5,-32(s0)
D:\WCH\代码\3-PIT%20Demo\obj/../Libraries/wch_libraries/Peripheral/ch32v10x_gpio.c:140
			
      if (currentpin == pos)
     666:	fe042703          	lw	a4,-32(s0)
     66a:	fdc42783          	lw	a5,-36(s0)
     66e:	08f71263          	bne	a4,a5,6f2 <GPIO_Init+0x204>
D:\WCH\代码\3-PIT%20Demo\obj/../Libraries/wch_libraries/Peripheral/ch32v10x_gpio.c:142
      {
        pos = pinpos << 2;
     672:	fe842783          	lw	a5,-24(s0)
     676:	078a                	slli	a5,a5,0x2
     678:	fcf42e23          	sw	a5,-36(s0)
D:\WCH\代码\3-PIT%20Demo\obj/../Libraries/wch_libraries/Peripheral/ch32v10x_gpio.c:143
        pinmask = ((uint32_t)0x0F) << pos;
     67c:	fdc42783          	lw	a5,-36(s0)
     680:	473d                	li	a4,15
     682:	00f717b3          	sll	a5,a4,a5
     686:	fcf42c23          	sw	a5,-40(s0)
D:\WCH\代码\3-PIT%20Demo\obj/../Libraries/wch_libraries/Peripheral/ch32v10x_gpio.c:144
        tmpreg &= ~pinmask;
     68a:	fd842783          	lw	a5,-40(s0)
     68e:	fff7c793          	not	a5,a5
     692:	fe442703          	lw	a4,-28(s0)
     696:	8ff9                	and	a5,a5,a4
     698:	fef42223          	sw	a5,-28(s0)
D:\WCH\代码\3-PIT%20Demo\obj/../Libraries/wch_libraries/Peripheral/ch32v10x_gpio.c:145
        tmpreg |= (currentmode << pos);
     69c:	fdc42783          	lw	a5,-36(s0)
     6a0:	fec42703          	lw	a4,-20(s0)
     6a4:	00f717b3          	sll	a5,a4,a5
     6a8:	fe442703          	lw	a4,-28(s0)
     6ac:	8fd9                	or	a5,a5,a4
     6ae:	fef42223          	sw	a5,-28(s0)
D:\WCH\代码\3-PIT%20Demo\obj/../Libraries/wch_libraries/Peripheral/ch32v10x_gpio.c:147

        if (GPIO_InitStruct->GPIO_Mode == GPIO_Mode_IPD)
     6b2:	fc842783          	lw	a5,-56(s0)
     6b6:	4798                	lw	a4,8(a5)
     6b8:	02800793          	li	a5,40
     6bc:	00f71b63          	bne	a4,a5,6d2 <GPIO_Init+0x1e4>
D:\WCH\代码\3-PIT%20Demo\obj/../Libraries/wch_libraries/Peripheral/ch32v10x_gpio.c:149
        {
          GPIOx->BCR = (((uint32_t)0x01) << (pinpos + 0x08));
     6c0:	fe842783          	lw	a5,-24(s0)
     6c4:	07a1                	addi	a5,a5,8
     6c6:	4705                	li	a4,1
     6c8:	00f71733          	sll	a4,a4,a5
     6cc:	fcc42783          	lw	a5,-52(s0)
     6d0:	cbd8                	sw	a4,20(a5)
D:\WCH\代码\3-PIT%20Demo\obj/../Libraries/wch_libraries/Peripheral/ch32v10x_gpio.c:152
        }

        if (GPIO_InitStruct->GPIO_Mode == GPIO_Mode_IPU)
     6d2:	fc842783          	lw	a5,-56(s0)
     6d6:	4798                	lw	a4,8(a5)
     6d8:	04800793          	li	a5,72
     6dc:	00f71b63          	bne	a4,a5,6f2 <GPIO_Init+0x204>
D:\WCH\代码\3-PIT%20Demo\obj/../Libraries/wch_libraries/Peripheral/ch32v10x_gpio.c:154
        {
          GPIOx->BSHR = (((uint32_t)0x01) << (pinpos + 0x08));
     6e0:	fe842783          	lw	a5,-24(s0)
     6e4:	07a1                	addi	a5,a5,8
     6e6:	4705                	li	a4,1
     6e8:	00f71733          	sll	a4,a4,a5
     6ec:	fcc42783          	lw	a5,-52(s0)
     6f0:	cb98                	sw	a4,16(a5)
D:\WCH\代码\3-PIT%20Demo\obj/../Libraries/wch_libraries/Peripheral/ch32v10x_gpio.c:135 (discriminator 2)
    for (pinpos = 0x00; pinpos < 0x08; pinpos++)
     6f2:	fe842783          	lw	a5,-24(s0)
     6f6:	0785                	addi	a5,a5,1
     6f8:	fef42423          	sw	a5,-24(s0)
D:\WCH\代码\3-PIT%20Demo\obj/../Libraries/wch_libraries/Peripheral/ch32v10x_gpio.c:135 (discriminator 1)
     6fc:	fe842703          	lw	a4,-24(s0)
     700:	479d                	li	a5,7
     702:	f4e7f0e3          	bgeu	a5,a4,642 <GPIO_Init+0x154>
D:\WCH\代码\3-PIT%20Demo\obj/../Libraries/wch_libraries/Peripheral/ch32v10x_gpio.c:158
        }
      }
    }
    GPIOx->CFGHR = tmpreg;
     706:	fcc42783          	lw	a5,-52(s0)
     70a:	fe442703          	lw	a4,-28(s0)
     70e:	c3d8                	sw	a4,4(a5)
D:\WCH\代码\3-PIT%20Demo\obj/../Libraries/wch_libraries/Peripheral/ch32v10x_gpio.c:160
  }
}
     710:	0001                	nop
     712:	5472                	lw	s0,60(sp)
     714:	6121                	addi	sp,sp,64
     716:	8082                	ret

00000718 <GPIO_WriteBit>:
GPIO_WriteBit():
D:\WCH\代码\3-PIT%20Demo\obj/../Libraries/wch_libraries/Peripheral/ch32v10x_gpio.c:282
*                    Bit_SetL: to clear the port pin.
*                    Bit_SetH: to set the port pin.                  
* Return         : None
*******************************************************************************/
void GPIO_WriteBit(GPIO_TypeDef* GPIOx, uint16_t GPIO_Pin, BitAction BitVal)
{
     718:	1101                	addi	sp,sp,-32
     71a:	ce22                	sw	s0,28(sp)
     71c:	1000                	addi	s0,sp,32
     71e:	fea42623          	sw	a0,-20(s0)
     722:	87ae                	mv	a5,a1
     724:	fec42223          	sw	a2,-28(s0)
     728:	fef41523          	sh	a5,-22(s0)
D:\WCH\代码\3-PIT%20Demo\obj/../Libraries/wch_libraries/Peripheral/ch32v10x_gpio.c:283
  if (BitVal != Bit_RESET)
     72c:	fe442783          	lw	a5,-28(s0)
     730:	c799                	beqz	a5,73e <GPIO_WriteBit+0x26>
D:\WCH\代码\3-PIT%20Demo\obj/../Libraries/wch_libraries/Peripheral/ch32v10x_gpio.c:285
  {
    GPIOx->BSHR = GPIO_Pin;
     732:	fea45703          	lhu	a4,-22(s0)
     736:	fec42783          	lw	a5,-20(s0)
     73a:	cb98                	sw	a4,16(a5)
D:\WCH\代码\3-PIT%20Demo\obj/../Libraries/wch_libraries/Peripheral/ch32v10x_gpio.c:291
  }
  else
  {
    GPIOx->BCR = GPIO_Pin;
  }
}
     73c:	a031                	j	748 <GPIO_WriteBit+0x30>
D:\WCH\代码\3-PIT%20Demo\obj/../Libraries/wch_libraries/Peripheral/ch32v10x_gpio.c:289
    GPIOx->BCR = GPIO_Pin;
     73e:	fea45703          	lhu	a4,-22(s0)
     742:	fec42783          	lw	a5,-20(s0)
     746:	cbd8                	sw	a4,20(a5)
D:\WCH\代码\3-PIT%20Demo\obj/../Libraries/wch_libraries/Peripheral/ch32v10x_gpio.c:291
}
     748:	0001                	nop
     74a:	4472                	lw	s0,28(sp)
     74c:	6105                	addi	sp,sp,32
     74e:	8082                	ret

00000750 <GPIO_PinRemapConfig>:
GPIO_PinRemapConfig():
D:\WCH\代码\3-PIT%20Demo\obj/../Libraries/wch_libraries/Peripheral/ch32v10x_gpio.c:402
*      only for High density Value line devices)     
*                  NewState: ENABLE or DISABLE.             
* Return         : None
*******************************************************************************/
void GPIO_PinRemapConfig(uint32_t GPIO_Remap, FunctionalState NewState)
{
     750:	7179                	addi	sp,sp,-48
     752:	d622                	sw	s0,44(sp)
     754:	1800                	addi	s0,sp,48
     756:	fca42e23          	sw	a0,-36(s0)
     75a:	fcb42c23          	sw	a1,-40(s0)
D:\WCH\代码\3-PIT%20Demo\obj/../Libraries/wch_libraries/Peripheral/ch32v10x_gpio.c:403
  uint32_t tmp = 0x00, tmp1 = 0x00, tmpreg = 0x00, tmpmask = 0x00;
     75e:	fe042423          	sw	zero,-24(s0)
     762:	fe042223          	sw	zero,-28(s0)
     766:	fe042623          	sw	zero,-20(s0)
     76a:	fe042023          	sw	zero,-32(s0)
D:\WCH\代码\3-PIT%20Demo\obj/../Libraries/wch_libraries/Peripheral/ch32v10x_gpio.c:405

  if((GPIO_Remap & 0x80000000) == 0x80000000)
     76e:	fdc42783          	lw	a5,-36(s0)
     772:	0007d863          	bgez	a5,782 <GPIO_PinRemapConfig+0x32>
D:\WCH\代码\3-PIT%20Demo\obj/../Libraries/wch_libraries/Peripheral/ch32v10x_gpio.c:407
  {
    tmpreg = AFIO->PCFR2;
     776:	400107b7          	lui	a5,0x40010
     77a:	4fdc                	lw	a5,28(a5)
     77c:	fef42623          	sw	a5,-20(s0)
     780:	a031                	j	78c <GPIO_PinRemapConfig+0x3c>
D:\WCH\代码\3-PIT%20Demo\obj/../Libraries/wch_libraries/Peripheral/ch32v10x_gpio.c:411
  }
  else
  {
    tmpreg = AFIO->PCFR1;
     782:	400107b7          	lui	a5,0x40010
     786:	43dc                	lw	a5,4(a5)
     788:	fef42623          	sw	a5,-20(s0)
D:\WCH\代码\3-PIT%20Demo\obj/../Libraries/wch_libraries/Peripheral/ch32v10x_gpio.c:414
  }

  tmpmask = (GPIO_Remap & DBGAFR_POSITION_MASK) >> 0x10;
     78c:	fdc42783          	lw	a5,-36(s0)
     790:	83c1                	srli	a5,a5,0x10
     792:	8bbd                	andi	a5,a5,15
     794:	fef42023          	sw	a5,-32(s0)
D:\WCH\代码\3-PIT%20Demo\obj/../Libraries/wch_libraries/Peripheral/ch32v10x_gpio.c:415
  tmp = GPIO_Remap & LSB_MASK;
     798:	fdc42703          	lw	a4,-36(s0)
     79c:	67c1                	lui	a5,0x10
     79e:	17fd                	addi	a5,a5,-1
     7a0:	8ff9                	and	a5,a5,a4
     7a2:	fef42423          	sw	a5,-24(s0)
D:\WCH\代码\3-PIT%20Demo\obj/../Libraries/wch_libraries/Peripheral/ch32v10x_gpio.c:417

  if ((GPIO_Remap & (DBGAFR_LOCATION_MASK | DBGAFR_NUMBITS_MASK)) == (DBGAFR_LOCATION_MASK | DBGAFR_NUMBITS_MASK))
     7a6:	fdc42703          	lw	a4,-36(s0)
     7aa:	003007b7          	lui	a5,0x300
     7ae:	8f7d                	and	a4,a4,a5
     7b0:	003007b7          	lui	a5,0x300
     7b4:	02f71563          	bne	a4,a5,7de <GPIO_PinRemapConfig+0x8e>
D:\WCH\代码\3-PIT%20Demo\obj/../Libraries/wch_libraries/Peripheral/ch32v10x_gpio.c:419
  {
    tmpreg &= DBGAFR_SWJCFG_MASK;
     7b8:	fec42703          	lw	a4,-20(s0)
     7bc:	f10007b7          	lui	a5,0xf1000
     7c0:	17fd                	addi	a5,a5,-1
     7c2:	8ff9                	and	a5,a5,a4
     7c4:	fef42623          	sw	a5,-20(s0)
D:\WCH\代码\3-PIT%20Demo\obj/../Libraries/wch_libraries/Peripheral/ch32v10x_gpio.c:420
    AFIO->PCFR1 &= DBGAFR_SWJCFG_MASK;
     7c8:	400107b7          	lui	a5,0x40010
     7cc:	43d4                	lw	a3,4(a5)
     7ce:	400107b7          	lui	a5,0x40010
     7d2:	f1000737          	lui	a4,0xf1000
     7d6:	177d                	addi	a4,a4,-1
     7d8:	8f75                	and	a4,a4,a3
     7da:	c3d8                	sw	a4,4(a5)
     7dc:	a0ad                	j	846 <__stack_size+0x46>
D:\WCH\代码\3-PIT%20Demo\obj/../Libraries/wch_libraries/Peripheral/ch32v10x_gpio.c:422
  }
  else if ((GPIO_Remap & DBGAFR_NUMBITS_MASK) == DBGAFR_NUMBITS_MASK)
     7de:	fdc42703          	lw	a4,-36(s0)
     7e2:	001007b7          	lui	a5,0x100
     7e6:	8ff9                	and	a5,a5,a4
     7e8:	cb8d                	beqz	a5,81a <__stack_size+0x1a>
D:\WCH\代码\3-PIT%20Demo\obj/../Libraries/wch_libraries/Peripheral/ch32v10x_gpio.c:424
  {
    tmp1 = ((uint32_t)0x03) << tmpmask;
     7ea:	fe042783          	lw	a5,-32(s0)
     7ee:	470d                	li	a4,3
     7f0:	00f717b3          	sll	a5,a4,a5
     7f4:	fef42223          	sw	a5,-28(s0)
D:\WCH\代码\3-PIT%20Demo\obj/../Libraries/wch_libraries/Peripheral/ch32v10x_gpio.c:425
    tmpreg &= ~tmp1;
     7f8:	fe442783          	lw	a5,-28(s0)
     7fc:	fff7c793          	not	a5,a5
     800:	fec42703          	lw	a4,-20(s0)
     804:	8ff9                	and	a5,a5,a4
     806:	fef42623          	sw	a5,-20(s0)
D:\WCH\代码\3-PIT%20Demo\obj/../Libraries/wch_libraries/Peripheral/ch32v10x_gpio.c:426
    tmpreg |= ~DBGAFR_SWJCFG_MASK;
     80a:	fec42703          	lw	a4,-20(s0)
     80e:	0f0007b7          	lui	a5,0xf000
     812:	8fd9                	or	a5,a5,a4
     814:	fef42623          	sw	a5,-20(s0)
     818:	a03d                	j	846 <__stack_size+0x46>
D:\WCH\代码\3-PIT%20Demo\obj/../Libraries/wch_libraries/Peripheral/ch32v10x_gpio.c:430
  }
  else
  {
    tmpreg &= ~(tmp << ((GPIO_Remap >> 0x15)*0x10));
     81a:	fdc42783          	lw	a5,-36(s0)
     81e:	83d5                	srli	a5,a5,0x15
     820:	0792                	slli	a5,a5,0x4
     822:	fe842703          	lw	a4,-24(s0)
     826:	00f717b3          	sll	a5,a4,a5
     82a:	fff7c793          	not	a5,a5
     82e:	fec42703          	lw	a4,-20(s0)
     832:	8ff9                	and	a5,a5,a4
     834:	fef42623          	sw	a5,-20(s0)
D:\WCH\代码\3-PIT%20Demo\obj/../Libraries/wch_libraries/Peripheral/ch32v10x_gpio.c:431
    tmpreg |= ~DBGAFR_SWJCFG_MASK;
     838:	fec42703          	lw	a4,-20(s0)
     83c:	0f0007b7          	lui	a5,0xf000
     840:	8fd9                	or	a5,a5,a4
     842:	fef42623          	sw	a5,-20(s0)
D:\WCH\代码\3-PIT%20Demo\obj/../Libraries/wch_libraries/Peripheral/ch32v10x_gpio.c:434
  }

  if (NewState != DISABLE)
     846:	fd842783          	lw	a5,-40(s0)
     84a:	cf91                	beqz	a5,866 <__stack_size+0x66>
D:\WCH\代码\3-PIT%20Demo\obj/../Libraries/wch_libraries/Peripheral/ch32v10x_gpio.c:436
  {
    tmpreg |= (tmp << ((GPIO_Remap >> 0x15)*0x10));
     84c:	fdc42783          	lw	a5,-36(s0)
     850:	83d5                	srli	a5,a5,0x15
     852:	0792                	slli	a5,a5,0x4
     854:	fe842703          	lw	a4,-24(s0)
     858:	00f717b3          	sll	a5,a4,a5
     85c:	fec42703          	lw	a4,-20(s0)
     860:	8fd9                	or	a5,a5,a4
     862:	fef42623          	sw	a5,-20(s0)
D:\WCH\代码\3-PIT%20Demo\obj/../Libraries/wch_libraries/Peripheral/ch32v10x_gpio.c:439
  }

  if((GPIO_Remap & 0x80000000) == 0x80000000)
     866:	fdc42783          	lw	a5,-36(s0)
     86a:	0007d863          	bgez	a5,87a <__stack_size+0x7a>
D:\WCH\代码\3-PIT%20Demo\obj/../Libraries/wch_libraries/Peripheral/ch32v10x_gpio.c:441
  {
    AFIO->PCFR2 = tmpreg;
     86e:	400107b7          	lui	a5,0x40010
     872:	fec42703          	lw	a4,-20(s0)
     876:	cfd8                	sw	a4,28(a5)
D:\WCH\代码\3-PIT%20Demo\obj/../Libraries/wch_libraries/Peripheral/ch32v10x_gpio.c:447
  }
  else
  {
    AFIO->PCFR1 = tmpreg;
  }  
}
     878:	a031                	j	884 <__stack_size+0x84>
D:\WCH\代码\3-PIT%20Demo\obj/../Libraries/wch_libraries/Peripheral/ch32v10x_gpio.c:445
    AFIO->PCFR1 = tmpreg;
     87a:	400107b7          	lui	a5,0x40010
     87e:	fec42703          	lw	a4,-20(s0)
     882:	c3d8                	sw	a4,4(a5)
D:\WCH\代码\3-PIT%20Demo\obj/../Libraries/wch_libraries/Peripheral/ch32v10x_gpio.c:447
}
     884:	0001                	nop
     886:	5432                	lw	s0,44(sp)
     888:	6145                	addi	sp,sp,48
     88a:	8082                	ret

0000088c <GPIO_EXTILineConfig>:
GPIO_EXTILineConfig():
D:\WCH\代码\3-PIT%20Demo\obj/../Libraries/wch_libraries/Peripheral/ch32v10x_gpio.c:459
*                  GPIO_PinSource: specifies the EXTI line to be configured.
*                    This parameter can be GPIO_PinSourcex where x can be (0..15).
* Return         : None
*******************************************************************************/
void GPIO_EXTILineConfig(uint8_t GPIO_PortSource, uint8_t GPIO_PinSource)
{
     88c:	7179                	addi	sp,sp,-48
     88e:	d622                	sw	s0,44(sp)
     890:	1800                	addi	s0,sp,48
     892:	87aa                	mv	a5,a0
     894:	872e                	mv	a4,a1
     896:	fcf40fa3          	sb	a5,-33(s0)
     89a:	87ba                	mv	a5,a4
     89c:	fcf40f23          	sb	a5,-34(s0)
D:\WCH\代码\3-PIT%20Demo\obj/../Libraries/wch_libraries/Peripheral/ch32v10x_gpio.c:460
  uint32_t tmp = 0x00;
     8a0:	fe042623          	sw	zero,-20(s0)
D:\WCH\代码\3-PIT%20Demo\obj/../Libraries/wch_libraries/Peripheral/ch32v10x_gpio.c:462

  tmp = ((uint32_t)0x0F) << (0x04 * (GPIO_PinSource & (uint8_t)0x03));
     8a4:	fde44783          	lbu	a5,-34(s0)
     8a8:	8b8d                	andi	a5,a5,3
     8aa:	078a                	slli	a5,a5,0x2
     8ac:	473d                	li	a4,15
     8ae:	00f717b3          	sll	a5,a4,a5
     8b2:	fef42623          	sw	a5,-20(s0)
D:\WCH\代码\3-PIT%20Demo\obj/../Libraries/wch_libraries/Peripheral/ch32v10x_gpio.c:463
  AFIO->EXTICR[GPIO_PinSource >> 0x02] &= ~tmp;
     8b6:	40010737          	lui	a4,0x40010
     8ba:	fde44783          	lbu	a5,-34(s0)
     8be:	8389                	srli	a5,a5,0x2
     8c0:	0ff7f793          	andi	a5,a5,255
     8c4:	078a                	slli	a5,a5,0x2
     8c6:	97ba                	add	a5,a5,a4
     8c8:	4798                	lw	a4,8(a5)
     8ca:	fec42783          	lw	a5,-20(s0)
     8ce:	fff7c793          	not	a5,a5
     8d2:	400106b7          	lui	a3,0x40010
     8d6:	fde44603          	lbu	a2,-34(s0)
     8da:	8209                	srli	a2,a2,0x2
     8dc:	0ff67613          	andi	a2,a2,255
     8e0:	8f7d                	and	a4,a4,a5
     8e2:	00261793          	slli	a5,a2,0x2
     8e6:	97b6                	add	a5,a5,a3
     8e8:	c798                	sw	a4,8(a5)
D:\WCH\代码\3-PIT%20Demo\obj/../Libraries/wch_libraries/Peripheral/ch32v10x_gpio.c:464
  AFIO->EXTICR[GPIO_PinSource >> 0x02] |= (((uint32_t)GPIO_PortSource) << (0x04 * (GPIO_PinSource & (uint8_t)0x03)));
     8ea:	40010737          	lui	a4,0x40010
     8ee:	fde44783          	lbu	a5,-34(s0)
     8f2:	8389                	srli	a5,a5,0x2
     8f4:	0ff7f793          	andi	a5,a5,255
     8f8:	078a                	slli	a5,a5,0x2
     8fa:	97ba                	add	a5,a5,a4
     8fc:	4798                	lw	a4,8(a5)
     8fe:	fdf44683          	lbu	a3,-33(s0)
     902:	fde44783          	lbu	a5,-34(s0)
     906:	8b8d                	andi	a5,a5,3
     908:	078a                	slli	a5,a5,0x2
     90a:	00f697b3          	sll	a5,a3,a5
     90e:	400106b7          	lui	a3,0x40010
     912:	fde44603          	lbu	a2,-34(s0)
     916:	8209                	srli	a2,a2,0x2
     918:	0ff67613          	andi	a2,a2,255
     91c:	8f5d                	or	a4,a4,a5
     91e:	00261793          	slli	a5,a2,0x2
     922:	97b6                	add	a5,a5,a3
     924:	c798                	sw	a4,8(a5)
D:\WCH\代码\3-PIT%20Demo\obj/../Libraries/wch_libraries/Peripheral/ch32v10x_gpio.c:465
}
     926:	0001                	nop
     928:	5432                	lw	s0,44(sp)
     92a:	6145                	addi	sp,sp,48
     92c:	8082                	ret

0000092e <NVIC_EnableIRQ>:
NVIC_EnableIRQ():
D:\WCH\代码\3-PIT%20Demo\obj/../Libraries/wch_libraries/Core/core_riscv.h:126
* Function Name  : NVIC_EnableIRQ
* Description    : Enable Interrupt
* Input          : IRQn: Interrupt Numbers
* Return         : None
*******************************************************************************/
RV_STATIC_INLINE void NVIC_EnableIRQ(IRQn_Type IRQn){
     92e:	1101                	addi	sp,sp,-32
     930:	ce22                	sw	s0,28(sp)
     932:	1000                	addi	s0,sp,32
     934:	fea42623          	sw	a0,-20(s0)
D:\WCH\代码\3-PIT%20Demo\obj/../Libraries/wch_libraries/Core/core_riscv.h:127
  NVIC->IENR[((uint32_t)(IRQn) >> 5)] = (1 << ((uint32_t)(IRQn) & 0x1F));
     938:	fec42783          	lw	a5,-20(s0)
     93c:	8bfd                	andi	a5,a5,31
     93e:	4705                	li	a4,1
     940:	00f716b3          	sll	a3,a4,a5
     944:	e000e737          	lui	a4,0xe000e
     948:	fec42783          	lw	a5,-20(s0)
     94c:	8395                	srli	a5,a5,0x5
     94e:	04078793          	addi	a5,a5,64 # 40010040 <_eusrstack+0x2000b040>
     952:	078a                	slli	a5,a5,0x2
     954:	97ba                	add	a5,a5,a4
     956:	c394                	sw	a3,0(a5)
D:\WCH\代码\3-PIT%20Demo\obj/../Libraries/wch_libraries/Core/core_riscv.h:128
}
     958:	0001                	nop
     95a:	4472                	lw	s0,28(sp)
     95c:	6105                	addi	sp,sp,32
     95e:	8082                	ret

00000960 <NVIC_DisableIRQ>:
NVIC_DisableIRQ():
D:\WCH\代码\3-PIT%20Demo\obj/../Libraries/wch_libraries/Core/core_riscv.h:137
* Description    : Disable Interrupt
* Input          : IRQn: Interrupt Numbers
* Return         : None
*******************************************************************************/
RV_STATIC_INLINE void NVIC_DisableIRQ(IRQn_Type IRQn)
{
     960:	1101                	addi	sp,sp,-32
     962:	ce22                	sw	s0,28(sp)
     964:	1000                	addi	s0,sp,32
     966:	fea42623          	sw	a0,-20(s0)
D:\WCH\代码\3-PIT%20Demo\obj/../Libraries/wch_libraries/Core/core_riscv.h:138
  NVIC->IRER[((uint32_t)(IRQn) >> 5)] = (1 << ((uint32_t)(IRQn) & 0x1F));
     96a:	fec42783          	lw	a5,-20(s0)
     96e:	8bfd                	andi	a5,a5,31
     970:	4705                	li	a4,1
     972:	00f716b3          	sll	a3,a4,a5
     976:	e000e737          	lui	a4,0xe000e
     97a:	fec42783          	lw	a5,-20(s0)
     97e:	8395                	srli	a5,a5,0x5
     980:	06078793          	addi	a5,a5,96
     984:	078a                	slli	a5,a5,0x2
     986:	97ba                	add	a5,a5,a4
     988:	c394                	sw	a3,0(a5)
D:\WCH\代码\3-PIT%20Demo\obj/../Libraries/wch_libraries/Core/core_riscv.h:139
}
     98a:	0001                	nop
     98c:	4472                	lw	s0,28(sp)
     98e:	6105                	addi	sp,sp,32
     990:	8082                	ret

00000992 <NVIC_SetPriority>:
NVIC_SetPriority():
D:\WCH\代码\3-PIT%20Demo\obj/../Libraries/wch_libraries/Core/core_riscv.h:208
*                  priority: bit7:pre-emption priority
*                            bit6-bit4: subpriority
* Return         : None
*******************************************************************************/
RV_STATIC_INLINE void NVIC_SetPriority(IRQn_Type IRQn, uint8_t priority)
{
     992:	1101                	addi	sp,sp,-32
     994:	ce22                	sw	s0,28(sp)
     996:	1000                	addi	s0,sp,32
     998:	fea42623          	sw	a0,-20(s0)
     99c:	87ae                	mv	a5,a1
     99e:	fef405a3          	sb	a5,-21(s0)
D:\WCH\代码\3-PIT%20Demo\obj/../Libraries/wch_libraries/Core/core_riscv.h:209
  NVIC->IPRIOR[(uint32_t)(IRQn)] = priority;
     9a2:	e000e737          	lui	a4,0xe000e
     9a6:	fec42783          	lw	a5,-20(s0)
     9aa:	97ba                	add	a5,a5,a4
     9ac:	feb44703          	lbu	a4,-21(s0)
     9b0:	40e78023          	sb	a4,1024(a5)
D:\WCH\代码\3-PIT%20Demo\obj/../Libraries/wch_libraries/Core/core_riscv.h:210
}
     9b4:	0001                	nop
     9b6:	4472                	lw	s0,28(sp)
     9b8:	6105                	addi	sp,sp,32
     9ba:	8082                	ret

000009bc <NVIC_Init>:
NVIC_Init():
D:\WCH\代码\3-PIT%20Demo\obj/../Libraries/wch_libraries/Peripheral/ch32v10x_misc.c:42
* Input          : NVIC_InitStruct: pointer to a NVIC_InitTypeDef structure that contains the
*                                   configuration information for the specified NVIC peripheral.                 
* Return         : None
*******************************************************************************************/
void NVIC_Init(NVIC_InitTypeDef* NVIC_InitStruct)
{
     9bc:	7179                	addi	sp,sp,-48
     9be:	d606                	sw	ra,44(sp)
     9c0:	d422                	sw	s0,40(sp)
     9c2:	1800                	addi	s0,sp,48
     9c4:	fca42e23          	sw	a0,-36(s0)
D:\WCH\代码\3-PIT%20Demo\obj/../Libraries/wch_libraries/Peripheral/ch32v10x_misc.c:43
	uint8_t tmppre = 0;
     9c8:	fe0407a3          	sb	zero,-17(s0)
D:\WCH\代码\3-PIT%20Demo\obj/../Libraries/wch_libraries/Peripheral/ch32v10x_misc.c:45

	if(NVIC_Priority_Group == NVIC_PriorityGroup_0)
     9cc:	8101a783          	lw	a5,-2032(gp) # 20000098 <_edata>
     9d0:	e38d                	bnez	a5,9f2 <NVIC_Init+0x36>
D:\WCH\代码\3-PIT%20Demo\obj/../Libraries/wch_libraries/Peripheral/ch32v10x_misc.c:47
	{
		NVIC_SetPriority( NVIC_InitStruct->NVIC_IRQChannel, NVIC_InitStruct->NVIC_IRQChannelSubPriority<<4);
     9d2:	fdc42783          	lw	a5,-36(s0)
     9d6:	0007c783          	lbu	a5,0(a5)
     9da:	873e                	mv	a4,a5
     9dc:	fdc42783          	lw	a5,-36(s0)
     9e0:	0027c783          	lbu	a5,2(a5)
     9e4:	0792                	slli	a5,a5,0x4
     9e6:	0ff7f793          	andi	a5,a5,255
     9ea:	85be                	mv	a1,a5
     9ec:	853a                	mv	a0,a4
     9ee:	3755                	jal	992 <NVIC_SetPriority>
     9f0:	a2d9                	j	bb6 <NVIC_Init+0x1fa>
D:\WCH\代码\3-PIT%20Demo\obj/../Libraries/wch_libraries/Peripheral/ch32v10x_misc.c:49
	}
	else if(NVIC_Priority_Group == NVIC_PriorityGroup_1)
     9f2:	8101a703          	lw	a4,-2032(gp) # 20000098 <_edata>
     9f6:	4785                	li	a5,1
     9f8:	04f71f63          	bne	a4,a5,a56 <NVIC_Init+0x9a>
D:\WCH\代码\3-PIT%20Demo\obj/../Libraries/wch_libraries/Peripheral/ch32v10x_misc.c:51
	{
    if(NVIC_InitStruct->NVIC_IRQChannelPreemptionPriority == 1)
     9fc:	fdc42783          	lw	a5,-36(s0)
     a00:	0017c703          	lbu	a4,1(a5)
     a04:	4785                	li	a5,1
     a06:	02f71863          	bne	a4,a5,a36 <NVIC_Init+0x7a>
D:\WCH\代码\3-PIT%20Demo\obj/../Libraries/wch_libraries/Peripheral/ch32v10x_misc.c:53
    {
    	NVIC_SetPriority( NVIC_InitStruct->NVIC_IRQChannel, (1<<7)|(NVIC_InitStruct->NVIC_IRQChannelSubPriority<<4));
     a0a:	fdc42783          	lw	a5,-36(s0)
     a0e:	0007c783          	lbu	a5,0(a5)
     a12:	873e                	mv	a4,a5
     a14:	fdc42783          	lw	a5,-36(s0)
     a18:	0027c783          	lbu	a5,2(a5)
     a1c:	0792                	slli	a5,a5,0x4
     a1e:	07e2                	slli	a5,a5,0x18
     a20:	87e1                	srai	a5,a5,0x18
     a22:	f807e793          	ori	a5,a5,-128
     a26:	07e2                	slli	a5,a5,0x18
     a28:	87e1                	srai	a5,a5,0x18
     a2a:	0ff7f793          	andi	a5,a5,255
     a2e:	85be                	mv	a1,a5
     a30:	853a                	mv	a0,a4
     a32:	3785                	jal	992 <NVIC_SetPriority>
     a34:	a249                	j	bb6 <NVIC_Init+0x1fa>
D:\WCH\代码\3-PIT%20Demo\obj/../Libraries/wch_libraries/Peripheral/ch32v10x_misc.c:57
    }
    else
    {
    	NVIC_SetPriority( NVIC_InitStruct->NVIC_IRQChannel, (0<<7)|(NVIC_InitStruct->NVIC_IRQChannelSubPriority<<4));
     a36:	fdc42783          	lw	a5,-36(s0)
     a3a:	0007c783          	lbu	a5,0(a5)
     a3e:	873e                	mv	a4,a5
     a40:	fdc42783          	lw	a5,-36(s0)
     a44:	0027c783          	lbu	a5,2(a5)
     a48:	0792                	slli	a5,a5,0x4
     a4a:	0ff7f793          	andi	a5,a5,255
     a4e:	85be                	mv	a1,a5
     a50:	853a                	mv	a0,a4
     a52:	3781                	jal	992 <NVIC_SetPriority>
     a54:	a28d                	j	bb6 <NVIC_Init+0x1fa>
D:\WCH\代码\3-PIT%20Demo\obj/../Libraries/wch_libraries/Peripheral/ch32v10x_misc.c:60
    }
	}
	else if(NVIC_Priority_Group == NVIC_PriorityGroup_2)
     a56:	8101a703          	lw	a4,-2032(gp) # 20000098 <_edata>
     a5a:	4789                	li	a5,2
     a5c:	08f71b63          	bne	a4,a5,af2 <NVIC_Init+0x136>
D:\WCH\代码\3-PIT%20Demo\obj/../Libraries/wch_libraries/Peripheral/ch32v10x_misc.c:62
	{
    if(NVIC_InitStruct->NVIC_IRQChannelPreemptionPriority <= 1)
     a60:	fdc42783          	lw	a5,-36(s0)
     a64:	0017c703          	lbu	a4,1(a5)
     a68:	4785                	li	a5,1
     a6a:	02e7ee63          	bltu	a5,a4,aa6 <NVIC_Init+0xea>
D:\WCH\代码\3-PIT%20Demo\obj/../Libraries/wch_libraries/Peripheral/ch32v10x_misc.c:64
    {
      tmppre = NVIC_InitStruct->NVIC_IRQChannelSubPriority + (4*NVIC_InitStruct->NVIC_IRQChannelPreemptionPriority);
     a6e:	fdc42783          	lw	a5,-36(s0)
     a72:	0027c703          	lbu	a4,2(a5)
     a76:	fdc42783          	lw	a5,-36(s0)
     a7a:	0017c783          	lbu	a5,1(a5)
     a7e:	078a                	slli	a5,a5,0x2
     a80:	0ff7f793          	andi	a5,a5,255
     a84:	97ba                	add	a5,a5,a4
     a86:	fef407a3          	sb	a5,-17(s0)
D:\WCH\代码\3-PIT%20Demo\obj/../Libraries/wch_libraries/Peripheral/ch32v10x_misc.c:65
    	NVIC_SetPriority( NVIC_InitStruct->NVIC_IRQChannel, (0<<7)|(tmppre<<4));
     a8a:	fdc42783          	lw	a5,-36(s0)
     a8e:	0007c783          	lbu	a5,0(a5)
     a92:	873e                	mv	a4,a5
     a94:	fef44783          	lbu	a5,-17(s0)
     a98:	0792                	slli	a5,a5,0x4
     a9a:	0ff7f793          	andi	a5,a5,255
     a9e:	85be                	mv	a1,a5
     aa0:	853a                	mv	a0,a4
     aa2:	3dc5                	jal	992 <NVIC_SetPriority>
     aa4:	aa09                	j	bb6 <NVIC_Init+0x1fa>
D:\WCH\代码\3-PIT%20Demo\obj/../Libraries/wch_libraries/Peripheral/ch32v10x_misc.c:69
    }
    else
    {
      tmppre = NVIC_InitStruct->NVIC_IRQChannelSubPriority + (4*(NVIC_InitStruct->NVIC_IRQChannelPreemptionPriority-2));
     aa6:	fdc42783          	lw	a5,-36(s0)
     aaa:	0027c703          	lbu	a4,2(a5)
     aae:	fdc42783          	lw	a5,-36(s0)
     ab2:	0017c783          	lbu	a5,1(a5)
     ab6:	03e78793          	addi	a5,a5,62
     aba:	0ff7f793          	andi	a5,a5,255
     abe:	078a                	slli	a5,a5,0x2
     ac0:	0ff7f793          	andi	a5,a5,255
     ac4:	97ba                	add	a5,a5,a4
     ac6:	fef407a3          	sb	a5,-17(s0)
D:\WCH\代码\3-PIT%20Demo\obj/../Libraries/wch_libraries/Peripheral/ch32v10x_misc.c:70
    	NVIC_SetPriority( NVIC_InitStruct->NVIC_IRQChannel, (1<<7)|(tmppre<<4));
     aca:	fdc42783          	lw	a5,-36(s0)
     ace:	0007c783          	lbu	a5,0(a5)
     ad2:	873e                	mv	a4,a5
     ad4:	fef44783          	lbu	a5,-17(s0)
     ad8:	0792                	slli	a5,a5,0x4
     ada:	07e2                	slli	a5,a5,0x18
     adc:	87e1                	srai	a5,a5,0x18
     ade:	f807e793          	ori	a5,a5,-128
     ae2:	07e2                	slli	a5,a5,0x18
     ae4:	87e1                	srai	a5,a5,0x18
     ae6:	0ff7f793          	andi	a5,a5,255
     aea:	85be                	mv	a1,a5
     aec:	853a                	mv	a0,a4
     aee:	3555                	jal	992 <NVIC_SetPriority>
     af0:	a0d9                	j	bb6 <NVIC_Init+0x1fa>
D:\WCH\代码\3-PIT%20Demo\obj/../Libraries/wch_libraries/Peripheral/ch32v10x_misc.c:73
    }
	}
	else if(NVIC_Priority_Group == NVIC_PriorityGroup_3)
     af2:	8101a703          	lw	a4,-2032(gp) # 20000098 <_edata>
     af6:	478d                	li	a5,3
     af8:	08f71b63          	bne	a4,a5,b8e <NVIC_Init+0x1d2>
D:\WCH\代码\3-PIT%20Demo\obj/../Libraries/wch_libraries/Peripheral/ch32v10x_misc.c:75
	{
    if(NVIC_InitStruct->NVIC_IRQChannelPreemptionPriority <= 3)
     afc:	fdc42783          	lw	a5,-36(s0)
     b00:	0017c703          	lbu	a4,1(a5)
     b04:	478d                	li	a5,3
     b06:	02e7ee63          	bltu	a5,a4,b42 <NVIC_Init+0x186>
D:\WCH\代码\3-PIT%20Demo\obj/../Libraries/wch_libraries/Peripheral/ch32v10x_misc.c:77
    {
      tmppre = NVIC_InitStruct->NVIC_IRQChannelSubPriority + (2*NVIC_InitStruct->NVIC_IRQChannelPreemptionPriority);
     b0a:	fdc42783          	lw	a5,-36(s0)
     b0e:	0027c703          	lbu	a4,2(a5)
     b12:	fdc42783          	lw	a5,-36(s0)
     b16:	0017c783          	lbu	a5,1(a5)
     b1a:	0786                	slli	a5,a5,0x1
     b1c:	0ff7f793          	andi	a5,a5,255
     b20:	97ba                	add	a5,a5,a4
     b22:	fef407a3          	sb	a5,-17(s0)
D:\WCH\代码\3-PIT%20Demo\obj/../Libraries/wch_libraries/Peripheral/ch32v10x_misc.c:78
    	NVIC_SetPriority( NVIC_InitStruct->NVIC_IRQChannel, (0<<7)|(tmppre<<4));
     b26:	fdc42783          	lw	a5,-36(s0)
     b2a:	0007c783          	lbu	a5,0(a5)
     b2e:	873e                	mv	a4,a5
     b30:	fef44783          	lbu	a5,-17(s0)
     b34:	0792                	slli	a5,a5,0x4
     b36:	0ff7f793          	andi	a5,a5,255
     b3a:	85be                	mv	a1,a5
     b3c:	853a                	mv	a0,a4
     b3e:	3d91                	jal	992 <NVIC_SetPriority>
     b40:	a89d                	j	bb6 <NVIC_Init+0x1fa>
D:\WCH\代码\3-PIT%20Demo\obj/../Libraries/wch_libraries/Peripheral/ch32v10x_misc.c:82
    }
    else
    {
      tmppre = NVIC_InitStruct->NVIC_IRQChannelSubPriority + (2*(NVIC_InitStruct->NVIC_IRQChannelPreemptionPriority-4));
     b42:	fdc42783          	lw	a5,-36(s0)
     b46:	0027c703          	lbu	a4,2(a5)
     b4a:	fdc42783          	lw	a5,-36(s0)
     b4e:	0017c783          	lbu	a5,1(a5)
     b52:	07c78793          	addi	a5,a5,124
     b56:	0ff7f793          	andi	a5,a5,255
     b5a:	0786                	slli	a5,a5,0x1
     b5c:	0ff7f793          	andi	a5,a5,255
     b60:	97ba                	add	a5,a5,a4
     b62:	fef407a3          	sb	a5,-17(s0)
D:\WCH\代码\3-PIT%20Demo\obj/../Libraries/wch_libraries/Peripheral/ch32v10x_misc.c:83
    	NVIC_SetPriority( NVIC_InitStruct->NVIC_IRQChannel, (1<<7)|(tmppre<<4));
     b66:	fdc42783          	lw	a5,-36(s0)
     b6a:	0007c783          	lbu	a5,0(a5)
     b6e:	873e                	mv	a4,a5
     b70:	fef44783          	lbu	a5,-17(s0)
     b74:	0792                	slli	a5,a5,0x4
     b76:	07e2                	slli	a5,a5,0x18
     b78:	87e1                	srai	a5,a5,0x18
     b7a:	f807e793          	ori	a5,a5,-128
     b7e:	07e2                	slli	a5,a5,0x18
     b80:	87e1                	srai	a5,a5,0x18
     b82:	0ff7f793          	andi	a5,a5,255
     b86:	85be                	mv	a1,a5
     b88:	853a                	mv	a0,a4
     b8a:	3521                	jal	992 <NVIC_SetPriority>
     b8c:	a02d                	j	bb6 <NVIC_Init+0x1fa>
D:\WCH\代码\3-PIT%20Demo\obj/../Libraries/wch_libraries/Peripheral/ch32v10x_misc.c:86
    }
	}
	else if(NVIC_Priority_Group == NVIC_PriorityGroup_4)
     b8e:	8101a703          	lw	a4,-2032(gp) # 20000098 <_edata>
     b92:	4791                	li	a5,4
     b94:	02f71163          	bne	a4,a5,bb6 <NVIC_Init+0x1fa>
D:\WCH\代码\3-PIT%20Demo\obj/../Libraries/wch_libraries/Peripheral/ch32v10x_misc.c:88
	{
		NVIC_SetPriority( NVIC_InitStruct->NVIC_IRQChannel, NVIC_InitStruct->NVIC_IRQChannelPreemptionPriority<<4);
     b98:	fdc42783          	lw	a5,-36(s0)
     b9c:	0007c783          	lbu	a5,0(a5)
     ba0:	873e                	mv	a4,a5
     ba2:	fdc42783          	lw	a5,-36(s0)
     ba6:	0017c783          	lbu	a5,1(a5)
     baa:	0792                	slli	a5,a5,0x4
     bac:	0ff7f793          	andi	a5,a5,255
     bb0:	85be                	mv	a1,a5
     bb2:	853a                	mv	a0,a4
     bb4:	3bf9                	jal	992 <NVIC_SetPriority>
D:\WCH\代码\3-PIT%20Demo\obj/../Libraries/wch_libraries/Peripheral/ch32v10x_misc.c:91
	}

  if (NVIC_InitStruct->NVIC_IRQChannelCmd != DISABLE)
     bb6:	fdc42783          	lw	a5,-36(s0)
     bba:	43dc                	lw	a5,4(a5)
     bbc:	cb81                	beqz	a5,bcc <NVIC_Init+0x210>
D:\WCH\代码\3-PIT%20Demo\obj/../Libraries/wch_libraries/Peripheral/ch32v10x_misc.c:93
  {
  	NVIC_EnableIRQ(NVIC_InitStruct->NVIC_IRQChannel);
     bbe:	fdc42783          	lw	a5,-36(s0)
     bc2:	0007c783          	lbu	a5,0(a5)
     bc6:	853e                	mv	a0,a5
     bc8:	339d                	jal	92e <NVIC_EnableIRQ>
D:\WCH\代码\3-PIT%20Demo\obj/../Libraries/wch_libraries/Peripheral/ch32v10x_misc.c:99
  }
  else
  {
  	NVIC_DisableIRQ(NVIC_InitStruct->NVIC_IRQChannel);
  }
}
     bca:	a039                	j	bd8 <NVIC_Init+0x21c>
D:\WCH\代码\3-PIT%20Demo\obj/../Libraries/wch_libraries/Peripheral/ch32v10x_misc.c:97
  	NVIC_DisableIRQ(NVIC_InitStruct->NVIC_IRQChannel);
     bcc:	fdc42783          	lw	a5,-36(s0)
     bd0:	0007c783          	lbu	a5,0(a5)
     bd4:	853e                	mv	a0,a5
     bd6:	3369                	jal	960 <NVIC_DisableIRQ>
D:\WCH\代码\3-PIT%20Demo\obj/../Libraries/wch_libraries/Peripheral/ch32v10x_misc.c:99
}
     bd8:	0001                	nop
     bda:	50b2                	lw	ra,44(sp)
     bdc:	5422                	lw	s0,40(sp)
     bde:	6145                	addi	sp,sp,48
     be0:	8082                	ret

00000be2 <RCC_GetClocksFreq>:
RCC_GetClocksFreq():
D:\WCH\代码\3-PIT%20Demo\obj/../Libraries/wch_libraries/Peripheral/ch32v10x_rcc.c:469
* Input          : The result of this function could be not correct when using
*      fractional value for HSE crystal.
* Return         : None
********************************************************************************/
void RCC_GetClocksFreq(RCC_ClocksTypeDef* RCC_Clocks)
{
     be2:	7179                	addi	sp,sp,-48
     be4:	d622                	sw	s0,44(sp)
     be6:	1800                	addi	s0,sp,48
     be8:	fca42e23          	sw	a0,-36(s0)
D:\WCH\代码\3-PIT%20Demo\obj/../Libraries/wch_libraries/Peripheral/ch32v10x_rcc.c:470
  uint32_t tmp = 0, pllmull = 0, pllsource = 0, presc = 0;
     bec:	fe042623          	sw	zero,-20(s0)
     bf0:	fe042423          	sw	zero,-24(s0)
     bf4:	fe042223          	sw	zero,-28(s0)
     bf8:	fe042023          	sw	zero,-32(s0)
D:\WCH\代码\3-PIT%20Demo\obj/../Libraries/wch_libraries/Peripheral/ch32v10x_rcc.c:472
  
  tmp = RCC->CFGR0 & CFGR0_SWS_Mask;
     bfc:	400217b7          	lui	a5,0x40021
     c00:	43dc                	lw	a5,4(a5)
     c02:	8bb1                	andi	a5,a5,12
     c04:	fef42623          	sw	a5,-20(s0)
     c08:	fec42703          	lw	a4,-20(s0)
     c0c:	4791                	li	a5,4
     c0e:	02f70263          	beq	a4,a5,c32 <RCC_GetClocksFreq+0x50>
     c12:	fec42703          	lw	a4,-20(s0)
     c16:	47a1                	li	a5,8
     c18:	02f70563          	beq	a4,a5,c42 <RCC_GetClocksFreq+0x60>
     c1c:	fec42783          	lw	a5,-20(s0)
     c20:	e7c5                	bnez	a5,cc8 <RCC_GetClocksFreq+0xe6>
D:\WCH\代码\3-PIT%20Demo\obj/../Libraries/wch_libraries/Peripheral/ch32v10x_rcc.c:477
  
  switch (tmp)
  {
    case 0x00: 
      RCC_Clocks->SYSCLK_Frequency = HSI_VALUE;
     c22:	fdc42783          	lw	a5,-36(s0)
     c26:	007a1737          	lui	a4,0x7a1
     c2a:	20070713          	addi	a4,a4,512 # 7a1200 <_data_lma+0x79bd48>
     c2e:	c398                	sw	a4,0(a5)
D:\WCH\代码\3-PIT%20Demo\obj/../Libraries/wch_libraries/Peripheral/ch32v10x_rcc.c:478
      break;
     c30:	a065                	j	cd8 <RCC_GetClocksFreq+0xf6>
D:\WCH\代码\3-PIT%20Demo\obj/../Libraries/wch_libraries/Peripheral/ch32v10x_rcc.c:481
		
    case 0x04:
      RCC_Clocks->SYSCLK_Frequency = HSE_VALUE;
     c32:	fdc42783          	lw	a5,-36(s0)
     c36:	007a1737          	lui	a4,0x7a1
     c3a:	20070713          	addi	a4,a4,512 # 7a1200 <_data_lma+0x79bd48>
     c3e:	c398                	sw	a4,0(a5)
D:\WCH\代码\3-PIT%20Demo\obj/../Libraries/wch_libraries/Peripheral/ch32v10x_rcc.c:482
      break;
     c40:	a861                	j	cd8 <RCC_GetClocksFreq+0xf6>
D:\WCH\代码\3-PIT%20Demo\obj/../Libraries/wch_libraries/Peripheral/ch32v10x_rcc.c:485
		
    case 0x08:
      pllmull = RCC->CFGR0 & CFGR0_PLLMull_Mask;
     c42:	400217b7          	lui	a5,0x40021
     c46:	43d8                	lw	a4,4(a5)
     c48:	003c07b7          	lui	a5,0x3c0
     c4c:	8ff9                	and	a5,a5,a4
     c4e:	fef42423          	sw	a5,-24(s0)
D:\WCH\代码\3-PIT%20Demo\obj/../Libraries/wch_libraries/Peripheral/ch32v10x_rcc.c:486
      pllsource = RCC->CFGR0 & CFGR0_PLLSRC_Mask;    
     c52:	400217b7          	lui	a5,0x40021
     c56:	43d8                	lw	a4,4(a5)
     c58:	67c1                	lui	a5,0x10
     c5a:	8ff9                	and	a5,a5,a4
     c5c:	fef42223          	sw	a5,-28(s0)
D:\WCH\代码\3-PIT%20Demo\obj/../Libraries/wch_libraries/Peripheral/ch32v10x_rcc.c:487
      pllmull = ( pllmull >> 18) + 2;
     c60:	fe842783          	lw	a5,-24(s0)
     c64:	83c9                	srli	a5,a5,0x12
     c66:	0789                	addi	a5,a5,2
     c68:	fef42423          	sw	a5,-24(s0)
D:\WCH\代码\3-PIT%20Demo\obj/../Libraries/wch_libraries/Peripheral/ch32v10x_rcc.c:489
      
      if (pllsource == 0x00)
     c6c:	fe442783          	lw	a5,-28(s0)
     c70:	ef89                	bnez	a5,c8a <RCC_GetClocksFreq+0xa8>
D:\WCH\代码\3-PIT%20Demo\obj/../Libraries/wch_libraries/Peripheral/ch32v10x_rcc.c:491
      {
        RCC_Clocks->SYSCLK_Frequency = (HSI_VALUE >> 1) * pllmull;
     c72:	fe842703          	lw	a4,-24(s0)
     c76:	003d17b7          	lui	a5,0x3d1
     c7a:	90078793          	addi	a5,a5,-1792 # 3d0900 <_data_lma+0x3cb448>
     c7e:	02f70733          	mul	a4,a4,a5
     c82:	fdc42783          	lw	a5,-36(s0)
     c86:	c398                	sw	a4,0(a5)
D:\WCH\代码\3-PIT%20Demo\obj/../Libraries/wch_libraries/Peripheral/ch32v10x_rcc.c:504
        else
        {
          RCC_Clocks->SYSCLK_Frequency = HSE_VALUE * pllmull;
        }
      } 
      break;
     c88:	a881                	j	cd8 <RCC_GetClocksFreq+0xf6>
D:\WCH\代码\3-PIT%20Demo\obj/../Libraries/wch_libraries/Peripheral/ch32v10x_rcc.c:495
        if ((RCC->CFGR0 & CFGR0_PLLXTPRE_Mask) != (uint32_t)RESET)
     c8a:	400217b7          	lui	a5,0x40021
     c8e:	43d8                	lw	a4,4(a5)
     c90:	000207b7          	lui	a5,0x20
     c94:	8ff9                	and	a5,a5,a4
     c96:	cf89                	beqz	a5,cb0 <RCC_GetClocksFreq+0xce>
D:\WCH\代码\3-PIT%20Demo\obj/../Libraries/wch_libraries/Peripheral/ch32v10x_rcc.c:497
          RCC_Clocks->SYSCLK_Frequency = (HSE_VALUE >> 1) * pllmull;
     c98:	fe842703          	lw	a4,-24(s0)
     c9c:	003d17b7          	lui	a5,0x3d1
     ca0:	90078793          	addi	a5,a5,-1792 # 3d0900 <_data_lma+0x3cb448>
     ca4:	02f70733          	mul	a4,a4,a5
     ca8:	fdc42783          	lw	a5,-36(s0)
     cac:	c398                	sw	a4,0(a5)
D:\WCH\代码\3-PIT%20Demo\obj/../Libraries/wch_libraries/Peripheral/ch32v10x_rcc.c:504
      break;
     cae:	a02d                	j	cd8 <RCC_GetClocksFreq+0xf6>
D:\WCH\代码\3-PIT%20Demo\obj/../Libraries/wch_libraries/Peripheral/ch32v10x_rcc.c:501
          RCC_Clocks->SYSCLK_Frequency = HSE_VALUE * pllmull;
     cb0:	fe842703          	lw	a4,-24(s0)
     cb4:	007a17b7          	lui	a5,0x7a1
     cb8:	20078793          	addi	a5,a5,512 # 7a1200 <_data_lma+0x79bd48>
     cbc:	02f70733          	mul	a4,a4,a5
     cc0:	fdc42783          	lw	a5,-36(s0)
     cc4:	c398                	sw	a4,0(a5)
D:\WCH\代码\3-PIT%20Demo\obj/../Libraries/wch_libraries/Peripheral/ch32v10x_rcc.c:504
      break;
     cc6:	a809                	j	cd8 <RCC_GetClocksFreq+0xf6>
D:\WCH\代码\3-PIT%20Demo\obj/../Libraries/wch_libraries/Peripheral/ch32v10x_rcc.c:507

    default:
      RCC_Clocks->SYSCLK_Frequency = HSI_VALUE;
     cc8:	fdc42783          	lw	a5,-36(s0)
     ccc:	007a1737          	lui	a4,0x7a1
     cd0:	20070713          	addi	a4,a4,512 # 7a1200 <_data_lma+0x79bd48>
     cd4:	c398                	sw	a4,0(a5)
D:\WCH\代码\3-PIT%20Demo\obj/../Libraries/wch_libraries/Peripheral/ch32v10x_rcc.c:508
      break;
     cd6:	0001                	nop
D:\WCH\代码\3-PIT%20Demo\obj/../Libraries/wch_libraries/Peripheral/ch32v10x_rcc.c:511
  }

  tmp = RCC->CFGR0 & CFGR0_HPRE_Set_Mask;
     cd8:	400217b7          	lui	a5,0x40021
     cdc:	43dc                	lw	a5,4(a5)
     cde:	0f07f793          	andi	a5,a5,240
     ce2:	fef42623          	sw	a5,-20(s0)
D:\WCH\代码\3-PIT%20Demo\obj/../Libraries/wch_libraries/Peripheral/ch32v10x_rcc.c:512
  tmp = tmp >> 4;
     ce6:	fec42783          	lw	a5,-20(s0)
     cea:	8391                	srli	a5,a5,0x4
     cec:	fef42623          	sw	a5,-20(s0)
D:\WCH\代码\3-PIT%20Demo\obj/../Libraries/wch_libraries/Peripheral/ch32v10x_rcc.c:513
  presc = APBAHBPrescTable[tmp];
     cf0:	200007b7          	lui	a5,0x20000
     cf4:	00078713          	mv	a4,a5
     cf8:	fec42783          	lw	a5,-20(s0)
     cfc:	97ba                	add	a5,a5,a4
     cfe:	0007c783          	lbu	a5,0(a5) # 20000000 <_data_vma>
     d02:	0ff7f793          	andi	a5,a5,255
     d06:	fef42023          	sw	a5,-32(s0)
D:\WCH\代码\3-PIT%20Demo\obj/../Libraries/wch_libraries/Peripheral/ch32v10x_rcc.c:514
  RCC_Clocks->HCLK_Frequency = RCC_Clocks->SYSCLK_Frequency >> presc;
     d0a:	fdc42783          	lw	a5,-36(s0)
     d0e:	4398                	lw	a4,0(a5)
     d10:	fe042783          	lw	a5,-32(s0)
     d14:	00f75733          	srl	a4,a4,a5
     d18:	fdc42783          	lw	a5,-36(s0)
     d1c:	c3d8                	sw	a4,4(a5)
D:\WCH\代码\3-PIT%20Demo\obj/../Libraries/wch_libraries/Peripheral/ch32v10x_rcc.c:515
  tmp = RCC->CFGR0 & CFGR0_PPRE1_Set_Mask;
     d1e:	400217b7          	lui	a5,0x40021
     d22:	43dc                	lw	a5,4(a5)
     d24:	7007f793          	andi	a5,a5,1792
     d28:	fef42623          	sw	a5,-20(s0)
D:\WCH\代码\3-PIT%20Demo\obj/../Libraries/wch_libraries/Peripheral/ch32v10x_rcc.c:516
  tmp = tmp >> 8;
     d2c:	fec42783          	lw	a5,-20(s0)
     d30:	83a1                	srli	a5,a5,0x8
     d32:	fef42623          	sw	a5,-20(s0)
D:\WCH\代码\3-PIT%20Demo\obj/../Libraries/wch_libraries/Peripheral/ch32v10x_rcc.c:517
  presc = APBAHBPrescTable[tmp];
     d36:	200007b7          	lui	a5,0x20000
     d3a:	00078713          	mv	a4,a5
     d3e:	fec42783          	lw	a5,-20(s0)
     d42:	97ba                	add	a5,a5,a4
     d44:	0007c783          	lbu	a5,0(a5) # 20000000 <_data_vma>
     d48:	0ff7f793          	andi	a5,a5,255
     d4c:	fef42023          	sw	a5,-32(s0)
D:\WCH\代码\3-PIT%20Demo\obj/../Libraries/wch_libraries/Peripheral/ch32v10x_rcc.c:518
  RCC_Clocks->PCLK1_Frequency = RCC_Clocks->HCLK_Frequency >> presc;
     d50:	fdc42783          	lw	a5,-36(s0)
     d54:	43d8                	lw	a4,4(a5)
     d56:	fe042783          	lw	a5,-32(s0)
     d5a:	00f75733          	srl	a4,a4,a5
     d5e:	fdc42783          	lw	a5,-36(s0)
     d62:	c798                	sw	a4,8(a5)
D:\WCH\代码\3-PIT%20Demo\obj/../Libraries/wch_libraries/Peripheral/ch32v10x_rcc.c:519
  tmp = RCC->CFGR0 & CFGR0_PPRE2_Set_Mask;
     d64:	400217b7          	lui	a5,0x40021
     d68:	43d8                	lw	a4,4(a5)
     d6a:	6791                	lui	a5,0x4
     d6c:	80078793          	addi	a5,a5,-2048 # 3800 <Init_ALL+0x5a>
     d70:	8ff9                	and	a5,a5,a4
     d72:	fef42623          	sw	a5,-20(s0)
D:\WCH\代码\3-PIT%20Demo\obj/../Libraries/wch_libraries/Peripheral/ch32v10x_rcc.c:520
  tmp = tmp >> 11;
     d76:	fec42783          	lw	a5,-20(s0)
     d7a:	83ad                	srli	a5,a5,0xb
     d7c:	fef42623          	sw	a5,-20(s0)
D:\WCH\代码\3-PIT%20Demo\obj/../Libraries/wch_libraries/Peripheral/ch32v10x_rcc.c:521
  presc = APBAHBPrescTable[tmp];
     d80:	200007b7          	lui	a5,0x20000
     d84:	00078713          	mv	a4,a5
     d88:	fec42783          	lw	a5,-20(s0)
     d8c:	97ba                	add	a5,a5,a4
     d8e:	0007c783          	lbu	a5,0(a5) # 20000000 <_data_vma>
     d92:	0ff7f793          	andi	a5,a5,255
     d96:	fef42023          	sw	a5,-32(s0)
D:\WCH\代码\3-PIT%20Demo\obj/../Libraries/wch_libraries/Peripheral/ch32v10x_rcc.c:522
  RCC_Clocks->PCLK2_Frequency = RCC_Clocks->HCLK_Frequency >> presc;
     d9a:	fdc42783          	lw	a5,-36(s0)
     d9e:	43d8                	lw	a4,4(a5)
     da0:	fe042783          	lw	a5,-32(s0)
     da4:	00f75733          	srl	a4,a4,a5
     da8:	fdc42783          	lw	a5,-36(s0)
     dac:	c7d8                	sw	a4,12(a5)
D:\WCH\代码\3-PIT%20Demo\obj/../Libraries/wch_libraries/Peripheral/ch32v10x_rcc.c:523
  tmp = RCC->CFGR0 & CFGR0_ADCPRE_Set_Mask;
     dae:	400217b7          	lui	a5,0x40021
     db2:	43d8                	lw	a4,4(a5)
     db4:	67b1                	lui	a5,0xc
     db6:	8ff9                	and	a5,a5,a4
     db8:	fef42623          	sw	a5,-20(s0)
D:\WCH\代码\3-PIT%20Demo\obj/../Libraries/wch_libraries/Peripheral/ch32v10x_rcc.c:524
  tmp = tmp >> 14;
     dbc:	fec42783          	lw	a5,-20(s0)
     dc0:	83b9                	srli	a5,a5,0xe
     dc2:	fef42623          	sw	a5,-20(s0)
D:\WCH\代码\3-PIT%20Demo\obj/../Libraries/wch_libraries/Peripheral/ch32v10x_rcc.c:525
  presc = ADCPrescTable[tmp];
     dc6:	200007b7          	lui	a5,0x20000
     dca:	08878713          	addi	a4,a5,136 # 20000088 <ADCPrescTable>
     dce:	fec42783          	lw	a5,-20(s0)
     dd2:	97ba                	add	a5,a5,a4
     dd4:	0007c783          	lbu	a5,0(a5)
     dd8:	0ff7f793          	andi	a5,a5,255
     ddc:	fef42023          	sw	a5,-32(s0)
D:\WCH\代码\3-PIT%20Demo\obj/../Libraries/wch_libraries/Peripheral/ch32v10x_rcc.c:526
  RCC_Clocks->ADCCLK_Frequency = RCC_Clocks->PCLK2_Frequency / presc;
     de0:	fdc42783          	lw	a5,-36(s0)
     de4:	47d8                	lw	a4,12(a5)
     de6:	fe042783          	lw	a5,-32(s0)
     dea:	02f75733          	divu	a4,a4,a5
     dee:	fdc42783          	lw	a5,-36(s0)
     df2:	cb98                	sw	a4,16(a5)
D:\WCH\代码\3-PIT%20Demo\obj/../Libraries/wch_libraries/Peripheral/ch32v10x_rcc.c:527
}
     df4:	0001                	nop
     df6:	5432                	lw	s0,44(sp)
     df8:	6145                	addi	sp,sp,48
     dfa:	8082                	ret

00000dfc <RCC_APB2PeriphClockCmd>:
RCC_APB2PeriphClockCmd():
D:\WCH\代码\3-PIT%20Demo\obj/../Libraries/wch_libraries/Peripheral/ch32v10x_rcc.c:570
*                    RCC_APB2Periph_USART1.
*                  NewState: ENABLE or DISABLE
* Return         : None
*******************************************************************************/	
void RCC_APB2PeriphClockCmd(uint32_t RCC_APB2Periph, FunctionalState NewState)
{
     dfc:	1101                	addi	sp,sp,-32
     dfe:	ce22                	sw	s0,28(sp)
     e00:	1000                	addi	s0,sp,32
     e02:	fea42623          	sw	a0,-20(s0)
     e06:	feb42423          	sw	a1,-24(s0)
D:\WCH\代码\3-PIT%20Demo\obj/../Libraries/wch_libraries/Peripheral/ch32v10x_rcc.c:571
  if (NewState != DISABLE)
     e0a:	fe842783          	lw	a5,-24(s0)
     e0e:	cb99                	beqz	a5,e24 <RCC_APB2PeriphClockCmd+0x28>
D:\WCH\代码\3-PIT%20Demo\obj/../Libraries/wch_libraries/Peripheral/ch32v10x_rcc.c:573
  {
    RCC->APB2PCENR |= RCC_APB2Periph;
     e10:	400217b7          	lui	a5,0x40021
     e14:	4f94                	lw	a3,24(a5)
     e16:	400217b7          	lui	a5,0x40021
     e1a:	fec42703          	lw	a4,-20(s0)
     e1e:	8f55                	or	a4,a4,a3
     e20:	cf98                	sw	a4,24(a5)
D:\WCH\代码\3-PIT%20Demo\obj/../Libraries/wch_libraries/Peripheral/ch32v10x_rcc.c:579
  }
  else
  {
    RCC->APB2PCENR &= ~RCC_APB2Periph;
  }
}
     e22:	a821                	j	e3a <RCC_APB2PeriphClockCmd+0x3e>
D:\WCH\代码\3-PIT%20Demo\obj/../Libraries/wch_libraries/Peripheral/ch32v10x_rcc.c:577
    RCC->APB2PCENR &= ~RCC_APB2Periph;
     e24:	400217b7          	lui	a5,0x40021
     e28:	4f94                	lw	a3,24(a5)
     e2a:	fec42783          	lw	a5,-20(s0)
     e2e:	fff7c713          	not	a4,a5
     e32:	400217b7          	lui	a5,0x40021
     e36:	8f75                	and	a4,a4,a3
     e38:	cf98                	sw	a4,24(a5)
D:\WCH\代码\3-PIT%20Demo\obj/../Libraries/wch_libraries/Peripheral/ch32v10x_rcc.c:579
}
     e3a:	0001                	nop
     e3c:	4472                	lw	s0,28(sp)
     e3e:	6105                	addi	sp,sp,32
     e40:	8082                	ret

00000e42 <RCC_APB1PeriphClockCmd>:
RCC_APB1PeriphClockCmd():
D:\WCH\代码\3-PIT%20Demo\obj/../Libraries/wch_libraries/Peripheral/ch32v10x_rcc.c:603
*                    RCC_APB1Periph_DAC.                
*                  NewState: ENABLE or DISABLE.
* Return         : None
*******************************************************************************/	
void RCC_APB1PeriphClockCmd(uint32_t RCC_APB1Periph, FunctionalState NewState)
{
     e42:	1101                	addi	sp,sp,-32
     e44:	ce22                	sw	s0,28(sp)
     e46:	1000                	addi	s0,sp,32
     e48:	fea42623          	sw	a0,-20(s0)
     e4c:	feb42423          	sw	a1,-24(s0)
D:\WCH\代码\3-PIT%20Demo\obj/../Libraries/wch_libraries/Peripheral/ch32v10x_rcc.c:604
  if (NewState != DISABLE)
     e50:	fe842783          	lw	a5,-24(s0)
     e54:	cb99                	beqz	a5,e6a <RCC_APB1PeriphClockCmd+0x28>
D:\WCH\代码\3-PIT%20Demo\obj/../Libraries/wch_libraries/Peripheral/ch32v10x_rcc.c:606
  {
    RCC->APB1PCENR |= RCC_APB1Periph;
     e56:	400217b7          	lui	a5,0x40021
     e5a:	4fd4                	lw	a3,28(a5)
     e5c:	400217b7          	lui	a5,0x40021
     e60:	fec42703          	lw	a4,-20(s0)
     e64:	8f55                	or	a4,a4,a3
     e66:	cfd8                	sw	a4,28(a5)
D:\WCH\代码\3-PIT%20Demo\obj/../Libraries/wch_libraries/Peripheral/ch32v10x_rcc.c:612
  }
  else
  {
    RCC->APB1PCENR &= ~RCC_APB1Periph;
  }
}
     e68:	a821                	j	e80 <RCC_APB1PeriphClockCmd+0x3e>
D:\WCH\代码\3-PIT%20Demo\obj/../Libraries/wch_libraries/Peripheral/ch32v10x_rcc.c:610
    RCC->APB1PCENR &= ~RCC_APB1Periph;
     e6a:	400217b7          	lui	a5,0x40021
     e6e:	4fd4                	lw	a3,28(a5)
     e70:	fec42783          	lw	a5,-20(s0)
     e74:	fff7c713          	not	a4,a5
     e78:	400217b7          	lui	a5,0x40021
     e7c:	8f75                	and	a4,a4,a3
     e7e:	cfd8                	sw	a4,28(a5)
D:\WCH\代码\3-PIT%20Demo\obj/../Libraries/wch_libraries/Peripheral/ch32v10x_rcc.c:612
}
     e80:	0001                	nop
     e82:	4472                	lw	s0,28(sp)
     e84:	6105                	addi	sp,sp,32
     e86:	8082                	ret

00000e88 <TIM_TimeBaseInit>:
TIM_TimeBaseInit():
D:\WCH\代码\3-PIT%20Demo\obj/../Libraries/wch_libraries/Peripheral/ch32v10x_tim.c:67
*                  TIM_TimeBaseInitStruct: pointer to a TIM_TimeBaseInitTypeDef
*      structure.
* Return         : None
*******************************************************************************/
void TIM_TimeBaseInit(TIM_TypeDef* TIMx, TIM_TimeBaseInitTypeDef* TIM_TimeBaseInitStruct)
{
     e88:	7179                	addi	sp,sp,-48
     e8a:	d622                	sw	s0,44(sp)
     e8c:	1800                	addi	s0,sp,48
     e8e:	fca42e23          	sw	a0,-36(s0)
     e92:	fcb42c23          	sw	a1,-40(s0)
D:\WCH\代码\3-PIT%20Demo\obj/../Libraries/wch_libraries/Peripheral/ch32v10x_tim.c:68
  uint16_t tmpcr1 = 0;
     e96:	fe041723          	sh	zero,-18(s0)
D:\WCH\代码\3-PIT%20Demo\obj/../Libraries/wch_libraries/Peripheral/ch32v10x_tim.c:70

  tmpcr1 = TIMx->CTLR1;  
     e9a:	fdc42783          	lw	a5,-36(s0)
     e9e:	0007d783          	lhu	a5,0(a5) # 40021000 <_eusrstack+0x2001c000>
     ea2:	fef41723          	sh	a5,-18(s0)
D:\WCH\代码\3-PIT%20Demo\obj/../Libraries/wch_libraries/Peripheral/ch32v10x_tim.c:72

  if((TIMx == TIM1) || (TIMx == TIM2) || (TIMx == TIM3)|| (TIMx == TIM4)) 
     ea6:	fdc42703          	lw	a4,-36(s0)
     eaa:	400137b7          	lui	a5,0x40013
     eae:	c0078793          	addi	a5,a5,-1024 # 40012c00 <_eusrstack+0x2000dc00>
     eb2:	02f70863          	beq	a4,a5,ee2 <TIM_TimeBaseInit+0x5a>
D:\WCH\代码\3-PIT%20Demo\obj/../Libraries/wch_libraries/Peripheral/ch32v10x_tim.c:72 (discriminator 1)
     eb6:	fdc42703          	lw	a4,-36(s0)
     eba:	400007b7          	lui	a5,0x40000
     ebe:	02f70263          	beq	a4,a5,ee2 <TIM_TimeBaseInit+0x5a>
D:\WCH\代码\3-PIT%20Demo\obj/../Libraries/wch_libraries/Peripheral/ch32v10x_tim.c:72 (discriminator 2)
     ec2:	fdc42703          	lw	a4,-36(s0)
     ec6:	400007b7          	lui	a5,0x40000
     eca:	40078793          	addi	a5,a5,1024 # 40000400 <_eusrstack+0x1fffb400>
     ece:	00f70a63          	beq	a4,a5,ee2 <TIM_TimeBaseInit+0x5a>
D:\WCH\代码\3-PIT%20Demo\obj/../Libraries/wch_libraries/Peripheral/ch32v10x_tim.c:72 (discriminator 3)
     ed2:	fdc42703          	lw	a4,-36(s0)
     ed6:	400017b7          	lui	a5,0x40001
     eda:	80078793          	addi	a5,a5,-2048 # 40000800 <_eusrstack+0x1fffb800>
     ede:	02f71163          	bne	a4,a5,f00 <TIM_TimeBaseInit+0x78>
D:\WCH\代码\3-PIT%20Demo\obj/../Libraries/wch_libraries/Peripheral/ch32v10x_tim.c:74
  {
    tmpcr1 &= (uint16_t)(~((uint16_t)(TIM_DIR | TIM_CMS)));
     ee2:	fee45783          	lhu	a5,-18(s0)
     ee6:	f8f7f793          	andi	a5,a5,-113
     eea:	fef41723          	sh	a5,-18(s0)
D:\WCH\代码\3-PIT%20Demo\obj/../Libraries/wch_libraries/Peripheral/ch32v10x_tim.c:75
    tmpcr1 |= (uint32_t)TIM_TimeBaseInitStruct->TIM_CounterMode;
     eee:	fd842783          	lw	a5,-40(s0)
     ef2:	0027d703          	lhu	a4,2(a5)
     ef6:	fee45783          	lhu	a5,-18(s0)
     efa:	8fd9                	or	a5,a5,a4
     efc:	fef41723          	sh	a5,-18(s0)
D:\WCH\代码\3-PIT%20Demo\obj/../Libraries/wch_libraries/Peripheral/ch32v10x_tim.c:78
  }

  tmpcr1 &= (uint16_t)(~((uint16_t)TIM_CTLR1_CKD));
     f00:	fee45783          	lhu	a5,-18(s0)
     f04:	cff7f793          	andi	a5,a5,-769
     f08:	fef41723          	sh	a5,-18(s0)
D:\WCH\代码\3-PIT%20Demo\obj/../Libraries/wch_libraries/Peripheral/ch32v10x_tim.c:79
  tmpcr1 |= (uint32_t)TIM_TimeBaseInitStruct->TIM_ClockDivision;
     f0c:	fd842783          	lw	a5,-40(s0)
     f10:	0067d703          	lhu	a4,6(a5)
     f14:	fee45783          	lhu	a5,-18(s0)
     f18:	8fd9                	or	a5,a5,a4
     f1a:	fef41723          	sh	a5,-18(s0)
D:\WCH\代码\3-PIT%20Demo\obj/../Libraries/wch_libraries/Peripheral/ch32v10x_tim.c:81

  TIMx->CTLR1 = tmpcr1;
     f1e:	fdc42783          	lw	a5,-36(s0)
     f22:	fee45703          	lhu	a4,-18(s0)
     f26:	00e79023          	sh	a4,0(a5)
D:\WCH\代码\3-PIT%20Demo\obj/../Libraries/wch_libraries/Peripheral/ch32v10x_tim.c:82
  TIMx->ATRLR = TIM_TimeBaseInitStruct->TIM_Period ;
     f2a:	fd842783          	lw	a5,-40(s0)
     f2e:	0047d703          	lhu	a4,4(a5)
     f32:	fdc42783          	lw	a5,-36(s0)
     f36:	02e79623          	sh	a4,44(a5)
D:\WCH\代码\3-PIT%20Demo\obj/../Libraries/wch_libraries/Peripheral/ch32v10x_tim.c:83
  TIMx->PSC = TIM_TimeBaseInitStruct->TIM_Prescaler;
     f3a:	fd842783          	lw	a5,-40(s0)
     f3e:	0007d703          	lhu	a4,0(a5)
     f42:	fdc42783          	lw	a5,-36(s0)
     f46:	02e79423          	sh	a4,40(a5)
D:\WCH\代码\3-PIT%20Demo\obj/../Libraries/wch_libraries/Peripheral/ch32v10x_tim.c:85
    
  if (TIMx == TIM1)  
     f4a:	fdc42703          	lw	a4,-36(s0)
     f4e:	400137b7          	lui	a5,0x40013
     f52:	c0078793          	addi	a5,a5,-1024 # 40012c00 <_eusrstack+0x2000dc00>
     f56:	00f71d63          	bne	a4,a5,f70 <TIM_TimeBaseInit+0xe8>
D:\WCH\代码\3-PIT%20Demo\obj/../Libraries/wch_libraries/Peripheral/ch32v10x_tim.c:87
  {
    TIMx->RPTCR = TIM_TimeBaseInitStruct->TIM_RepetitionCounter;
     f5a:	fd842783          	lw	a5,-40(s0)
     f5e:	0087c783          	lbu	a5,8(a5)
     f62:	01079713          	slli	a4,a5,0x10
     f66:	8341                	srli	a4,a4,0x10
     f68:	fdc42783          	lw	a5,-36(s0)
     f6c:	02e79823          	sh	a4,48(a5)
D:\WCH\代码\3-PIT%20Demo\obj/../Libraries/wch_libraries/Peripheral/ch32v10x_tim.c:90
  }

  TIMx->SWEVGR = TIM_PSCReloadMode_Immediate;           
     f70:	fdc42783          	lw	a5,-36(s0)
     f74:	4705                	li	a4,1
     f76:	00e79a23          	sh	a4,20(a5)
D:\WCH\代码\3-PIT%20Demo\obj/../Libraries/wch_libraries/Peripheral/ch32v10x_tim.c:91
}
     f7a:	0001                	nop
     f7c:	5432                	lw	s0,44(sp)
     f7e:	6145                	addi	sp,sp,48
     f80:	8082                	ret

00000f82 <TIM_OC1Init>:
TIM_OC1Init():
D:\WCH\代码\3-PIT%20Demo\obj/../Libraries/wch_libraries/Peripheral/ch32v10x_tim.c:102
* Input          : TIMx: where x can be 1 to 4 to select the TIM peripheral.
*                  TIM_OCInitStruct: pointer to a TIM_OCInitTypeDef structure.
* Return         : None
*******************************************************************************/
void TIM_OC1Init(TIM_TypeDef* TIMx, TIM_OCInitTypeDef* TIM_OCInitStruct)
{
     f82:	7179                	addi	sp,sp,-48
     f84:	d622                	sw	s0,44(sp)
     f86:	1800                	addi	s0,sp,48
     f88:	fca42e23          	sw	a0,-36(s0)
     f8c:	fcb42c23          	sw	a1,-40(s0)
D:\WCH\代码\3-PIT%20Demo\obj/../Libraries/wch_libraries/Peripheral/ch32v10x_tim.c:103
  uint16_t tmpccmrx = 0, tmpccer = 0, tmpcr2 = 0;
     f90:	fe041523          	sh	zero,-22(s0)
     f94:	fe041723          	sh	zero,-18(s0)
     f98:	fe041623          	sh	zero,-20(s0)
D:\WCH\代码\3-PIT%20Demo\obj/../Libraries/wch_libraries/Peripheral/ch32v10x_tim.c:105
     
  TIMx->CCER &= (uint16_t)(~(uint16_t)TIM_CC1E);
     f9c:	fdc42783          	lw	a5,-36(s0)
     fa0:	0207d783          	lhu	a5,32(a5)
     fa4:	07c2                	slli	a5,a5,0x10
     fa6:	83c1                	srli	a5,a5,0x10
     fa8:	9bf9                	andi	a5,a5,-2
     faa:	01079713          	slli	a4,a5,0x10
     fae:	8341                	srli	a4,a4,0x10
     fb0:	fdc42783          	lw	a5,-36(s0)
     fb4:	02e79023          	sh	a4,32(a5)
D:\WCH\代码\3-PIT%20Demo\obj/../Libraries/wch_libraries/Peripheral/ch32v10x_tim.c:106
  tmpccer = TIMx->CCER;
     fb8:	fdc42783          	lw	a5,-36(s0)
     fbc:	0207d783          	lhu	a5,32(a5)
     fc0:	fef41723          	sh	a5,-18(s0)
D:\WCH\代码\3-PIT%20Demo\obj/../Libraries/wch_libraries/Peripheral/ch32v10x_tim.c:107
  tmpcr2 =  TIMx->CTLR2;
     fc4:	fdc42783          	lw	a5,-36(s0)
     fc8:	0047d783          	lhu	a5,4(a5)
     fcc:	fef41623          	sh	a5,-20(s0)
D:\WCH\代码\3-PIT%20Demo\obj/../Libraries/wch_libraries/Peripheral/ch32v10x_tim.c:108
  tmpccmrx = TIMx->CHCTLR1;
     fd0:	fdc42783          	lw	a5,-36(s0)
     fd4:	0187d783          	lhu	a5,24(a5)
     fd8:	fef41523          	sh	a5,-22(s0)
D:\WCH\代码\3-PIT%20Demo\obj/../Libraries/wch_libraries/Peripheral/ch32v10x_tim.c:109
  tmpccmrx &= (uint16_t)(~((uint16_t)TIM_OC1M));
     fdc:	fea45783          	lhu	a5,-22(s0)
     fe0:	f8f7f793          	andi	a5,a5,-113
     fe4:	fef41523          	sh	a5,-22(s0)
D:\WCH\代码\3-PIT%20Demo\obj/../Libraries/wch_libraries/Peripheral/ch32v10x_tim.c:110
  tmpccmrx &= (uint16_t)(~((uint16_t)TIM_CC1S));
     fe8:	fea45783          	lhu	a5,-22(s0)
     fec:	9bf1                	andi	a5,a5,-4
     fee:	fef41523          	sh	a5,-22(s0)
D:\WCH\代码\3-PIT%20Demo\obj/../Libraries/wch_libraries/Peripheral/ch32v10x_tim.c:111
  tmpccmrx |= TIM_OCInitStruct->TIM_OCMode;
     ff2:	fd842783          	lw	a5,-40(s0)
     ff6:	0007d703          	lhu	a4,0(a5)
     ffa:	fea45783          	lhu	a5,-22(s0)
     ffe:	8fd9                	or	a5,a5,a4
    1000:	fef41523          	sh	a5,-22(s0)
D:\WCH\代码\3-PIT%20Demo\obj/../Libraries/wch_libraries/Peripheral/ch32v10x_tim.c:112
  tmpccer &= (uint16_t)(~((uint16_t)TIM_CC1P));
    1004:	fee45783          	lhu	a5,-18(s0)
    1008:	9bf5                	andi	a5,a5,-3
    100a:	fef41723          	sh	a5,-18(s0)
D:\WCH\代码\3-PIT%20Demo\obj/../Libraries/wch_libraries/Peripheral/ch32v10x_tim.c:113
  tmpccer |= TIM_OCInitStruct->TIM_OCPolarity;
    100e:	fd842783          	lw	a5,-40(s0)
    1012:	0087d703          	lhu	a4,8(a5)
    1016:	fee45783          	lhu	a5,-18(s0)
    101a:	8fd9                	or	a5,a5,a4
    101c:	fef41723          	sh	a5,-18(s0)
D:\WCH\代码\3-PIT%20Demo\obj/../Libraries/wch_libraries/Peripheral/ch32v10x_tim.c:114
  tmpccer |= TIM_OCInitStruct->TIM_OutputState;
    1020:	fd842783          	lw	a5,-40(s0)
    1024:	0027d703          	lhu	a4,2(a5)
    1028:	fee45783          	lhu	a5,-18(s0)
    102c:	8fd9                	or	a5,a5,a4
    102e:	fef41723          	sh	a5,-18(s0)
D:\WCH\代码\3-PIT%20Demo\obj/../Libraries/wch_libraries/Peripheral/ch32v10x_tim.c:116
    
  if(TIMx == TIM1)
    1032:	fdc42703          	lw	a4,-36(s0)
    1036:	400137b7          	lui	a5,0x40013
    103a:	c0078793          	addi	a5,a5,-1024 # 40012c00 <_eusrstack+0x2000dc00>
    103e:	06f71c63          	bne	a4,a5,10b6 <TIM_OC1Init+0x134>
D:\WCH\代码\3-PIT%20Demo\obj/../Libraries/wch_libraries/Peripheral/ch32v10x_tim.c:118
  {
    tmpccer &= (uint16_t)(~((uint16_t)TIM_CC1NP));
    1042:	fee45783          	lhu	a5,-18(s0)
    1046:	9bdd                	andi	a5,a5,-9
    1048:	fef41723          	sh	a5,-18(s0)
D:\WCH\代码\3-PIT%20Demo\obj/../Libraries/wch_libraries/Peripheral/ch32v10x_tim.c:119
    tmpccer |= TIM_OCInitStruct->TIM_OCNPolarity;
    104c:	fd842783          	lw	a5,-40(s0)
    1050:	00a7d703          	lhu	a4,10(a5)
    1054:	fee45783          	lhu	a5,-18(s0)
    1058:	8fd9                	or	a5,a5,a4
    105a:	fef41723          	sh	a5,-18(s0)
D:\WCH\代码\3-PIT%20Demo\obj/../Libraries/wch_libraries/Peripheral/ch32v10x_tim.c:121
 
    tmpccer &= (uint16_t)(~((uint16_t)TIM_CC1NE));    
    105e:	fee45783          	lhu	a5,-18(s0)
    1062:	9bed                	andi	a5,a5,-5
    1064:	fef41723          	sh	a5,-18(s0)
D:\WCH\代码\3-PIT%20Demo\obj/../Libraries/wch_libraries/Peripheral/ch32v10x_tim.c:122
    tmpccer |= TIM_OCInitStruct->TIM_OutputNState;
    1068:	fd842783          	lw	a5,-40(s0)
    106c:	0047d703          	lhu	a4,4(a5)
    1070:	fee45783          	lhu	a5,-18(s0)
    1074:	8fd9                	or	a5,a5,a4
    1076:	fef41723          	sh	a5,-18(s0)
D:\WCH\代码\3-PIT%20Demo\obj/../Libraries/wch_libraries/Peripheral/ch32v10x_tim.c:124
    
    tmpcr2 &= (uint16_t)(~((uint16_t)TIM_OIS1));
    107a:	fec45783          	lhu	a5,-20(s0)
    107e:	eff7f793          	andi	a5,a5,-257
    1082:	fef41623          	sh	a5,-20(s0)
D:\WCH\代码\3-PIT%20Demo\obj/../Libraries/wch_libraries/Peripheral/ch32v10x_tim.c:125
    tmpcr2 &= (uint16_t)(~((uint16_t)TIM_OIS1N));
    1086:	fec45783          	lhu	a5,-20(s0)
    108a:	dff7f793          	andi	a5,a5,-513
    108e:	fef41623          	sh	a5,-20(s0)
D:\WCH\代码\3-PIT%20Demo\obj/../Libraries/wch_libraries/Peripheral/ch32v10x_tim.c:127
    
    tmpcr2 |= TIM_OCInitStruct->TIM_OCIdleState;
    1092:	fd842783          	lw	a5,-40(s0)
    1096:	00c7d703          	lhu	a4,12(a5)
    109a:	fec45783          	lhu	a5,-20(s0)
    109e:	8fd9                	or	a5,a5,a4
    10a0:	fef41623          	sh	a5,-20(s0)
D:\WCH\代码\3-PIT%20Demo\obj/../Libraries/wch_libraries/Peripheral/ch32v10x_tim.c:128
    tmpcr2 |= TIM_OCInitStruct->TIM_OCNIdleState;
    10a4:	fd842783          	lw	a5,-40(s0)
    10a8:	00e7d703          	lhu	a4,14(a5)
    10ac:	fec45783          	lhu	a5,-20(s0)
    10b0:	8fd9                	or	a5,a5,a4
    10b2:	fef41623          	sh	a5,-20(s0)
D:\WCH\代码\3-PIT%20Demo\obj/../Libraries/wch_libraries/Peripheral/ch32v10x_tim.c:131
  }

  TIMx->CTLR2 = tmpcr2;
    10b6:	fdc42783          	lw	a5,-36(s0)
    10ba:	fec45703          	lhu	a4,-20(s0)
    10be:	00e79223          	sh	a4,4(a5)
D:\WCH\代码\3-PIT%20Demo\obj/../Libraries/wch_libraries/Peripheral/ch32v10x_tim.c:132
  TIMx->CHCTLR1 = tmpccmrx;
    10c2:	fdc42783          	lw	a5,-36(s0)
    10c6:	fea45703          	lhu	a4,-22(s0)
    10ca:	00e79c23          	sh	a4,24(a5)
D:\WCH\代码\3-PIT%20Demo\obj/../Libraries/wch_libraries/Peripheral/ch32v10x_tim.c:133
  TIMx->CH1CVR = TIM_OCInitStruct->TIM_Pulse; 
    10ce:	fd842783          	lw	a5,-40(s0)
    10d2:	0067d703          	lhu	a4,6(a5)
    10d6:	fdc42783          	lw	a5,-36(s0)
    10da:	02e79a23          	sh	a4,52(a5)
D:\WCH\代码\3-PIT%20Demo\obj/../Libraries/wch_libraries/Peripheral/ch32v10x_tim.c:134
  TIMx->CCER = tmpccer;
    10de:	fdc42783          	lw	a5,-36(s0)
    10e2:	fee45703          	lhu	a4,-18(s0)
    10e6:	02e79023          	sh	a4,32(a5)
D:\WCH\代码\3-PIT%20Demo\obj/../Libraries/wch_libraries/Peripheral/ch32v10x_tim.c:135
}
    10ea:	0001                	nop
    10ec:	5432                	lw	s0,44(sp)
    10ee:	6145                	addi	sp,sp,48
    10f0:	8082                	ret

000010f2 <TIM_OC2Init>:
TIM_OC2Init():
D:\WCH\代码\3-PIT%20Demo\obj/../Libraries/wch_libraries/Peripheral/ch32v10x_tim.c:146
* Input          : TIMx: where x can be 1 to 4 to select the TIM peripheral.
*                  TIM_OCInitStruct: pointer to a TIM_OCInitTypeDef structure.
* Return         : None
*******************************************************************************/
void TIM_OC2Init(TIM_TypeDef* TIMx, TIM_OCInitTypeDef* TIM_OCInitStruct)
{
    10f2:	7179                	addi	sp,sp,-48
    10f4:	d622                	sw	s0,44(sp)
    10f6:	1800                	addi	s0,sp,48
    10f8:	fca42e23          	sw	a0,-36(s0)
    10fc:	fcb42c23          	sw	a1,-40(s0)
D:\WCH\代码\3-PIT%20Demo\obj/../Libraries/wch_libraries/Peripheral/ch32v10x_tim.c:147
  uint16_t tmpccmrx = 0, tmpccer = 0, tmpcr2 = 0;
    1100:	fe041523          	sh	zero,-22(s0)
    1104:	fe041723          	sh	zero,-18(s0)
    1108:	fe041623          	sh	zero,-20(s0)
D:\WCH\代码\3-PIT%20Demo\obj/../Libraries/wch_libraries/Peripheral/ch32v10x_tim.c:149
   
  TIMx->CCER &= (uint16_t)(~((uint16_t)TIM_CC2E)); 
    110c:	fdc42783          	lw	a5,-36(s0)
    1110:	0207d783          	lhu	a5,32(a5)
    1114:	07c2                	slli	a5,a5,0x10
    1116:	83c1                	srli	a5,a5,0x10
    1118:	9bbd                	andi	a5,a5,-17
    111a:	01079713          	slli	a4,a5,0x10
    111e:	8341                	srli	a4,a4,0x10
    1120:	fdc42783          	lw	a5,-36(s0)
    1124:	02e79023          	sh	a4,32(a5)
D:\WCH\代码\3-PIT%20Demo\obj/../Libraries/wch_libraries/Peripheral/ch32v10x_tim.c:150
  tmpccer = TIMx->CCER;
    1128:	fdc42783          	lw	a5,-36(s0)
    112c:	0207d783          	lhu	a5,32(a5)
    1130:	fef41723          	sh	a5,-18(s0)
D:\WCH\代码\3-PIT%20Demo\obj/../Libraries/wch_libraries/Peripheral/ch32v10x_tim.c:151
  tmpcr2 =  TIMx->CTLR2;
    1134:	fdc42783          	lw	a5,-36(s0)
    1138:	0047d783          	lhu	a5,4(a5)
    113c:	fef41623          	sh	a5,-20(s0)
D:\WCH\代码\3-PIT%20Demo\obj/../Libraries/wch_libraries/Peripheral/ch32v10x_tim.c:152
  tmpccmrx = TIMx->CHCTLR1;
    1140:	fdc42783          	lw	a5,-36(s0)
    1144:	0187d783          	lhu	a5,24(a5)
    1148:	fef41523          	sh	a5,-22(s0)
D:\WCH\代码\3-PIT%20Demo\obj/../Libraries/wch_libraries/Peripheral/ch32v10x_tim.c:153
  tmpccmrx &= (uint16_t)(~((uint16_t)TIM_OC2M));
    114c:	fea45703          	lhu	a4,-22(s0)
    1150:	77e5                	lui	a5,0xffff9
    1152:	17fd                	addi	a5,a5,-1
    1154:	8ff9                	and	a5,a5,a4
    1156:	fef41523          	sh	a5,-22(s0)
D:\WCH\代码\3-PIT%20Demo\obj/../Libraries/wch_libraries/Peripheral/ch32v10x_tim.c:154
  tmpccmrx &= (uint16_t)(~((uint16_t)TIM_CC2S));
    115a:	fea45783          	lhu	a5,-22(s0)
    115e:	cff7f793          	andi	a5,a5,-769
    1162:	fef41523          	sh	a5,-22(s0)
D:\WCH\代码\3-PIT%20Demo\obj/../Libraries/wch_libraries/Peripheral/ch32v10x_tim.c:155
  tmpccmrx |= (uint16_t)(TIM_OCInitStruct->TIM_OCMode << 8);
    1166:	fd842783          	lw	a5,-40(s0)
    116a:	0007d783          	lhu	a5,0(a5) # ffff9000 <_eusrstack+0xdfff4000>
    116e:	07a2                	slli	a5,a5,0x8
    1170:	01079713          	slli	a4,a5,0x10
    1174:	8341                	srli	a4,a4,0x10
    1176:	fea45783          	lhu	a5,-22(s0)
    117a:	8fd9                	or	a5,a5,a4
    117c:	fef41523          	sh	a5,-22(s0)
D:\WCH\代码\3-PIT%20Demo\obj/../Libraries/wch_libraries/Peripheral/ch32v10x_tim.c:156
  tmpccer &= (uint16_t)(~((uint16_t)TIM_CC2P));
    1180:	fee45783          	lhu	a5,-18(s0)
    1184:	fdf7f793          	andi	a5,a5,-33
    1188:	fef41723          	sh	a5,-18(s0)
D:\WCH\代码\3-PIT%20Demo\obj/../Libraries/wch_libraries/Peripheral/ch32v10x_tim.c:157
  tmpccer |= (uint16_t)(TIM_OCInitStruct->TIM_OCPolarity << 4);
    118c:	fd842783          	lw	a5,-40(s0)
    1190:	0087d783          	lhu	a5,8(a5)
    1194:	0792                	slli	a5,a5,0x4
    1196:	01079713          	slli	a4,a5,0x10
    119a:	8341                	srli	a4,a4,0x10
    119c:	fee45783          	lhu	a5,-18(s0)
    11a0:	8fd9                	or	a5,a5,a4
    11a2:	fef41723          	sh	a5,-18(s0)
D:\WCH\代码\3-PIT%20Demo\obj/../Libraries/wch_libraries/Peripheral/ch32v10x_tim.c:158
  tmpccer |= (uint16_t)(TIM_OCInitStruct->TIM_OutputState << 4);
    11a6:	fd842783          	lw	a5,-40(s0)
    11aa:	0027d783          	lhu	a5,2(a5)
    11ae:	0792                	slli	a5,a5,0x4
    11b0:	01079713          	slli	a4,a5,0x10
    11b4:	8341                	srli	a4,a4,0x10
    11b6:	fee45783          	lhu	a5,-18(s0)
    11ba:	8fd9                	or	a5,a5,a4
    11bc:	fef41723          	sh	a5,-18(s0)
D:\WCH\代码\3-PIT%20Demo\obj/../Libraries/wch_libraries/Peripheral/ch32v10x_tim.c:160
    
  if(TIMx == TIM1)
    11c0:	fdc42703          	lw	a4,-36(s0)
    11c4:	400137b7          	lui	a5,0x40013
    11c8:	c0078793          	addi	a5,a5,-1024 # 40012c00 <_eusrstack+0x2000dc00>
    11cc:	0af71063          	bne	a4,a5,126c <TIM_OC2Init+0x17a>
D:\WCH\代码\3-PIT%20Demo\obj/../Libraries/wch_libraries/Peripheral/ch32v10x_tim.c:162
  {
    tmpccer &= (uint16_t)(~((uint16_t)TIM_CC2NP));
    11d0:	fee45783          	lhu	a5,-18(s0)
    11d4:	f7f7f793          	andi	a5,a5,-129
    11d8:	fef41723          	sh	a5,-18(s0)
D:\WCH\代码\3-PIT%20Demo\obj/../Libraries/wch_libraries/Peripheral/ch32v10x_tim.c:163
    tmpccer |= (uint16_t)(TIM_OCInitStruct->TIM_OCNPolarity << 4);
    11dc:	fd842783          	lw	a5,-40(s0)
    11e0:	00a7d783          	lhu	a5,10(a5)
    11e4:	0792                	slli	a5,a5,0x4
    11e6:	01079713          	slli	a4,a5,0x10
    11ea:	8341                	srli	a4,a4,0x10
    11ec:	fee45783          	lhu	a5,-18(s0)
    11f0:	8fd9                	or	a5,a5,a4
    11f2:	fef41723          	sh	a5,-18(s0)
D:\WCH\代码\3-PIT%20Demo\obj/../Libraries/wch_libraries/Peripheral/ch32v10x_tim.c:164
    tmpccer &= (uint16_t)(~((uint16_t)TIM_CC2NE));    
    11f6:	fee45783          	lhu	a5,-18(s0)
    11fa:	fbf7f793          	andi	a5,a5,-65
    11fe:	fef41723          	sh	a5,-18(s0)
D:\WCH\代码\3-PIT%20Demo\obj/../Libraries/wch_libraries/Peripheral/ch32v10x_tim.c:165
    tmpccer |= (uint16_t)(TIM_OCInitStruct->TIM_OutputNState << 4);
    1202:	fd842783          	lw	a5,-40(s0)
    1206:	0047d783          	lhu	a5,4(a5)
    120a:	0792                	slli	a5,a5,0x4
    120c:	01079713          	slli	a4,a5,0x10
    1210:	8341                	srli	a4,a4,0x10
    1212:	fee45783          	lhu	a5,-18(s0)
    1216:	8fd9                	or	a5,a5,a4
    1218:	fef41723          	sh	a5,-18(s0)
D:\WCH\代码\3-PIT%20Demo\obj/../Libraries/wch_libraries/Peripheral/ch32v10x_tim.c:167
    
    tmpcr2 &= (uint16_t)(~((uint16_t)TIM_OIS2));
    121c:	fec45783          	lhu	a5,-20(s0)
    1220:	bff7f793          	andi	a5,a5,-1025
    1224:	fef41623          	sh	a5,-20(s0)
D:\WCH\代码\3-PIT%20Demo\obj/../Libraries/wch_libraries/Peripheral/ch32v10x_tim.c:168
    tmpcr2 &= (uint16_t)(~((uint16_t)TIM_OIS2N));
    1228:	fec45703          	lhu	a4,-20(s0)
    122c:	77fd                	lui	a5,0xfffff
    122e:	7ff78793          	addi	a5,a5,2047 # fffff7ff <_eusrstack+0xdfffa7ff>
    1232:	8ff9                	and	a5,a5,a4
    1234:	fef41623          	sh	a5,-20(s0)
D:\WCH\代码\3-PIT%20Demo\obj/../Libraries/wch_libraries/Peripheral/ch32v10x_tim.c:169
    tmpcr2 |= (uint16_t)(TIM_OCInitStruct->TIM_OCIdleState << 2);
    1238:	fd842783          	lw	a5,-40(s0)
    123c:	00c7d783          	lhu	a5,12(a5)
    1240:	078a                	slli	a5,a5,0x2
    1242:	01079713          	slli	a4,a5,0x10
    1246:	8341                	srli	a4,a4,0x10
    1248:	fec45783          	lhu	a5,-20(s0)
    124c:	8fd9                	or	a5,a5,a4
    124e:	fef41623          	sh	a5,-20(s0)
D:\WCH\代码\3-PIT%20Demo\obj/../Libraries/wch_libraries/Peripheral/ch32v10x_tim.c:170
    tmpcr2 |= (uint16_t)(TIM_OCInitStruct->TIM_OCNIdleState << 2);
    1252:	fd842783          	lw	a5,-40(s0)
    1256:	00e7d783          	lhu	a5,14(a5)
    125a:	078a                	slli	a5,a5,0x2
    125c:	01079713          	slli	a4,a5,0x10
    1260:	8341                	srli	a4,a4,0x10
    1262:	fec45783          	lhu	a5,-20(s0)
    1266:	8fd9                	or	a5,a5,a4
    1268:	fef41623          	sh	a5,-20(s0)
D:\WCH\代码\3-PIT%20Demo\obj/../Libraries/wch_libraries/Peripheral/ch32v10x_tim.c:173
  }

  TIMx->CTLR2 = tmpcr2;
    126c:	fdc42783          	lw	a5,-36(s0)
    1270:	fec45703          	lhu	a4,-20(s0)
    1274:	00e79223          	sh	a4,4(a5)
D:\WCH\代码\3-PIT%20Demo\obj/../Libraries/wch_libraries/Peripheral/ch32v10x_tim.c:174
  TIMx->CHCTLR1 = tmpccmrx;
    1278:	fdc42783          	lw	a5,-36(s0)
    127c:	fea45703          	lhu	a4,-22(s0)
    1280:	00e79c23          	sh	a4,24(a5)
D:\WCH\代码\3-PIT%20Demo\obj/../Libraries/wch_libraries/Peripheral/ch32v10x_tim.c:175
  TIMx->CH2CVR = TIM_OCInitStruct->TIM_Pulse;
    1284:	fd842783          	lw	a5,-40(s0)
    1288:	0067d703          	lhu	a4,6(a5)
    128c:	fdc42783          	lw	a5,-36(s0)
    1290:	02e79c23          	sh	a4,56(a5)
D:\WCH\代码\3-PIT%20Demo\obj/../Libraries/wch_libraries/Peripheral/ch32v10x_tim.c:176
  TIMx->CCER = tmpccer;
    1294:	fdc42783          	lw	a5,-36(s0)
    1298:	fee45703          	lhu	a4,-18(s0)
    129c:	02e79023          	sh	a4,32(a5)
D:\WCH\代码\3-PIT%20Demo\obj/../Libraries/wch_libraries/Peripheral/ch32v10x_tim.c:177
}
    12a0:	0001                	nop
    12a2:	5432                	lw	s0,44(sp)
    12a4:	6145                	addi	sp,sp,48
    12a6:	8082                	ret

000012a8 <TIM_OC3Init>:
TIM_OC3Init():
D:\WCH\代码\3-PIT%20Demo\obj/../Libraries/wch_libraries/Peripheral/ch32v10x_tim.c:188
* Input          : TIMx: where x can be 1 to 4 to select the TIM peripheral.
*                  TIM_OCInitStruct: pointer to a TIM_OCInitTypeDef structure.
* Return         : None
*******************************************************************************/
void TIM_OC3Init(TIM_TypeDef* TIMx, TIM_OCInitTypeDef* TIM_OCInitStruct)
{
    12a8:	7179                	addi	sp,sp,-48
    12aa:	d622                	sw	s0,44(sp)
    12ac:	1800                	addi	s0,sp,48
    12ae:	fca42e23          	sw	a0,-36(s0)
    12b2:	fcb42c23          	sw	a1,-40(s0)
D:\WCH\代码\3-PIT%20Demo\obj/../Libraries/wch_libraries/Peripheral/ch32v10x_tim.c:189
  uint16_t tmpccmrx = 0, tmpccer = 0, tmpcr2 = 0;
    12b6:	fe041523          	sh	zero,-22(s0)
    12ba:	fe041723          	sh	zero,-18(s0)
    12be:	fe041623          	sh	zero,-20(s0)
D:\WCH\代码\3-PIT%20Demo\obj/../Libraries/wch_libraries/Peripheral/ch32v10x_tim.c:191
   
  TIMx->CCER &= (uint16_t)(~((uint16_t)TIM_CC3E));
    12c2:	fdc42783          	lw	a5,-36(s0)
    12c6:	0207d783          	lhu	a5,32(a5)
    12ca:	07c2                	slli	a5,a5,0x10
    12cc:	83c1                	srli	a5,a5,0x10
    12ce:	eff7f793          	andi	a5,a5,-257
    12d2:	01079713          	slli	a4,a5,0x10
    12d6:	8341                	srli	a4,a4,0x10
    12d8:	fdc42783          	lw	a5,-36(s0)
    12dc:	02e79023          	sh	a4,32(a5)
D:\WCH\代码\3-PIT%20Demo\obj/../Libraries/wch_libraries/Peripheral/ch32v10x_tim.c:192
  tmpccer = TIMx->CCER;
    12e0:	fdc42783          	lw	a5,-36(s0)
    12e4:	0207d783          	lhu	a5,32(a5)
    12e8:	fef41723          	sh	a5,-18(s0)
D:\WCH\代码\3-PIT%20Demo\obj/../Libraries/wch_libraries/Peripheral/ch32v10x_tim.c:193
  tmpcr2 =  TIMx->CTLR2;
    12ec:	fdc42783          	lw	a5,-36(s0)
    12f0:	0047d783          	lhu	a5,4(a5)
    12f4:	fef41623          	sh	a5,-20(s0)
D:\WCH\代码\3-PIT%20Demo\obj/../Libraries/wch_libraries/Peripheral/ch32v10x_tim.c:194
  tmpccmrx = TIMx->CHCTLR2;
    12f8:	fdc42783          	lw	a5,-36(s0)
    12fc:	01c7d783          	lhu	a5,28(a5)
    1300:	fef41523          	sh	a5,-22(s0)
D:\WCH\代码\3-PIT%20Demo\obj/../Libraries/wch_libraries/Peripheral/ch32v10x_tim.c:195
  tmpccmrx &= (uint16_t)(~((uint16_t)TIM_OC3M));
    1304:	fea45783          	lhu	a5,-22(s0)
    1308:	f8f7f793          	andi	a5,a5,-113
    130c:	fef41523          	sh	a5,-22(s0)
D:\WCH\代码\3-PIT%20Demo\obj/../Libraries/wch_libraries/Peripheral/ch32v10x_tim.c:196
  tmpccmrx &= (uint16_t)(~((uint16_t)TIM_CC3S));  
    1310:	fea45783          	lhu	a5,-22(s0)
    1314:	9bf1                	andi	a5,a5,-4
    1316:	fef41523          	sh	a5,-22(s0)
D:\WCH\代码\3-PIT%20Demo\obj/../Libraries/wch_libraries/Peripheral/ch32v10x_tim.c:197
  tmpccmrx |= TIM_OCInitStruct->TIM_OCMode;
    131a:	fd842783          	lw	a5,-40(s0)
    131e:	0007d703          	lhu	a4,0(a5)
    1322:	fea45783          	lhu	a5,-22(s0)
    1326:	8fd9                	or	a5,a5,a4
    1328:	fef41523          	sh	a5,-22(s0)
D:\WCH\代码\3-PIT%20Demo\obj/../Libraries/wch_libraries/Peripheral/ch32v10x_tim.c:198
  tmpccer &= (uint16_t)(~((uint16_t)TIM_CC3P));
    132c:	fee45783          	lhu	a5,-18(s0)
    1330:	dff7f793          	andi	a5,a5,-513
    1334:	fef41723          	sh	a5,-18(s0)
D:\WCH\代码\3-PIT%20Demo\obj/../Libraries/wch_libraries/Peripheral/ch32v10x_tim.c:199
  tmpccer |= (uint16_t)(TIM_OCInitStruct->TIM_OCPolarity << 8);
    1338:	fd842783          	lw	a5,-40(s0)
    133c:	0087d783          	lhu	a5,8(a5)
    1340:	07a2                	slli	a5,a5,0x8
    1342:	01079713          	slli	a4,a5,0x10
    1346:	8341                	srli	a4,a4,0x10
    1348:	fee45783          	lhu	a5,-18(s0)
    134c:	8fd9                	or	a5,a5,a4
    134e:	fef41723          	sh	a5,-18(s0)
D:\WCH\代码\3-PIT%20Demo\obj/../Libraries/wch_libraries/Peripheral/ch32v10x_tim.c:200
  tmpccer |= (uint16_t)(TIM_OCInitStruct->TIM_OutputState << 8);
    1352:	fd842783          	lw	a5,-40(s0)
    1356:	0027d783          	lhu	a5,2(a5)
    135a:	07a2                	slli	a5,a5,0x8
    135c:	01079713          	slli	a4,a5,0x10
    1360:	8341                	srli	a4,a4,0x10
    1362:	fee45783          	lhu	a5,-18(s0)
    1366:	8fd9                	or	a5,a5,a4
    1368:	fef41723          	sh	a5,-18(s0)
D:\WCH\代码\3-PIT%20Demo\obj/../Libraries/wch_libraries/Peripheral/ch32v10x_tim.c:202
    
  if(TIMx == TIM1)
    136c:	fdc42703          	lw	a4,-36(s0)
    1370:	400137b7          	lui	a5,0x40013
    1374:	c0078793          	addi	a5,a5,-1024 # 40012c00 <_eusrstack+0x2000dc00>
    1378:	0af71263          	bne	a4,a5,141c <TIM_OC3Init+0x174>
D:\WCH\代码\3-PIT%20Demo\obj/../Libraries/wch_libraries/Peripheral/ch32v10x_tim.c:204
  {
    tmpccer &= (uint16_t)(~((uint16_t)TIM_CC3NP));
    137c:	fee45703          	lhu	a4,-18(s0)
    1380:	77fd                	lui	a5,0xfffff
    1382:	7ff78793          	addi	a5,a5,2047 # fffff7ff <_eusrstack+0xdfffa7ff>
    1386:	8ff9                	and	a5,a5,a4
    1388:	fef41723          	sh	a5,-18(s0)
D:\WCH\代码\3-PIT%20Demo\obj/../Libraries/wch_libraries/Peripheral/ch32v10x_tim.c:205
    tmpccer |= (uint16_t)(TIM_OCInitStruct->TIM_OCNPolarity << 8);
    138c:	fd842783          	lw	a5,-40(s0)
    1390:	00a7d783          	lhu	a5,10(a5)
    1394:	07a2                	slli	a5,a5,0x8
    1396:	01079713          	slli	a4,a5,0x10
    139a:	8341                	srli	a4,a4,0x10
    139c:	fee45783          	lhu	a5,-18(s0)
    13a0:	8fd9                	or	a5,a5,a4
    13a2:	fef41723          	sh	a5,-18(s0)
D:\WCH\代码\3-PIT%20Demo\obj/../Libraries/wch_libraries/Peripheral/ch32v10x_tim.c:206
    tmpccer &= (uint16_t)(~((uint16_t)TIM_CC3NE));
    13a6:	fee45783          	lhu	a5,-18(s0)
    13aa:	bff7f793          	andi	a5,a5,-1025
    13ae:	fef41723          	sh	a5,-18(s0)
D:\WCH\代码\3-PIT%20Demo\obj/../Libraries/wch_libraries/Peripheral/ch32v10x_tim.c:207
    tmpccer |= (uint16_t)(TIM_OCInitStruct->TIM_OutputNState << 8);
    13b2:	fd842783          	lw	a5,-40(s0)
    13b6:	0047d783          	lhu	a5,4(a5)
    13ba:	07a2                	slli	a5,a5,0x8
    13bc:	01079713          	slli	a4,a5,0x10
    13c0:	8341                	srli	a4,a4,0x10
    13c2:	fee45783          	lhu	a5,-18(s0)
    13c6:	8fd9                	or	a5,a5,a4
    13c8:	fef41723          	sh	a5,-18(s0)
D:\WCH\代码\3-PIT%20Demo\obj/../Libraries/wch_libraries/Peripheral/ch32v10x_tim.c:208
    tmpcr2 &= (uint16_t)(~((uint16_t)TIM_OIS3));
    13cc:	fec45703          	lhu	a4,-20(s0)
    13d0:	77fd                	lui	a5,0xfffff
    13d2:	17fd                	addi	a5,a5,-1
    13d4:	8ff9                	and	a5,a5,a4
    13d6:	fef41623          	sh	a5,-20(s0)
D:\WCH\代码\3-PIT%20Demo\obj/../Libraries/wch_libraries/Peripheral/ch32v10x_tim.c:209
    tmpcr2 &= (uint16_t)(~((uint16_t)TIM_OIS3N));
    13da:	fec45703          	lhu	a4,-20(s0)
    13de:	77f9                	lui	a5,0xffffe
    13e0:	17fd                	addi	a5,a5,-1
    13e2:	8ff9                	and	a5,a5,a4
    13e4:	fef41623          	sh	a5,-20(s0)
D:\WCH\代码\3-PIT%20Demo\obj/../Libraries/wch_libraries/Peripheral/ch32v10x_tim.c:210
    tmpcr2 |= (uint16_t)(TIM_OCInitStruct->TIM_OCIdleState << 4);
    13e8:	fd842783          	lw	a5,-40(s0)
    13ec:	00c7d783          	lhu	a5,12(a5) # ffffe00c <_eusrstack+0xdfff900c>
    13f0:	0792                	slli	a5,a5,0x4
    13f2:	01079713          	slli	a4,a5,0x10
    13f6:	8341                	srli	a4,a4,0x10
    13f8:	fec45783          	lhu	a5,-20(s0)
    13fc:	8fd9                	or	a5,a5,a4
    13fe:	fef41623          	sh	a5,-20(s0)
D:\WCH\代码\3-PIT%20Demo\obj/../Libraries/wch_libraries/Peripheral/ch32v10x_tim.c:211
    tmpcr2 |= (uint16_t)(TIM_OCInitStruct->TIM_OCNIdleState << 4);
    1402:	fd842783          	lw	a5,-40(s0)
    1406:	00e7d783          	lhu	a5,14(a5)
    140a:	0792                	slli	a5,a5,0x4
    140c:	01079713          	slli	a4,a5,0x10
    1410:	8341                	srli	a4,a4,0x10
    1412:	fec45783          	lhu	a5,-20(s0)
    1416:	8fd9                	or	a5,a5,a4
    1418:	fef41623          	sh	a5,-20(s0)
D:\WCH\代码\3-PIT%20Demo\obj/../Libraries/wch_libraries/Peripheral/ch32v10x_tim.c:214
  }

  TIMx->CTLR2 = tmpcr2;
    141c:	fdc42783          	lw	a5,-36(s0)
    1420:	fec45703          	lhu	a4,-20(s0)
    1424:	00e79223          	sh	a4,4(a5)
D:\WCH\代码\3-PIT%20Demo\obj/../Libraries/wch_libraries/Peripheral/ch32v10x_tim.c:215
  TIMx->CHCTLR2 = tmpccmrx;
    1428:	fdc42783          	lw	a5,-36(s0)
    142c:	fea45703          	lhu	a4,-22(s0)
    1430:	00e79e23          	sh	a4,28(a5)
D:\WCH\代码\3-PIT%20Demo\obj/../Libraries/wch_libraries/Peripheral/ch32v10x_tim.c:216
  TIMx->CH3CVR = TIM_OCInitStruct->TIM_Pulse;
    1434:	fd842783          	lw	a5,-40(s0)
    1438:	0067d703          	lhu	a4,6(a5)
    143c:	fdc42783          	lw	a5,-36(s0)
    1440:	02e79e23          	sh	a4,60(a5)
D:\WCH\代码\3-PIT%20Demo\obj/../Libraries/wch_libraries/Peripheral/ch32v10x_tim.c:217
  TIMx->CCER = tmpccer;
    1444:	fdc42783          	lw	a5,-36(s0)
    1448:	fee45703          	lhu	a4,-18(s0)
    144c:	02e79023          	sh	a4,32(a5)
D:\WCH\代码\3-PIT%20Demo\obj/../Libraries/wch_libraries/Peripheral/ch32v10x_tim.c:218
}
    1450:	0001                	nop
    1452:	5432                	lw	s0,44(sp)
    1454:	6145                	addi	sp,sp,48
    1456:	8082                	ret

00001458 <TIM_OC4Init>:
TIM_OC4Init():
D:\WCH\代码\3-PIT%20Demo\obj/../Libraries/wch_libraries/Peripheral/ch32v10x_tim.c:229
* Input          : TIMx: where x can be 1 to 4 to select the TIM peripheral.
*                  TIM_OCInitStruct: pointer to a TIM_OCInitTypeDef structure.
* Return         : None
*******************************************************************************/
void TIM_OC4Init(TIM_TypeDef* TIMx, TIM_OCInitTypeDef* TIM_OCInitStruct)
{
    1458:	7179                	addi	sp,sp,-48
    145a:	d622                	sw	s0,44(sp)
    145c:	1800                	addi	s0,sp,48
    145e:	fca42e23          	sw	a0,-36(s0)
    1462:	fcb42c23          	sw	a1,-40(s0)
D:\WCH\代码\3-PIT%20Demo\obj/../Libraries/wch_libraries/Peripheral/ch32v10x_tim.c:230
  uint16_t tmpccmrx = 0, tmpccer = 0, tmpcr2 = 0;
    1466:	fe041623          	sh	zero,-20(s0)
    146a:	fe041523          	sh	zero,-22(s0)
    146e:	fe041723          	sh	zero,-18(s0)
D:\WCH\代码\3-PIT%20Demo\obj/../Libraries/wch_libraries/Peripheral/ch32v10x_tim.c:232

  TIMx->CCER &= (uint16_t)(~((uint16_t)TIM_CC4E));
    1472:	fdc42783          	lw	a5,-36(s0)
    1476:	0207d783          	lhu	a5,32(a5)
    147a:	01079713          	slli	a4,a5,0x10
    147e:	8341                	srli	a4,a4,0x10
    1480:	77fd                	lui	a5,0xfffff
    1482:	17fd                	addi	a5,a5,-1
    1484:	8ff9                	and	a5,a5,a4
    1486:	01079713          	slli	a4,a5,0x10
    148a:	8341                	srli	a4,a4,0x10
    148c:	fdc42783          	lw	a5,-36(s0)
    1490:	02e79023          	sh	a4,32(a5) # fffff020 <_eusrstack+0xdfffa020>
D:\WCH\代码\3-PIT%20Demo\obj/../Libraries/wch_libraries/Peripheral/ch32v10x_tim.c:233
  tmpccer = TIMx->CCER;
    1494:	fdc42783          	lw	a5,-36(s0)
    1498:	0207d783          	lhu	a5,32(a5)
    149c:	fef41523          	sh	a5,-22(s0)
D:\WCH\代码\3-PIT%20Demo\obj/../Libraries/wch_libraries/Peripheral/ch32v10x_tim.c:234
  tmpcr2 =  TIMx->CTLR2;
    14a0:	fdc42783          	lw	a5,-36(s0)
    14a4:	0047d783          	lhu	a5,4(a5)
    14a8:	fef41723          	sh	a5,-18(s0)
D:\WCH\代码\3-PIT%20Demo\obj/../Libraries/wch_libraries/Peripheral/ch32v10x_tim.c:235
  tmpccmrx = TIMx->CHCTLR2;
    14ac:	fdc42783          	lw	a5,-36(s0)
    14b0:	01c7d783          	lhu	a5,28(a5)
    14b4:	fef41623          	sh	a5,-20(s0)
D:\WCH\代码\3-PIT%20Demo\obj/../Libraries/wch_libraries/Peripheral/ch32v10x_tim.c:236
  tmpccmrx &= (uint16_t)(~((uint16_t)TIM_OC4M));
    14b8:	fec45703          	lhu	a4,-20(s0)
    14bc:	77e5                	lui	a5,0xffff9
    14be:	17fd                	addi	a5,a5,-1
    14c0:	8ff9                	and	a5,a5,a4
    14c2:	fef41623          	sh	a5,-20(s0)
D:\WCH\代码\3-PIT%20Demo\obj/../Libraries/wch_libraries/Peripheral/ch32v10x_tim.c:237
  tmpccmrx &= (uint16_t)(~((uint16_t)TIM_CC4S));
    14c6:	fec45783          	lhu	a5,-20(s0)
    14ca:	cff7f793          	andi	a5,a5,-769
    14ce:	fef41623          	sh	a5,-20(s0)
D:\WCH\代码\3-PIT%20Demo\obj/../Libraries/wch_libraries/Peripheral/ch32v10x_tim.c:238
  tmpccmrx |= (uint16_t)(TIM_OCInitStruct->TIM_OCMode << 8);
    14d2:	fd842783          	lw	a5,-40(s0)
    14d6:	0007d783          	lhu	a5,0(a5) # ffff9000 <_eusrstack+0xdfff4000>
    14da:	07a2                	slli	a5,a5,0x8
    14dc:	01079713          	slli	a4,a5,0x10
    14e0:	8341                	srli	a4,a4,0x10
    14e2:	fec45783          	lhu	a5,-20(s0)
    14e6:	8fd9                	or	a5,a5,a4
    14e8:	fef41623          	sh	a5,-20(s0)
D:\WCH\代码\3-PIT%20Demo\obj/../Libraries/wch_libraries/Peripheral/ch32v10x_tim.c:239
  tmpccer &= (uint16_t)(~((uint16_t)TIM_CC4P));
    14ec:	fea45703          	lhu	a4,-22(s0)
    14f0:	77f9                	lui	a5,0xffffe
    14f2:	17fd                	addi	a5,a5,-1
    14f4:	8ff9                	and	a5,a5,a4
    14f6:	fef41523          	sh	a5,-22(s0)
D:\WCH\代码\3-PIT%20Demo\obj/../Libraries/wch_libraries/Peripheral/ch32v10x_tim.c:240
  tmpccer |= (uint16_t)(TIM_OCInitStruct->TIM_OCPolarity << 12);
    14fa:	fd842783          	lw	a5,-40(s0)
    14fe:	0087d783          	lhu	a5,8(a5) # ffffe008 <_eusrstack+0xdfff9008>
    1502:	07b2                	slli	a5,a5,0xc
    1504:	01079713          	slli	a4,a5,0x10
    1508:	8341                	srli	a4,a4,0x10
    150a:	fea45783          	lhu	a5,-22(s0)
    150e:	8fd9                	or	a5,a5,a4
    1510:	fef41523          	sh	a5,-22(s0)
D:\WCH\代码\3-PIT%20Demo\obj/../Libraries/wch_libraries/Peripheral/ch32v10x_tim.c:241
  tmpccer |= (uint16_t)(TIM_OCInitStruct->TIM_OutputState << 12);
    1514:	fd842783          	lw	a5,-40(s0)
    1518:	0027d783          	lhu	a5,2(a5)
    151c:	07b2                	slli	a5,a5,0xc
    151e:	01079713          	slli	a4,a5,0x10
    1522:	8341                	srli	a4,a4,0x10
    1524:	fea45783          	lhu	a5,-22(s0)
    1528:	8fd9                	or	a5,a5,a4
    152a:	fef41523          	sh	a5,-22(s0)
D:\WCH\代码\3-PIT%20Demo\obj/../Libraries/wch_libraries/Peripheral/ch32v10x_tim.c:243
    
  if(TIMx == TIM1)
    152e:	fdc42703          	lw	a4,-36(s0)
    1532:	400137b7          	lui	a5,0x40013
    1536:	c0078793          	addi	a5,a5,-1024 # 40012c00 <_eusrstack+0x2000dc00>
    153a:	02f71663          	bne	a4,a5,1566 <TIM_OC4Init+0x10e>
D:\WCH\代码\3-PIT%20Demo\obj/../Libraries/wch_libraries/Peripheral/ch32v10x_tim.c:245
  {
    tmpcr2 &= (uint16_t)(~((uint16_t)TIM_OIS4));
    153e:	fee45703          	lhu	a4,-18(s0)
    1542:	77f1                	lui	a5,0xffffc
    1544:	17fd                	addi	a5,a5,-1
    1546:	8ff9                	and	a5,a5,a4
    1548:	fef41723          	sh	a5,-18(s0)
D:\WCH\代码\3-PIT%20Demo\obj/../Libraries/wch_libraries/Peripheral/ch32v10x_tim.c:246
    tmpcr2 |= (uint16_t)(TIM_OCInitStruct->TIM_OCIdleState << 6);
    154c:	fd842783          	lw	a5,-40(s0)
    1550:	00c7d783          	lhu	a5,12(a5) # ffffc00c <_eusrstack+0xdfff700c>
    1554:	079a                	slli	a5,a5,0x6
    1556:	01079713          	slli	a4,a5,0x10
    155a:	8341                	srli	a4,a4,0x10
    155c:	fee45783          	lhu	a5,-18(s0)
    1560:	8fd9                	or	a5,a5,a4
    1562:	fef41723          	sh	a5,-18(s0)
D:\WCH\代码\3-PIT%20Demo\obj/../Libraries/wch_libraries/Peripheral/ch32v10x_tim.c:249
  }

  TIMx->CTLR2 = tmpcr2; 
    1566:	fdc42783          	lw	a5,-36(s0)
    156a:	fee45703          	lhu	a4,-18(s0)
    156e:	00e79223          	sh	a4,4(a5)
D:\WCH\代码\3-PIT%20Demo\obj/../Libraries/wch_libraries/Peripheral/ch32v10x_tim.c:250
  TIMx->CHCTLR2 = tmpccmrx;
    1572:	fdc42783          	lw	a5,-36(s0)
    1576:	fec45703          	lhu	a4,-20(s0)
    157a:	00e79e23          	sh	a4,28(a5)
D:\WCH\代码\3-PIT%20Demo\obj/../Libraries/wch_libraries/Peripheral/ch32v10x_tim.c:251
  TIMx->CH4CVR = TIM_OCInitStruct->TIM_Pulse;
    157e:	fd842783          	lw	a5,-40(s0)
    1582:	0067d703          	lhu	a4,6(a5)
    1586:	fdc42783          	lw	a5,-36(s0)
    158a:	04e79023          	sh	a4,64(a5)
D:\WCH\代码\3-PIT%20Demo\obj/../Libraries/wch_libraries/Peripheral/ch32v10x_tim.c:252
  TIMx->CCER = tmpccer;
    158e:	fdc42783          	lw	a5,-36(s0)
    1592:	fea45703          	lhu	a4,-22(s0)
    1596:	02e79023          	sh	a4,32(a5)
D:\WCH\代码\3-PIT%20Demo\obj/../Libraries/wch_libraries/Peripheral/ch32v10x_tim.c:253
}
    159a:	0001                	nop
    159c:	5432                	lw	s0,44(sp)
    159e:	6145                	addi	sp,sp,48
    15a0:	8082                	ret

000015a2 <TIM_Cmd>:
TIM_Cmd():
D:\WCH\代码\3-PIT%20Demo\obj/../Libraries/wch_libraries/Peripheral/ch32v10x_tim.c:433
* Input          : TIMx: where x can be 1 to 4 to select the TIM peripheral.
*                  NewState: ENABLE or DISABLE.
* Return         : None
*******************************************************************************/
void TIM_Cmd(TIM_TypeDef* TIMx, FunctionalState NewState)
{ 
    15a2:	1101                	addi	sp,sp,-32
    15a4:	ce22                	sw	s0,28(sp)
    15a6:	1000                	addi	s0,sp,32
    15a8:	fea42623          	sw	a0,-20(s0)
    15ac:	feb42423          	sw	a1,-24(s0)
D:\WCH\代码\3-PIT%20Demo\obj/../Libraries/wch_libraries/Peripheral/ch32v10x_tim.c:434
  if (NewState != DISABLE)
    15b0:	fe842783          	lw	a5,-24(s0)
    15b4:	c38d                	beqz	a5,15d6 <TIM_Cmd+0x34>
D:\WCH\代码\3-PIT%20Demo\obj/../Libraries/wch_libraries/Peripheral/ch32v10x_tim.c:436
  {
    TIMx->CTLR1 |= TIM_CEN;
    15b6:	fec42783          	lw	a5,-20(s0)
    15ba:	0007d783          	lhu	a5,0(a5)
    15be:	07c2                	slli	a5,a5,0x10
    15c0:	83c1                	srli	a5,a5,0x10
    15c2:	0017e793          	ori	a5,a5,1
    15c6:	01079713          	slli	a4,a5,0x10
    15ca:	8341                	srli	a4,a4,0x10
    15cc:	fec42783          	lw	a5,-20(s0)
    15d0:	00e79023          	sh	a4,0(a5)
D:\WCH\代码\3-PIT%20Demo\obj/../Libraries/wch_libraries/Peripheral/ch32v10x_tim.c:442
  }
  else
  {
    TIMx->CTLR1 &= (uint16_t)(~((uint16_t)TIM_CEN));
  }
}
    15d4:	a839                	j	15f2 <TIM_Cmd+0x50>
D:\WCH\代码\3-PIT%20Demo\obj/../Libraries/wch_libraries/Peripheral/ch32v10x_tim.c:440
    TIMx->CTLR1 &= (uint16_t)(~((uint16_t)TIM_CEN));
    15d6:	fec42783          	lw	a5,-20(s0)
    15da:	0007d783          	lhu	a5,0(a5)
    15de:	07c2                	slli	a5,a5,0x10
    15e0:	83c1                	srli	a5,a5,0x10
    15e2:	9bf9                	andi	a5,a5,-2
    15e4:	01079713          	slli	a4,a5,0x10
    15e8:	8341                	srli	a4,a4,0x10
    15ea:	fec42783          	lw	a5,-20(s0)
    15ee:	00e79023          	sh	a4,0(a5)
D:\WCH\代码\3-PIT%20Demo\obj/../Libraries/wch_libraries/Peripheral/ch32v10x_tim.c:442
}
    15f2:	0001                	nop
    15f4:	4472                	lw	s0,28(sp)
    15f6:	6105                	addi	sp,sp,32
    15f8:	8082                	ret

000015fa <TIM_CtrlPWMOutputs>:
TIM_CtrlPWMOutputs():
D:\WCH\代码\3-PIT%20Demo\obj/../Libraries/wch_libraries/Peripheral/ch32v10x_tim.c:452
* Input          : TIMx: where x can be 1 to 4 to select the TIM peripheral.
*                  NewState: ENABLE or DISABLE.
* Return         : None
*******************************************************************************/
void TIM_CtrlPWMOutputs(TIM_TypeDef* TIMx, FunctionalState NewState)
{
    15fa:	1101                	addi	sp,sp,-32
    15fc:	ce22                	sw	s0,28(sp)
    15fe:	1000                	addi	s0,sp,32
    1600:	fea42623          	sw	a0,-20(s0)
    1604:	feb42423          	sw	a1,-24(s0)
D:\WCH\代码\3-PIT%20Demo\obj/../Libraries/wch_libraries/Peripheral/ch32v10x_tim.c:453
  if (NewState != DISABLE)
    1608:	fe842783          	lw	a5,-24(s0)
    160c:	c395                	beqz	a5,1630 <TIM_CtrlPWMOutputs+0x36>
D:\WCH\代码\3-PIT%20Demo\obj/../Libraries/wch_libraries/Peripheral/ch32v10x_tim.c:455
  {
    TIMx->BDTR |= TIM_MOE;
    160e:	fec42783          	lw	a5,-20(s0)
    1612:	0447d783          	lhu	a5,68(a5)
    1616:	01079713          	slli	a4,a5,0x10
    161a:	8341                	srli	a4,a4,0x10
    161c:	77e1                	lui	a5,0xffff8
    161e:	8fd9                	or	a5,a5,a4
    1620:	01079713          	slli	a4,a5,0x10
    1624:	8341                	srli	a4,a4,0x10
    1626:	fec42783          	lw	a5,-20(s0)
    162a:	04e79223          	sh	a4,68(a5) # ffff8044 <_eusrstack+0xdfff3044>
D:\WCH\代码\3-PIT%20Demo\obj/../Libraries/wch_libraries/Peripheral/ch32v10x_tim.c:461
  }
  else
  {
    TIMx->BDTR &= (uint16_t)(~((uint16_t)TIM_MOE));
  }  
}
    162e:	a015                	j	1652 <TIM_CtrlPWMOutputs+0x58>
D:\WCH\代码\3-PIT%20Demo\obj/../Libraries/wch_libraries/Peripheral/ch32v10x_tim.c:459
    TIMx->BDTR &= (uint16_t)(~((uint16_t)TIM_MOE));
    1630:	fec42783          	lw	a5,-20(s0)
    1634:	0447d783          	lhu	a5,68(a5)
    1638:	01079713          	slli	a4,a5,0x10
    163c:	8341                	srli	a4,a4,0x10
    163e:	67a1                	lui	a5,0x8
    1640:	17fd                	addi	a5,a5,-1
    1642:	8ff9                	and	a5,a5,a4
    1644:	01079713          	slli	a4,a5,0x10
    1648:	8341                	srli	a4,a4,0x10
    164a:	fec42783          	lw	a5,-20(s0)
    164e:	04e79223          	sh	a4,68(a5) # 8044 <_data_lma+0x2b8c>
D:\WCH\代码\3-PIT%20Demo\obj/../Libraries/wch_libraries/Peripheral/ch32v10x_tim.c:461
}
    1652:	0001                	nop
    1654:	4472                	lw	s0,28(sp)
    1656:	6105                	addi	sp,sp,32
    1658:	8082                	ret

0000165a <TIM_ITConfig>:
TIM_ITConfig():
D:\WCH\代码\3-PIT%20Demo\obj/../Libraries/wch_libraries/Peripheral/ch32v10x_tim.c:480
*                    TIM_IT_Break: TIM Break Interrupt source.
*                  NewState: ENABLE or DISABLE.
* Return         : None
*******************************************************************************/
void TIM_ITConfig(TIM_TypeDef* TIMx, uint16_t TIM_IT, FunctionalState NewState)
{  
    165a:	1101                	addi	sp,sp,-32
    165c:	ce22                	sw	s0,28(sp)
    165e:	1000                	addi	s0,sp,32
    1660:	fea42623          	sw	a0,-20(s0)
    1664:	87ae                	mv	a5,a1
    1666:	fec42223          	sw	a2,-28(s0)
    166a:	fef41523          	sh	a5,-22(s0)
D:\WCH\代码\3-PIT%20Demo\obj/../Libraries/wch_libraries/Peripheral/ch32v10x_tim.c:481
  if (NewState != DISABLE)
    166e:	fe442783          	lw	a5,-28(s0)
    1672:	c39d                	beqz	a5,1698 <TIM_ITConfig+0x3e>
D:\WCH\代码\3-PIT%20Demo\obj/../Libraries/wch_libraries/Peripheral/ch32v10x_tim.c:483
  {
    TIMx->DMAINTENR |= TIM_IT;
    1674:	fec42783          	lw	a5,-20(s0)
    1678:	00c7d783          	lhu	a5,12(a5)
    167c:	01079713          	slli	a4,a5,0x10
    1680:	8341                	srli	a4,a4,0x10
    1682:	fea45783          	lhu	a5,-22(s0)
    1686:	8fd9                	or	a5,a5,a4
    1688:	01079713          	slli	a4,a5,0x10
    168c:	8341                	srli	a4,a4,0x10
    168e:	fec42783          	lw	a5,-20(s0)
    1692:	00e79623          	sh	a4,12(a5)
D:\WCH\代码\3-PIT%20Demo\obj/../Libraries/wch_libraries/Peripheral/ch32v10x_tim.c:489
  }
  else
  {
    TIMx->DMAINTENR &= (uint16_t)~TIM_IT;
  }
}
    1696:	a035                	j	16c2 <TIM_ITConfig+0x68>
D:\WCH\代码\3-PIT%20Demo\obj/../Libraries/wch_libraries/Peripheral/ch32v10x_tim.c:487
    TIMx->DMAINTENR &= (uint16_t)~TIM_IT;
    1698:	fec42783          	lw	a5,-20(s0)
    169c:	00c7d783          	lhu	a5,12(a5)
    16a0:	01079713          	slli	a4,a5,0x10
    16a4:	8341                	srli	a4,a4,0x10
    16a6:	fea45783          	lhu	a5,-22(s0)
    16aa:	fff7c793          	not	a5,a5
    16ae:	07c2                	slli	a5,a5,0x10
    16b0:	83c1                	srli	a5,a5,0x10
    16b2:	8ff9                	and	a5,a5,a4
    16b4:	01079713          	slli	a4,a5,0x10
    16b8:	8341                	srli	a4,a4,0x10
    16ba:	fec42783          	lw	a5,-20(s0)
    16be:	00e79623          	sh	a4,12(a5)
D:\WCH\代码\3-PIT%20Demo\obj/../Libraries/wch_libraries/Peripheral/ch32v10x_tim.c:489
}
    16c2:	0001                	nop
    16c4:	4472                	lw	s0,28(sp)
    16c6:	6105                	addi	sp,sp,32
    16c8:	8082                	ret

000016ca <TIM_OC1PreloadConfig>:
TIM_OC1PreloadConfig():
D:\WCH\代码\3-PIT%20Demo\obj/../Libraries/wch_libraries/Peripheral/ch32v10x_tim.c:981
*                    TIM_OCPreload_Enable.
*                    TIM_OCPreload_Disable.
* Return         : None
*******************************************************************************/
void TIM_OC1PreloadConfig(TIM_TypeDef* TIMx, uint16_t TIM_OCPreload)
{
    16ca:	7179                	addi	sp,sp,-48
    16cc:	d622                	sw	s0,44(sp)
    16ce:	1800                	addi	s0,sp,48
    16d0:	fca42e23          	sw	a0,-36(s0)
    16d4:	87ae                	mv	a5,a1
    16d6:	fcf41d23          	sh	a5,-38(s0)
D:\WCH\代码\3-PIT%20Demo\obj/../Libraries/wch_libraries/Peripheral/ch32v10x_tim.c:982
  uint16_t tmpccmr1 = 0;
    16da:	fe041723          	sh	zero,-18(s0)
D:\WCH\代码\3-PIT%20Demo\obj/../Libraries/wch_libraries/Peripheral/ch32v10x_tim.c:984

  tmpccmr1 = TIMx->CHCTLR1;
    16de:	fdc42783          	lw	a5,-36(s0)
    16e2:	0187d783          	lhu	a5,24(a5)
    16e6:	fef41723          	sh	a5,-18(s0)
D:\WCH\代码\3-PIT%20Demo\obj/../Libraries/wch_libraries/Peripheral/ch32v10x_tim.c:985
  tmpccmr1 &= (uint16_t)~((uint16_t)TIM_OC1PE);
    16ea:	fee45783          	lhu	a5,-18(s0)
    16ee:	9bdd                	andi	a5,a5,-9
    16f0:	fef41723          	sh	a5,-18(s0)
D:\WCH\代码\3-PIT%20Demo\obj/../Libraries/wch_libraries/Peripheral/ch32v10x_tim.c:986
  tmpccmr1 |= TIM_OCPreload;
    16f4:	fee45703          	lhu	a4,-18(s0)
    16f8:	fda45783          	lhu	a5,-38(s0)
    16fc:	8fd9                	or	a5,a5,a4
    16fe:	fef41723          	sh	a5,-18(s0)
D:\WCH\代码\3-PIT%20Demo\obj/../Libraries/wch_libraries/Peripheral/ch32v10x_tim.c:987
  TIMx->CHCTLR1 = tmpccmr1;
    1702:	fdc42783          	lw	a5,-36(s0)
    1706:	fee45703          	lhu	a4,-18(s0)
    170a:	00e79c23          	sh	a4,24(a5)
D:\WCH\代码\3-PIT%20Demo\obj/../Libraries/wch_libraries/Peripheral/ch32v10x_tim.c:988
}
    170e:	0001                	nop
    1710:	5432                	lw	s0,44(sp)
    1712:	6145                	addi	sp,sp,48
    1714:	8082                	ret

00001716 <TIM_OC2PreloadConfig>:
TIM_OC2PreloadConfig():
D:\WCH\代码\3-PIT%20Demo\obj/../Libraries/wch_libraries/Peripheral/ch32v10x_tim.c:1000
*                    TIM_OCPreload_Enable.
*                    TIM_OCPreload_Disable.
* Return         : None
*******************************************************************************/
void TIM_OC2PreloadConfig(TIM_TypeDef* TIMx, uint16_t TIM_OCPreload)
{
    1716:	7179                	addi	sp,sp,-48
    1718:	d622                	sw	s0,44(sp)
    171a:	1800                	addi	s0,sp,48
    171c:	fca42e23          	sw	a0,-36(s0)
    1720:	87ae                	mv	a5,a1
    1722:	fcf41d23          	sh	a5,-38(s0)
D:\WCH\代码\3-PIT%20Demo\obj/../Libraries/wch_libraries/Peripheral/ch32v10x_tim.c:1001
  uint16_t tmpccmr1 = 0;
    1726:	fe041723          	sh	zero,-18(s0)
D:\WCH\代码\3-PIT%20Demo\obj/../Libraries/wch_libraries/Peripheral/ch32v10x_tim.c:1003

  tmpccmr1 = TIMx->CHCTLR1;
    172a:	fdc42783          	lw	a5,-36(s0)
    172e:	0187d783          	lhu	a5,24(a5)
    1732:	fef41723          	sh	a5,-18(s0)
D:\WCH\代码\3-PIT%20Demo\obj/../Libraries/wch_libraries/Peripheral/ch32v10x_tim.c:1004
  tmpccmr1 &= (uint16_t)~((uint16_t)TIM_OC2PE);
    1736:	fee45703          	lhu	a4,-18(s0)
    173a:	77fd                	lui	a5,0xfffff
    173c:	7ff78793          	addi	a5,a5,2047 # fffff7ff <_eusrstack+0xdfffa7ff>
    1740:	8ff9                	and	a5,a5,a4
    1742:	fef41723          	sh	a5,-18(s0)
D:\WCH\代码\3-PIT%20Demo\obj/../Libraries/wch_libraries/Peripheral/ch32v10x_tim.c:1005
  tmpccmr1 |= (uint16_t)(TIM_OCPreload << 8);	
    1746:	fda45783          	lhu	a5,-38(s0)
    174a:	07a2                	slli	a5,a5,0x8
    174c:	01079713          	slli	a4,a5,0x10
    1750:	8341                	srli	a4,a4,0x10
    1752:	fee45783          	lhu	a5,-18(s0)
    1756:	8fd9                	or	a5,a5,a4
    1758:	fef41723          	sh	a5,-18(s0)
D:\WCH\代码\3-PIT%20Demo\obj/../Libraries/wch_libraries/Peripheral/ch32v10x_tim.c:1006
  TIMx->CHCTLR1 = tmpccmr1;
    175c:	fdc42783          	lw	a5,-36(s0)
    1760:	fee45703          	lhu	a4,-18(s0)
    1764:	00e79c23          	sh	a4,24(a5)
D:\WCH\代码\3-PIT%20Demo\obj/../Libraries/wch_libraries/Peripheral/ch32v10x_tim.c:1007
}
    1768:	0001                	nop
    176a:	5432                	lw	s0,44(sp)
    176c:	6145                	addi	sp,sp,48
    176e:	8082                	ret

00001770 <TIM_OC3PreloadConfig>:
TIM_OC3PreloadConfig():
D:\WCH\代码\3-PIT%20Demo\obj/../Libraries/wch_libraries/Peripheral/ch32v10x_tim.c:1019
*                    TIM_OCPreload_Enable.
*                    TIM_OCPreload_Disable.
* Return         : None
*******************************************************************************/
void TIM_OC3PreloadConfig(TIM_TypeDef* TIMx, uint16_t TIM_OCPreload)
{
    1770:	7179                	addi	sp,sp,-48
    1772:	d622                	sw	s0,44(sp)
    1774:	1800                	addi	s0,sp,48
    1776:	fca42e23          	sw	a0,-36(s0)
    177a:	87ae                	mv	a5,a1
    177c:	fcf41d23          	sh	a5,-38(s0)
D:\WCH\代码\3-PIT%20Demo\obj/../Libraries/wch_libraries/Peripheral/ch32v10x_tim.c:1020
  uint16_t tmpccmr2 = 0;
    1780:	fe041723          	sh	zero,-18(s0)
D:\WCH\代码\3-PIT%20Demo\obj/../Libraries/wch_libraries/Peripheral/ch32v10x_tim.c:1022

  tmpccmr2 = TIMx->CHCTLR2;
    1784:	fdc42783          	lw	a5,-36(s0)
    1788:	01c7d783          	lhu	a5,28(a5)
    178c:	fef41723          	sh	a5,-18(s0)
D:\WCH\代码\3-PIT%20Demo\obj/../Libraries/wch_libraries/Peripheral/ch32v10x_tim.c:1023
  tmpccmr2 &= (uint16_t)~((uint16_t)TIM_OC3PE);
    1790:	fee45783          	lhu	a5,-18(s0)
    1794:	9bdd                	andi	a5,a5,-9
    1796:	fef41723          	sh	a5,-18(s0)
D:\WCH\代码\3-PIT%20Demo\obj/../Libraries/wch_libraries/Peripheral/ch32v10x_tim.c:1024
  tmpccmr2 |= TIM_OCPreload;
    179a:	fee45703          	lhu	a4,-18(s0)
    179e:	fda45783          	lhu	a5,-38(s0)
    17a2:	8fd9                	or	a5,a5,a4
    17a4:	fef41723          	sh	a5,-18(s0)
D:\WCH\代码\3-PIT%20Demo\obj/../Libraries/wch_libraries/Peripheral/ch32v10x_tim.c:1025
  TIMx->CHCTLR2 = tmpccmr2;
    17a8:	fdc42783          	lw	a5,-36(s0)
    17ac:	fee45703          	lhu	a4,-18(s0)
    17b0:	00e79e23          	sh	a4,28(a5)
D:\WCH\代码\3-PIT%20Demo\obj/../Libraries/wch_libraries/Peripheral/ch32v10x_tim.c:1026
}
    17b4:	0001                	nop
    17b6:	5432                	lw	s0,44(sp)
    17b8:	6145                	addi	sp,sp,48
    17ba:	8082                	ret

000017bc <TIM_OC4PreloadConfig>:
TIM_OC4PreloadConfig():
D:\WCH\代码\3-PIT%20Demo\obj/../Libraries/wch_libraries/Peripheral/ch32v10x_tim.c:1038
*                    TIM_OCPreload_Enable.
*                    TIM_OCPreload_Disable.
* Return         : None
*******************************************************************************/
void TIM_OC4PreloadConfig(TIM_TypeDef* TIMx, uint16_t TIM_OCPreload)
{
    17bc:	7179                	addi	sp,sp,-48
    17be:	d622                	sw	s0,44(sp)
    17c0:	1800                	addi	s0,sp,48
    17c2:	fca42e23          	sw	a0,-36(s0)
    17c6:	87ae                	mv	a5,a1
    17c8:	fcf41d23          	sh	a5,-38(s0)
D:\WCH\代码\3-PIT%20Demo\obj/../Libraries/wch_libraries/Peripheral/ch32v10x_tim.c:1039
  uint16_t tmpccmr2 = 0;
    17cc:	fe041723          	sh	zero,-18(s0)
D:\WCH\代码\3-PIT%20Demo\obj/../Libraries/wch_libraries/Peripheral/ch32v10x_tim.c:1041

  tmpccmr2 = TIMx->CHCTLR2;
    17d0:	fdc42783          	lw	a5,-36(s0)
    17d4:	01c7d783          	lhu	a5,28(a5)
    17d8:	fef41723          	sh	a5,-18(s0)
D:\WCH\代码\3-PIT%20Demo\obj/../Libraries/wch_libraries/Peripheral/ch32v10x_tim.c:1042
  tmpccmr2 &= (uint16_t)~((uint16_t)TIM_OC4PE);
    17dc:	fee45703          	lhu	a4,-18(s0)
    17e0:	77fd                	lui	a5,0xfffff
    17e2:	7ff78793          	addi	a5,a5,2047 # fffff7ff <_eusrstack+0xdfffa7ff>
    17e6:	8ff9                	and	a5,a5,a4
    17e8:	fef41723          	sh	a5,-18(s0)
D:\WCH\代码\3-PIT%20Demo\obj/../Libraries/wch_libraries/Peripheral/ch32v10x_tim.c:1043
  tmpccmr2 |= (uint16_t)(TIM_OCPreload << 8);
    17ec:	fda45783          	lhu	a5,-38(s0)
    17f0:	07a2                	slli	a5,a5,0x8
    17f2:	01079713          	slli	a4,a5,0x10
    17f6:	8341                	srli	a4,a4,0x10
    17f8:	fee45783          	lhu	a5,-18(s0)
    17fc:	8fd9                	or	a5,a5,a4
    17fe:	fef41723          	sh	a5,-18(s0)
D:\WCH\代码\3-PIT%20Demo\obj/../Libraries/wch_libraries/Peripheral/ch32v10x_tim.c:1044
  TIMx->CHCTLR2 = tmpccmr2;
    1802:	fdc42783          	lw	a5,-36(s0)
    1806:	fee45703          	lhu	a4,-18(s0)
    180a:	00e79e23          	sh	a4,28(a5)
D:\WCH\代码\3-PIT%20Demo\obj/../Libraries/wch_libraries/Peripheral/ch32v10x_tim.c:1045
}
    180e:	0001                	nop
    1810:	5432                	lw	s0,44(sp)
    1812:	6145                	addi	sp,sp,48
    1814:	8082                	ret

00001816 <TIM_OC1FastConfig>:
TIM_OC1FastConfig():
D:\WCH\代码\3-PIT%20Demo\obj/../Libraries/wch_libraries/Peripheral/ch32v10x_tim.c:1057
*                    TIM_OCFast_Enable: TIM output compare fast enable.
*                    TIM_OCFast_Disable: TIM output compare fast disable.
* Return         : None
*******************************************************************************/
void TIM_OC1FastConfig(TIM_TypeDef* TIMx, uint16_t TIM_OCFast)
{
    1816:	7179                	addi	sp,sp,-48
    1818:	d622                	sw	s0,44(sp)
    181a:	1800                	addi	s0,sp,48
    181c:	fca42e23          	sw	a0,-36(s0)
    1820:	87ae                	mv	a5,a1
    1822:	fcf41d23          	sh	a5,-38(s0)
D:\WCH\代码\3-PIT%20Demo\obj/../Libraries/wch_libraries/Peripheral/ch32v10x_tim.c:1058
  uint16_t tmpccmr1 = 0;
    1826:	fe041723          	sh	zero,-18(s0)
D:\WCH\代码\3-PIT%20Demo\obj/../Libraries/wch_libraries/Peripheral/ch32v10x_tim.c:1060

  tmpccmr1 = TIMx->CHCTLR1;
    182a:	fdc42783          	lw	a5,-36(s0)
    182e:	0187d783          	lhu	a5,24(a5)
    1832:	fef41723          	sh	a5,-18(s0)
D:\WCH\代码\3-PIT%20Demo\obj/../Libraries/wch_libraries/Peripheral/ch32v10x_tim.c:1061
  tmpccmr1 &= (uint16_t)~((uint16_t)TIM_OC1FE);
    1836:	fee45783          	lhu	a5,-18(s0)
    183a:	9bed                	andi	a5,a5,-5
    183c:	fef41723          	sh	a5,-18(s0)
D:\WCH\代码\3-PIT%20Demo\obj/../Libraries/wch_libraries/Peripheral/ch32v10x_tim.c:1062
  tmpccmr1 |= TIM_OCFast;
    1840:	fee45703          	lhu	a4,-18(s0)
    1844:	fda45783          	lhu	a5,-38(s0)
    1848:	8fd9                	or	a5,a5,a4
    184a:	fef41723          	sh	a5,-18(s0)
D:\WCH\代码\3-PIT%20Demo\obj/../Libraries/wch_libraries/Peripheral/ch32v10x_tim.c:1063
  TIMx->CHCTLR1 = tmpccmr1;
    184e:	fdc42783          	lw	a5,-36(s0)
    1852:	fee45703          	lhu	a4,-18(s0)
    1856:	00e79c23          	sh	a4,24(a5)
D:\WCH\代码\3-PIT%20Demo\obj/../Libraries/wch_libraries/Peripheral/ch32v10x_tim.c:1064
}
    185a:	0001                	nop
    185c:	5432                	lw	s0,44(sp)
    185e:	6145                	addi	sp,sp,48
    1860:	8082                	ret

00001862 <TIM_OC2FastConfig>:
TIM_OC2FastConfig():
D:\WCH\代码\3-PIT%20Demo\obj/../Libraries/wch_libraries/Peripheral/ch32v10x_tim.c:1076
*                    TIM_OCFast_Enable: TIM output compare fast enable.
*                    TIM_OCFast_Disable: TIM output compare fast disable.
* Return         : None
*******************************************************************************/
void TIM_OC2FastConfig(TIM_TypeDef* TIMx, uint16_t TIM_OCFast)
{
    1862:	7179                	addi	sp,sp,-48
    1864:	d622                	sw	s0,44(sp)
    1866:	1800                	addi	s0,sp,48
    1868:	fca42e23          	sw	a0,-36(s0)
    186c:	87ae                	mv	a5,a1
    186e:	fcf41d23          	sh	a5,-38(s0)
D:\WCH\代码\3-PIT%20Demo\obj/../Libraries/wch_libraries/Peripheral/ch32v10x_tim.c:1077
  uint16_t tmpccmr1 = 0;
    1872:	fe041723          	sh	zero,-18(s0)
D:\WCH\代码\3-PIT%20Demo\obj/../Libraries/wch_libraries/Peripheral/ch32v10x_tim.c:1079

  tmpccmr1 = TIMx->CHCTLR1;
    1876:	fdc42783          	lw	a5,-36(s0)
    187a:	0187d783          	lhu	a5,24(a5)
    187e:	fef41723          	sh	a5,-18(s0)
D:\WCH\代码\3-PIT%20Demo\obj/../Libraries/wch_libraries/Peripheral/ch32v10x_tim.c:1080
  tmpccmr1 &= (uint16_t)~((uint16_t)TIM_OC2FE);
    1882:	fee45783          	lhu	a5,-18(s0)
    1886:	bff7f793          	andi	a5,a5,-1025
    188a:	fef41723          	sh	a5,-18(s0)
D:\WCH\代码\3-PIT%20Demo\obj/../Libraries/wch_libraries/Peripheral/ch32v10x_tim.c:1081
  tmpccmr1 |= (uint16_t)(TIM_OCFast << 8);
    188e:	fda45783          	lhu	a5,-38(s0)
    1892:	07a2                	slli	a5,a5,0x8
    1894:	01079713          	slli	a4,a5,0x10
    1898:	8341                	srli	a4,a4,0x10
    189a:	fee45783          	lhu	a5,-18(s0)
    189e:	8fd9                	or	a5,a5,a4
    18a0:	fef41723          	sh	a5,-18(s0)
D:\WCH\代码\3-PIT%20Demo\obj/../Libraries/wch_libraries/Peripheral/ch32v10x_tim.c:1082
  TIMx->CHCTLR1 = tmpccmr1;
    18a4:	fdc42783          	lw	a5,-36(s0)
    18a8:	fee45703          	lhu	a4,-18(s0)
    18ac:	00e79c23          	sh	a4,24(a5)
D:\WCH\代码\3-PIT%20Demo\obj/../Libraries/wch_libraries/Peripheral/ch32v10x_tim.c:1083
}
    18b0:	0001                	nop
    18b2:	5432                	lw	s0,44(sp)
    18b4:	6145                	addi	sp,sp,48
    18b6:	8082                	ret

000018b8 <TIM_OC3FastConfig>:
TIM_OC3FastConfig():
D:\WCH\代码\3-PIT%20Demo\obj/../Libraries/wch_libraries/Peripheral/ch32v10x_tim.c:1095
*                    TIM_OCFast_Enable: TIM output compare fast enable.
*                    TIM_OCFast_Disable: TIM output compare fast disable.
* Return         : None
*******************************************************************************/
void TIM_OC3FastConfig(TIM_TypeDef* TIMx, uint16_t TIM_OCFast)
{
    18b8:	7179                	addi	sp,sp,-48
    18ba:	d622                	sw	s0,44(sp)
    18bc:	1800                	addi	s0,sp,48
    18be:	fca42e23          	sw	a0,-36(s0)
    18c2:	87ae                	mv	a5,a1
    18c4:	fcf41d23          	sh	a5,-38(s0)
D:\WCH\代码\3-PIT%20Demo\obj/../Libraries/wch_libraries/Peripheral/ch32v10x_tim.c:1096
  uint16_t tmpccmr2 = 0;
    18c8:	fe041723          	sh	zero,-18(s0)
D:\WCH\代码\3-PIT%20Demo\obj/../Libraries/wch_libraries/Peripheral/ch32v10x_tim.c:1098

  tmpccmr2 = TIMx->CHCTLR2;
    18cc:	fdc42783          	lw	a5,-36(s0)
    18d0:	01c7d783          	lhu	a5,28(a5)
    18d4:	fef41723          	sh	a5,-18(s0)
D:\WCH\代码\3-PIT%20Demo\obj/../Libraries/wch_libraries/Peripheral/ch32v10x_tim.c:1099
  tmpccmr2 &= (uint16_t)~((uint16_t)TIM_OC3FE);
    18d8:	fee45783          	lhu	a5,-18(s0)
    18dc:	9bed                	andi	a5,a5,-5
    18de:	fef41723          	sh	a5,-18(s0)
D:\WCH\代码\3-PIT%20Demo\obj/../Libraries/wch_libraries/Peripheral/ch32v10x_tim.c:1100
  tmpccmr2 |= TIM_OCFast;	
    18e2:	fee45703          	lhu	a4,-18(s0)
    18e6:	fda45783          	lhu	a5,-38(s0)
    18ea:	8fd9                	or	a5,a5,a4
    18ec:	fef41723          	sh	a5,-18(s0)
D:\WCH\代码\3-PIT%20Demo\obj/../Libraries/wch_libraries/Peripheral/ch32v10x_tim.c:1101
  TIMx->CHCTLR2 = tmpccmr2;
    18f0:	fdc42783          	lw	a5,-36(s0)
    18f4:	fee45703          	lhu	a4,-18(s0)
    18f8:	00e79e23          	sh	a4,28(a5)
D:\WCH\代码\3-PIT%20Demo\obj/../Libraries/wch_libraries/Peripheral/ch32v10x_tim.c:1102
}
    18fc:	0001                	nop
    18fe:	5432                	lw	s0,44(sp)
    1900:	6145                	addi	sp,sp,48
    1902:	8082                	ret

00001904 <TIM_OC4FastConfig>:
TIM_OC4FastConfig():
D:\WCH\代码\3-PIT%20Demo\obj/../Libraries/wch_libraries/Peripheral/ch32v10x_tim.c:1114
*                    TIM_OCFast_Enable: TIM output compare fast enable.
*                    TIM_OCFast_Disable: TIM output compare fast disable.
* Return         : None
*******************************************************************************/
void TIM_OC4FastConfig(TIM_TypeDef* TIMx, uint16_t TIM_OCFast)
{
    1904:	7179                	addi	sp,sp,-48
    1906:	d622                	sw	s0,44(sp)
    1908:	1800                	addi	s0,sp,48
    190a:	fca42e23          	sw	a0,-36(s0)
    190e:	87ae                	mv	a5,a1
    1910:	fcf41d23          	sh	a5,-38(s0)
D:\WCH\代码\3-PIT%20Demo\obj/../Libraries/wch_libraries/Peripheral/ch32v10x_tim.c:1115
  uint16_t tmpccmr2 = 0;
    1914:	fe041723          	sh	zero,-18(s0)
D:\WCH\代码\3-PIT%20Demo\obj/../Libraries/wch_libraries/Peripheral/ch32v10x_tim.c:1117

  tmpccmr2 = TIMx->CHCTLR2;
    1918:	fdc42783          	lw	a5,-36(s0)
    191c:	01c7d783          	lhu	a5,28(a5)
    1920:	fef41723          	sh	a5,-18(s0)
D:\WCH\代码\3-PIT%20Demo\obj/../Libraries/wch_libraries/Peripheral/ch32v10x_tim.c:1118
  tmpccmr2 &= (uint16_t)~((uint16_t)TIM_OC4FE);
    1924:	fee45783          	lhu	a5,-18(s0)
    1928:	bff7f793          	andi	a5,a5,-1025
    192c:	fef41723          	sh	a5,-18(s0)
D:\WCH\代码\3-PIT%20Demo\obj/../Libraries/wch_libraries/Peripheral/ch32v10x_tim.c:1119
  tmpccmr2 |= (uint16_t)(TIM_OCFast << 8);
    1930:	fda45783          	lhu	a5,-38(s0)
    1934:	07a2                	slli	a5,a5,0x8
    1936:	01079713          	slli	a4,a5,0x10
    193a:	8341                	srli	a4,a4,0x10
    193c:	fee45783          	lhu	a5,-18(s0)
    1940:	8fd9                	or	a5,a5,a4
    1942:	fef41723          	sh	a5,-18(s0)
D:\WCH\代码\3-PIT%20Demo\obj/../Libraries/wch_libraries/Peripheral/ch32v10x_tim.c:1120
  TIMx->CHCTLR2 = tmpccmr2;
    1946:	fdc42783          	lw	a5,-36(s0)
    194a:	fee45703          	lhu	a4,-18(s0)
    194e:	00e79e23          	sh	a4,28(a5)
D:\WCH\代码\3-PIT%20Demo\obj/../Libraries/wch_libraries/Peripheral/ch32v10x_tim.c:1121
}
    1952:	0001                	nop
    1954:	5432                	lw	s0,44(sp)
    1956:	6145                	addi	sp,sp,48
    1958:	8082                	ret

0000195a <TIM_GetITStatus>:
TIM_GetITStatus():
D:\WCH\代码\3-PIT%20Demo\obj/../Libraries/wch_libraries/Peripheral/ch32v10x_tim.c:1853
*                    TIM_IT_Trigger: TIM Trigger Interrupt source.
*                    TIM_IT_Break: TIM Break Interrupt source.
* Return         : bitstatus: SET or RESET.
*******************************************************************************/
ITStatus TIM_GetITStatus(TIM_TypeDef* TIMx, uint16_t TIM_IT)
{
    195a:	7179                	addi	sp,sp,-48
    195c:	d622                	sw	s0,44(sp)
    195e:	1800                	addi	s0,sp,48
    1960:	fca42e23          	sw	a0,-36(s0)
    1964:	87ae                	mv	a5,a1
    1966:	fcf41d23          	sh	a5,-38(s0)
D:\WCH\代码\3-PIT%20Demo\obj/../Libraries/wch_libraries/Peripheral/ch32v10x_tim.c:1854
  ITStatus bitstatus = RESET;  
    196a:	fe042623          	sw	zero,-20(s0)
D:\WCH\代码\3-PIT%20Demo\obj/../Libraries/wch_libraries/Peripheral/ch32v10x_tim.c:1855
  uint16_t itstatus = 0x0, itenable = 0x0;
    196e:	fe041523          	sh	zero,-22(s0)
    1972:	fe041423          	sh	zero,-24(s0)
D:\WCH\代码\3-PIT%20Demo\obj/../Libraries/wch_libraries/Peripheral/ch32v10x_tim.c:1857
   
  itstatus = TIMx->INTFR & TIM_IT;
    1976:	fdc42783          	lw	a5,-36(s0)
    197a:	0107d783          	lhu	a5,16(a5)
    197e:	01079713          	slli	a4,a5,0x10
    1982:	8341                	srli	a4,a4,0x10
    1984:	fda45783          	lhu	a5,-38(s0)
    1988:	8ff9                	and	a5,a5,a4
    198a:	fef41523          	sh	a5,-22(s0)
D:\WCH\代码\3-PIT%20Demo\obj/../Libraries/wch_libraries/Peripheral/ch32v10x_tim.c:1859
  
  itenable = TIMx->DMAINTENR & TIM_IT;
    198e:	fdc42783          	lw	a5,-36(s0)
    1992:	00c7d783          	lhu	a5,12(a5)
    1996:	01079713          	slli	a4,a5,0x10
    199a:	8341                	srli	a4,a4,0x10
    199c:	fda45783          	lhu	a5,-38(s0)
    19a0:	8ff9                	and	a5,a5,a4
    19a2:	fef41423          	sh	a5,-24(s0)
D:\WCH\代码\3-PIT%20Demo\obj/../Libraries/wch_libraries/Peripheral/ch32v10x_tim.c:1860
  if ((itstatus != (uint16_t)RESET) && (itenable != (uint16_t)RESET))
    19a6:	fea45783          	lhu	a5,-22(s0)
    19aa:	cb81                	beqz	a5,19ba <TIM_GetITStatus+0x60>
D:\WCH\代码\3-PIT%20Demo\obj/../Libraries/wch_libraries/Peripheral/ch32v10x_tim.c:1860 (discriminator 1)
    19ac:	fe845783          	lhu	a5,-24(s0)
    19b0:	c789                	beqz	a5,19ba <TIM_GetITStatus+0x60>
D:\WCH\代码\3-PIT%20Demo\obj/../Libraries/wch_libraries/Peripheral/ch32v10x_tim.c:1862
  {
    bitstatus = SET;
    19b2:	4785                	li	a5,1
    19b4:	fef42623          	sw	a5,-20(s0)
    19b8:	a019                	j	19be <TIM_GetITStatus+0x64>
D:\WCH\代码\3-PIT%20Demo\obj/../Libraries/wch_libraries/Peripheral/ch32v10x_tim.c:1866
  }
  else
  {
    bitstatus = RESET;
    19ba:	fe042623          	sw	zero,-20(s0)
D:\WCH\代码\3-PIT%20Demo\obj/../Libraries/wch_libraries/Peripheral/ch32v10x_tim.c:1869
  }
	
  return bitstatus;
    19be:	fec42783          	lw	a5,-20(s0)
D:\WCH\代码\3-PIT%20Demo\obj/../Libraries/wch_libraries/Peripheral/ch32v10x_tim.c:1870
}
    19c2:	853e                	mv	a0,a5
    19c4:	5432                	lw	s0,44(sp)
    19c6:	6145                	addi	sp,sp,48
    19c8:	8082                	ret

000019ca <TIM_ClearITPendingBit>:
TIM_ClearITPendingBit():
D:\WCH\代码\3-PIT%20Demo\obj/../Libraries/wch_libraries/Peripheral/ch32v10x_tim.c:1888
*                    TIM_IT_Trigger: TIM Trigger Interrupt source.
*                    TIM_IT_Break: TIM Break Interrupt source.
* Return         : None
*******************************************************************************/
void TIM_ClearITPendingBit(TIM_TypeDef* TIMx, uint16_t TIM_IT)
{
    19ca:	1101                	addi	sp,sp,-32
    19cc:	ce22                	sw	s0,28(sp)
    19ce:	1000                	addi	s0,sp,32
    19d0:	fea42623          	sw	a0,-20(s0)
    19d4:	87ae                	mv	a5,a1
    19d6:	fef41523          	sh	a5,-22(s0)
D:\WCH\代码\3-PIT%20Demo\obj/../Libraries/wch_libraries/Peripheral/ch32v10x_tim.c:1889
  TIMx->INTFR = (uint16_t)~TIM_IT;
    19da:	fea45783          	lhu	a5,-22(s0)
    19de:	fff7c793          	not	a5,a5
    19e2:	01079713          	slli	a4,a5,0x10
    19e6:	8341                	srli	a4,a4,0x10
    19e8:	fec42783          	lw	a5,-20(s0)
    19ec:	00e79823          	sh	a4,16(a5)
D:\WCH\代码\3-PIT%20Demo\obj/../Libraries/wch_libraries/Peripheral/ch32v10x_tim.c:1890
}
    19f0:	0001                	nop
    19f2:	4472                	lw	s0,28(sp)
    19f4:	6105                	addi	sp,sp,32
    19f6:	8082                	ret

000019f8 <USART_Init>:
USART_Init():
D:\WCH\代码\3-PIT%20Demo\obj/../Libraries/wch_libraries/Peripheral/ch32v10x_usart.c:105
*                  USART_InitStruct: pointer to a USART_InitTypeDef structure
*      that contains the configuration information for the specified USART peripheral. 
* Return         : None
*******************************************************************************/
void USART_Init(USART_TypeDef* USARTx, USART_InitTypeDef* USART_InitStruct)
{
    19f8:	715d                	addi	sp,sp,-80
    19fa:	c686                	sw	ra,76(sp)
    19fc:	c4a2                	sw	s0,72(sp)
    19fe:	0880                	addi	s0,sp,80
    1a00:	faa42e23          	sw	a0,-68(s0)
    1a04:	fab42c23          	sw	a1,-72(s0)
D:\WCH\代码\3-PIT%20Demo\obj/../Libraries/wch_libraries/Peripheral/ch32v10x_usart.c:106
  uint32_t tmpreg = 0x00, apbclock = 0x00;
    1a08:	fe042623          	sw	zero,-20(s0)
    1a0c:	fe042423          	sw	zero,-24(s0)
D:\WCH\代码\3-PIT%20Demo\obj/../Libraries/wch_libraries/Peripheral/ch32v10x_usart.c:107
  uint32_t integerdivider = 0x00;
    1a10:	fe042223          	sw	zero,-28(s0)
D:\WCH\代码\3-PIT%20Demo\obj/../Libraries/wch_libraries/Peripheral/ch32v10x_usart.c:108
  uint32_t fractionaldivider = 0x00;
    1a14:	fe042023          	sw	zero,-32(s0)
D:\WCH\代码\3-PIT%20Demo\obj/../Libraries/wch_libraries/Peripheral/ch32v10x_usart.c:109
  uint32_t usartxbase = 0;
    1a18:	fc042e23          	sw	zero,-36(s0)
D:\WCH\代码\3-PIT%20Demo\obj/../Libraries/wch_libraries/Peripheral/ch32v10x_usart.c:116

  if (USART_InitStruct->USART_HardwareFlowControl != USART_HardwareFlowControl_None)
  {
  }

  usartxbase = (uint32_t)USARTx;
    1a1c:	fbc42783          	lw	a5,-68(s0)
    1a20:	fcf42e23          	sw	a5,-36(s0)
D:\WCH\代码\3-PIT%20Demo\obj/../Libraries/wch_libraries/Peripheral/ch32v10x_usart.c:117
  tmpreg = USARTx->CTLR2;
    1a24:	fbc42783          	lw	a5,-68(s0)
    1a28:	0107d783          	lhu	a5,16(a5)
    1a2c:	07c2                	slli	a5,a5,0x10
    1a2e:	83c1                	srli	a5,a5,0x10
    1a30:	fef42623          	sw	a5,-20(s0)
D:\WCH\代码\3-PIT%20Demo\obj/../Libraries/wch_libraries/Peripheral/ch32v10x_usart.c:118
  tmpreg &= CTLR2_STOP_CLEAR_Mask;
    1a34:	fec42703          	lw	a4,-20(s0)
    1a38:	67b5                	lui	a5,0xd
    1a3a:	17fd                	addi	a5,a5,-1
    1a3c:	8ff9                	and	a5,a5,a4
    1a3e:	fef42623          	sw	a5,-20(s0)
D:\WCH\代码\3-PIT%20Demo\obj/../Libraries/wch_libraries/Peripheral/ch32v10x_usart.c:119
  tmpreg |= (uint32_t)USART_InitStruct->USART_StopBits;  
    1a42:	fb842783          	lw	a5,-72(s0)
    1a46:	0067d783          	lhu	a5,6(a5) # d006 <_data_lma+0x7b4e>
    1a4a:	873e                	mv	a4,a5
    1a4c:	fec42783          	lw	a5,-20(s0)
    1a50:	8fd9                	or	a5,a5,a4
    1a52:	fef42623          	sw	a5,-20(s0)
D:\WCH\代码\3-PIT%20Demo\obj/../Libraries/wch_libraries/Peripheral/ch32v10x_usart.c:121
	
  USARTx->CTLR2 = (uint16_t)tmpreg;
    1a56:	fec42783          	lw	a5,-20(s0)
    1a5a:	01079713          	slli	a4,a5,0x10
    1a5e:	8341                	srli	a4,a4,0x10
    1a60:	fbc42783          	lw	a5,-68(s0)
    1a64:	00e79823          	sh	a4,16(a5)
D:\WCH\代码\3-PIT%20Demo\obj/../Libraries/wch_libraries/Peripheral/ch32v10x_usart.c:122
  tmpreg = USARTx->CTLR1;
    1a68:	fbc42783          	lw	a5,-68(s0)
    1a6c:	00c7d783          	lhu	a5,12(a5)
    1a70:	07c2                	slli	a5,a5,0x10
    1a72:	83c1                	srli	a5,a5,0x10
    1a74:	fef42623          	sw	a5,-20(s0)
D:\WCH\代码\3-PIT%20Demo\obj/../Libraries/wch_libraries/Peripheral/ch32v10x_usart.c:123
  tmpreg &= CTLR1_CLEAR_Mask;
    1a78:	fec42703          	lw	a4,-20(s0)
    1a7c:	67bd                	lui	a5,0xf
    1a7e:	9f378793          	addi	a5,a5,-1549 # e9f3 <_data_lma+0x953b>
    1a82:	8ff9                	and	a5,a5,a4
    1a84:	fef42623          	sw	a5,-20(s0)
D:\WCH\代码\3-PIT%20Demo\obj/../Libraries/wch_libraries/Peripheral/ch32v10x_usart.c:124
  tmpreg |= (uint32_t)USART_InitStruct->USART_WordLength | USART_InitStruct->USART_Parity |
    1a88:	fb842783          	lw	a5,-72(s0)
    1a8c:	0047d703          	lhu	a4,4(a5)
    1a90:	fb842783          	lw	a5,-72(s0)
    1a94:	0087d783          	lhu	a5,8(a5)
    1a98:	8fd9                	or	a5,a5,a4
    1a9a:	01079713          	slli	a4,a5,0x10
    1a9e:	8341                	srli	a4,a4,0x10
D:\WCH\代码\3-PIT%20Demo\obj/../Libraries/wch_libraries/Peripheral/ch32v10x_usart.c:125
            USART_InitStruct->USART_Mode;
    1aa0:	fb842783          	lw	a5,-72(s0)
    1aa4:	00a7d783          	lhu	a5,10(a5)
D:\WCH\代码\3-PIT%20Demo\obj/../Libraries/wch_libraries/Peripheral/ch32v10x_usart.c:124
  tmpreg |= (uint32_t)USART_InitStruct->USART_WordLength | USART_InitStruct->USART_Parity |
    1aa8:	8fd9                	or	a5,a5,a4
    1aaa:	07c2                	slli	a5,a5,0x10
    1aac:	83c1                	srli	a5,a5,0x10
    1aae:	873e                	mv	a4,a5
    1ab0:	fec42783          	lw	a5,-20(s0)
    1ab4:	8fd9                	or	a5,a5,a4
    1ab6:	fef42623          	sw	a5,-20(s0)
D:\WCH\代码\3-PIT%20Demo\obj/../Libraries/wch_libraries/Peripheral/ch32v10x_usart.c:126
  USARTx->CTLR1 = (uint16_t)tmpreg;
    1aba:	fec42783          	lw	a5,-20(s0)
    1abe:	01079713          	slli	a4,a5,0x10
    1ac2:	8341                	srli	a4,a4,0x10
    1ac4:	fbc42783          	lw	a5,-68(s0)
    1ac8:	00e79623          	sh	a4,12(a5)
D:\WCH\代码\3-PIT%20Demo\obj/../Libraries/wch_libraries/Peripheral/ch32v10x_usart.c:128
 
  tmpreg = USARTx->CTLR3;
    1acc:	fbc42783          	lw	a5,-68(s0)
    1ad0:	0147d783          	lhu	a5,20(a5)
    1ad4:	07c2                	slli	a5,a5,0x10
    1ad6:	83c1                	srli	a5,a5,0x10
    1ad8:	fef42623          	sw	a5,-20(s0)
D:\WCH\代码\3-PIT%20Demo\obj/../Libraries/wch_libraries/Peripheral/ch32v10x_usart.c:129
  tmpreg &= CTLR3_CLEAR_Mask;
    1adc:	fec42703          	lw	a4,-20(s0)
    1ae0:	67c1                	lui	a5,0x10
    1ae2:	cff78793          	addi	a5,a5,-769 # fcff <_data_lma+0xa847>
    1ae6:	8ff9                	and	a5,a5,a4
    1ae8:	fef42623          	sw	a5,-20(s0)
D:\WCH\代码\3-PIT%20Demo\obj/../Libraries/wch_libraries/Peripheral/ch32v10x_usart.c:130
  tmpreg |= USART_InitStruct->USART_HardwareFlowControl;
    1aec:	fb842783          	lw	a5,-72(s0)
    1af0:	00c7d783          	lhu	a5,12(a5)
    1af4:	873e                	mv	a4,a5
    1af6:	fec42783          	lw	a5,-20(s0)
    1afa:	8fd9                	or	a5,a5,a4
    1afc:	fef42623          	sw	a5,-20(s0)
D:\WCH\代码\3-PIT%20Demo\obj/../Libraries/wch_libraries/Peripheral/ch32v10x_usart.c:131
  USARTx->CTLR3 = (uint16_t)tmpreg;
    1b00:	fec42783          	lw	a5,-20(s0)
    1b04:	01079713          	slli	a4,a5,0x10
    1b08:	8341                	srli	a4,a4,0x10
    1b0a:	fbc42783          	lw	a5,-68(s0)
    1b0e:	00e79a23          	sh	a4,20(a5)
D:\WCH\代码\3-PIT%20Demo\obj/../Libraries/wch_libraries/Peripheral/ch32v10x_usart.c:133

  RCC_GetClocksFreq(&RCC_ClocksStatus);
    1b12:	fc840793          	addi	a5,s0,-56
    1b16:	853e                	mv	a0,a5
    1b18:	8caff0ef          	jal	ra,be2 <RCC_GetClocksFreq>
D:\WCH\代码\3-PIT%20Demo\obj/../Libraries/wch_libraries/Peripheral/ch32v10x_usart.c:135
	
  if (usartxbase == USART1_BASE)
    1b1c:	fdc42703          	lw	a4,-36(s0)
    1b20:	400147b7          	lui	a5,0x40014
    1b24:	80078793          	addi	a5,a5,-2048 # 40013800 <_eusrstack+0x2000e800>
    1b28:	00f71763          	bne	a4,a5,1b36 <USART_Init+0x13e>
D:\WCH\代码\3-PIT%20Demo\obj/../Libraries/wch_libraries/Peripheral/ch32v10x_usart.c:137
  {
    apbclock = RCC_ClocksStatus.PCLK2_Frequency;
    1b2c:	fd442783          	lw	a5,-44(s0)
    1b30:	fef42423          	sw	a5,-24(s0)
    1b34:	a029                	j	1b3e <USART_Init+0x146>
D:\WCH\代码\3-PIT%20Demo\obj/../Libraries/wch_libraries/Peripheral/ch32v10x_usart.c:141
  }
  else
  {
    apbclock = RCC_ClocksStatus.PCLK1_Frequency;
    1b36:	fd042783          	lw	a5,-48(s0)
    1b3a:	fef42423          	sw	a5,-24(s0)
D:\WCH\代码\3-PIT%20Demo\obj/../Libraries/wch_libraries/Peripheral/ch32v10x_usart.c:144
  }
  
  if ((USARTx->CTLR1 & CTLR1_OVER8_Set) != 0)
    1b3e:	fbc42783          	lw	a5,-68(s0)
    1b42:	00c7d783          	lhu	a5,12(a5)
    1b46:	07c2                	slli	a5,a5,0x10
    1b48:	83c1                	srli	a5,a5,0x10
    1b4a:	07c2                	slli	a5,a5,0x10
    1b4c:	87c1                	srai	a5,a5,0x10
    1b4e:	0207d263          	bgez	a5,1b72 <USART_Init+0x17a>
D:\WCH\代码\3-PIT%20Demo\obj/../Libraries/wch_libraries/Peripheral/ch32v10x_usart.c:146
  {
    integerdivider = ((25 * apbclock) / (2 * (USART_InitStruct->USART_BaudRate)));    
    1b52:	fe842703          	lw	a4,-24(s0)
    1b56:	87ba                	mv	a5,a4
    1b58:	0786                	slli	a5,a5,0x1
    1b5a:	97ba                	add	a5,a5,a4
    1b5c:	078e                	slli	a5,a5,0x3
    1b5e:	973e                	add	a4,a4,a5
    1b60:	fb842783          	lw	a5,-72(s0)
    1b64:	439c                	lw	a5,0(a5)
    1b66:	0786                	slli	a5,a5,0x1
    1b68:	02f757b3          	divu	a5,a4,a5
    1b6c:	fef42223          	sw	a5,-28(s0)
    1b70:	a005                	j	1b90 <USART_Init+0x198>
D:\WCH\代码\3-PIT%20Demo\obj/../Libraries/wch_libraries/Peripheral/ch32v10x_usart.c:150
  }
  else 
  {
    integerdivider = ((25 * apbclock) / (4 * (USART_InitStruct->USART_BaudRate)));    
    1b72:	fe842703          	lw	a4,-24(s0)
    1b76:	87ba                	mv	a5,a4
    1b78:	0786                	slli	a5,a5,0x1
    1b7a:	97ba                	add	a5,a5,a4
    1b7c:	078e                	slli	a5,a5,0x3
    1b7e:	973e                	add	a4,a4,a5
    1b80:	fb842783          	lw	a5,-72(s0)
    1b84:	439c                	lw	a5,0(a5)
    1b86:	078a                	slli	a5,a5,0x2
    1b88:	02f757b3          	divu	a5,a4,a5
    1b8c:	fef42223          	sw	a5,-28(s0)
D:\WCH\代码\3-PIT%20Demo\obj/../Libraries/wch_libraries/Peripheral/ch32v10x_usart.c:152
  }
  tmpreg = (integerdivider / 100) << 4;
    1b90:	fe442703          	lw	a4,-28(s0)
    1b94:	06400793          	li	a5,100
    1b98:	02f757b3          	divu	a5,a4,a5
    1b9c:	0792                	slli	a5,a5,0x4
    1b9e:	fef42623          	sw	a5,-20(s0)
D:\WCH\代码\3-PIT%20Demo\obj/../Libraries/wch_libraries/Peripheral/ch32v10x_usart.c:154

  fractionaldivider = integerdivider - (100 * (tmpreg >> 4));
    1ba2:	fec42783          	lw	a5,-20(s0)
    1ba6:	0047d713          	srli	a4,a5,0x4
    1baa:	06400793          	li	a5,100
    1bae:	02f707b3          	mul	a5,a4,a5
    1bb2:	fe442703          	lw	a4,-28(s0)
    1bb6:	40f707b3          	sub	a5,a4,a5
    1bba:	fef42023          	sw	a5,-32(s0)
D:\WCH\代码\3-PIT%20Demo\obj/../Libraries/wch_libraries/Peripheral/ch32v10x_usart.c:156

  if ((USARTx->CTLR1 & CTLR1_OVER8_Set) != 0)
    1bbe:	fbc42783          	lw	a5,-68(s0)
    1bc2:	00c7d783          	lhu	a5,12(a5)
    1bc6:	07c2                	slli	a5,a5,0x10
    1bc8:	83c1                	srli	a5,a5,0x10
    1bca:	07c2                	slli	a5,a5,0x10
    1bcc:	87c1                	srai	a5,a5,0x10
    1bce:	0207d263          	bgez	a5,1bf2 <USART_Init+0x1fa>
D:\WCH\代码\3-PIT%20Demo\obj/../Libraries/wch_libraries/Peripheral/ch32v10x_usart.c:158
  {
    tmpreg |= ((((fractionaldivider * 8) + 50) / 100)) & ((uint8_t)0x07);
    1bd2:	fe042783          	lw	a5,-32(s0)
    1bd6:	078e                	slli	a5,a5,0x3
    1bd8:	03278713          	addi	a4,a5,50
    1bdc:	06400793          	li	a5,100
    1be0:	02f757b3          	divu	a5,a4,a5
    1be4:	8b9d                	andi	a5,a5,7
    1be6:	fec42703          	lw	a4,-20(s0)
    1bea:	8fd9                	or	a5,a5,a4
    1bec:	fef42623          	sw	a5,-20(s0)
    1bf0:	a005                	j	1c10 <USART_Init+0x218>
D:\WCH\代码\3-PIT%20Demo\obj/../Libraries/wch_libraries/Peripheral/ch32v10x_usart.c:162
  }
  else 
  {
    tmpreg |= ((((fractionaldivider * 16) + 50) / 100)) & ((uint8_t)0x0F);
    1bf2:	fe042783          	lw	a5,-32(s0)
    1bf6:	0792                	slli	a5,a5,0x4
    1bf8:	03278713          	addi	a4,a5,50
    1bfc:	06400793          	li	a5,100
    1c00:	02f757b3          	divu	a5,a4,a5
    1c04:	8bbd                	andi	a5,a5,15
    1c06:	fec42703          	lw	a4,-20(s0)
    1c0a:	8fd9                	or	a5,a5,a4
    1c0c:	fef42623          	sw	a5,-20(s0)
D:\WCH\代码\3-PIT%20Demo\obj/../Libraries/wch_libraries/Peripheral/ch32v10x_usart.c:165
  }
  
  USARTx->BRR = (uint16_t)tmpreg;
    1c10:	fec42783          	lw	a5,-20(s0)
    1c14:	01079713          	slli	a4,a5,0x10
    1c18:	8341                	srli	a4,a4,0x10
    1c1a:	fbc42783          	lw	a5,-68(s0)
    1c1e:	00e79423          	sh	a4,8(a5)
D:\WCH\代码\3-PIT%20Demo\obj/../Libraries/wch_libraries/Peripheral/ch32v10x_usart.c:166
}
    1c22:	0001                	nop
    1c24:	40b6                	lw	ra,76(sp)
    1c26:	4426                	lw	s0,72(sp)
    1c28:	6161                	addi	sp,sp,80
    1c2a:	8082                	ret

00001c2c <USART_Cmd>:
USART_Cmd():
D:\WCH\代码\3-PIT%20Demo\obj/../Libraries/wch_libraries/Peripheral/ch32v10x_usart.c:229
* Input          : USARTx: where x can be 1, 2, 3 to select the USART peripheral.
*                  NewState: ENABLE or DISABLE.
* Return         : None
*******************************************************************************/
void USART_Cmd(USART_TypeDef* USARTx, FunctionalState NewState)
{
    1c2c:	1101                	addi	sp,sp,-32
    1c2e:	ce22                	sw	s0,28(sp)
    1c30:	1000                	addi	s0,sp,32
    1c32:	fea42623          	sw	a0,-20(s0)
    1c36:	feb42423          	sw	a1,-24(s0)
D:\WCH\代码\3-PIT%20Demo\obj/../Libraries/wch_libraries/Peripheral/ch32v10x_usart.c:230
  if (NewState != DISABLE)
    1c3a:	fe842783          	lw	a5,-24(s0)
    1c3e:	c395                	beqz	a5,1c62 <USART_Cmd+0x36>
D:\WCH\代码\3-PIT%20Demo\obj/../Libraries/wch_libraries/Peripheral/ch32v10x_usart.c:232
  {
    USARTx->CTLR1 |= CTLR1_UE_Set;
    1c40:	fec42783          	lw	a5,-20(s0)
    1c44:	00c7d783          	lhu	a5,12(a5)
    1c48:	01079713          	slli	a4,a5,0x10
    1c4c:	8341                	srli	a4,a4,0x10
    1c4e:	6789                	lui	a5,0x2
    1c50:	8fd9                	or	a5,a5,a4
    1c52:	01079713          	slli	a4,a5,0x10
    1c56:	8341                	srli	a4,a4,0x10
    1c58:	fec42783          	lw	a5,-20(s0)
    1c5c:	00e79623          	sh	a4,12(a5) # 200c <oled_wrcmd+0x24>
D:\WCH\代码\3-PIT%20Demo\obj/../Libraries/wch_libraries/Peripheral/ch32v10x_usart.c:238
  }
  else
  {
    USARTx->CTLR1 &= CTLR1_UE_Reset;
  }
}
    1c60:	a015                	j	1c84 <USART_Cmd+0x58>
D:\WCH\代码\3-PIT%20Demo\obj/../Libraries/wch_libraries/Peripheral/ch32v10x_usart.c:236
    USARTx->CTLR1 &= CTLR1_UE_Reset;
    1c62:	fec42783          	lw	a5,-20(s0)
    1c66:	00c7d783          	lhu	a5,12(a5)
    1c6a:	01079713          	slli	a4,a5,0x10
    1c6e:	8341                	srli	a4,a4,0x10
    1c70:	77f9                	lui	a5,0xffffe
    1c72:	17fd                	addi	a5,a5,-1
    1c74:	8ff9                	and	a5,a5,a4
    1c76:	01079713          	slli	a4,a5,0x10
    1c7a:	8341                	srli	a4,a4,0x10
    1c7c:	fec42783          	lw	a5,-20(s0)
    1c80:	00e79623          	sh	a4,12(a5) # ffffe00c <_eusrstack+0xdfff900c>
D:\WCH\代码\3-PIT%20Demo\obj/../Libraries/wch_libraries/Peripheral/ch32v10x_usart.c:238
}
    1c84:	0001                	nop
    1c86:	4472                	lw	s0,28(sp)
    1c88:	6105                	addi	sp,sp,32
    1c8a:	8082                	ret

00001c8c <USART_ITConfig>:
USART_ITConfig():
D:\WCH\代码\3-PIT%20Demo\obj/../Libraries/wch_libraries/Peripheral/ch32v10x_usart.c:257
*                    USART_IT_ERR:  Error interrupt.
*                  NewState: ENABLE or DISABLE.
* Return         : None
*******************************************************************************/
void USART_ITConfig(USART_TypeDef* USARTx, uint16_t USART_IT, FunctionalState NewState)
{
    1c8c:	7179                	addi	sp,sp,-48
    1c8e:	d622                	sw	s0,44(sp)
    1c90:	1800                	addi	s0,sp,48
    1c92:	fca42e23          	sw	a0,-36(s0)
    1c96:	87ae                	mv	a5,a1
    1c98:	fcc42a23          	sw	a2,-44(s0)
    1c9c:	fcf41d23          	sh	a5,-38(s0)
D:\WCH\代码\3-PIT%20Demo\obj/../Libraries/wch_libraries/Peripheral/ch32v10x_usart.c:258
  uint32_t usartreg = 0x00, itpos = 0x00, itmask = 0x00;
    1ca0:	fe042423          	sw	zero,-24(s0)
    1ca4:	fe042223          	sw	zero,-28(s0)
    1ca8:	fe042023          	sw	zero,-32(s0)
D:\WCH\代码\3-PIT%20Demo\obj/../Libraries/wch_libraries/Peripheral/ch32v10x_usart.c:259
  uint32_t usartxbase = 0x00;
    1cac:	fe042623          	sw	zero,-20(s0)
D:\WCH\代码\3-PIT%20Demo\obj/../Libraries/wch_libraries/Peripheral/ch32v10x_usart.c:265

  if (USART_IT == USART_IT_CTS)
  {
  }   
  
  usartxbase = (uint32_t)USARTx;
    1cb0:	fdc42783          	lw	a5,-36(s0)
    1cb4:	fef42623          	sw	a5,-20(s0)
D:\WCH\代码\3-PIT%20Demo\obj/../Libraries/wch_libraries/Peripheral/ch32v10x_usart.c:266
  usartreg = (((uint8_t)USART_IT) >> 0x05);
    1cb8:	fda45783          	lhu	a5,-38(s0)
    1cbc:	0ff7f793          	andi	a5,a5,255
    1cc0:	8395                	srli	a5,a5,0x5
    1cc2:	0ff7f793          	andi	a5,a5,255
    1cc6:	fef42423          	sw	a5,-24(s0)
D:\WCH\代码\3-PIT%20Demo\obj/../Libraries/wch_libraries/Peripheral/ch32v10x_usart.c:267
  itpos = USART_IT & IT_Mask;
    1cca:	fda45783          	lhu	a5,-38(s0)
    1cce:	8bfd                	andi	a5,a5,31
    1cd0:	fef42223          	sw	a5,-28(s0)
D:\WCH\代码\3-PIT%20Demo\obj/../Libraries/wch_libraries/Peripheral/ch32v10x_usart.c:268
  itmask = (((uint32_t)0x01) << itpos);
    1cd4:	fe442783          	lw	a5,-28(s0)
    1cd8:	4705                	li	a4,1
    1cda:	00f717b3          	sll	a5,a4,a5
    1cde:	fef42023          	sw	a5,-32(s0)
D:\WCH\代码\3-PIT%20Demo\obj/../Libraries/wch_libraries/Peripheral/ch32v10x_usart.c:270
    
  if (usartreg == 0x01) 
    1ce2:	fe842703          	lw	a4,-24(s0)
    1ce6:	4785                	li	a5,1
    1ce8:	00f71863          	bne	a4,a5,1cf8 <USART_ITConfig+0x6c>
D:\WCH\代码\3-PIT%20Demo\obj/../Libraries/wch_libraries/Peripheral/ch32v10x_usart.c:272
  {
    usartxbase += 0x0C;
    1cec:	fec42783          	lw	a5,-20(s0)
    1cf0:	07b1                	addi	a5,a5,12
    1cf2:	fef42623          	sw	a5,-20(s0)
    1cf6:	a00d                	j	1d18 <USART_ITConfig+0x8c>
D:\WCH\代码\3-PIT%20Demo\obj/../Libraries/wch_libraries/Peripheral/ch32v10x_usart.c:274
  }
  else if (usartreg == 0x02) 
    1cf8:	fe842703          	lw	a4,-24(s0)
    1cfc:	4789                	li	a5,2
    1cfe:	00f71863          	bne	a4,a5,1d0e <USART_ITConfig+0x82>
D:\WCH\代码\3-PIT%20Demo\obj/../Libraries/wch_libraries/Peripheral/ch32v10x_usart.c:276
  {
    usartxbase += 0x10;
    1d02:	fec42783          	lw	a5,-20(s0)
    1d06:	07c1                	addi	a5,a5,16
    1d08:	fef42623          	sw	a5,-20(s0)
    1d0c:	a031                	j	1d18 <USART_ITConfig+0x8c>
D:\WCH\代码\3-PIT%20Demo\obj/../Libraries/wch_libraries/Peripheral/ch32v10x_usart.c:280
  }
  else 
  {
    usartxbase += 0x14; 
    1d0e:	fec42783          	lw	a5,-20(s0)
    1d12:	07d1                	addi	a5,a5,20
    1d14:	fef42623          	sw	a5,-20(s0)
D:\WCH\代码\3-PIT%20Demo\obj/../Libraries/wch_libraries/Peripheral/ch32v10x_usart.c:283
  }
	
  if (NewState != DISABLE)
    1d18:	fd442783          	lw	a5,-44(s0)
    1d1c:	cb99                	beqz	a5,1d32 <USART_ITConfig+0xa6>
D:\WCH\代码\3-PIT%20Demo\obj/../Libraries/wch_libraries/Peripheral/ch32v10x_usart.c:285
  {
    *(__IO uint32_t*)usartxbase  |= itmask;
    1d1e:	fec42783          	lw	a5,-20(s0)
    1d22:	4394                	lw	a3,0(a5)
    1d24:	fec42783          	lw	a5,-20(s0)
    1d28:	fe042703          	lw	a4,-32(s0)
    1d2c:	8f55                	or	a4,a4,a3
    1d2e:	c398                	sw	a4,0(a5)
D:\WCH\代码\3-PIT%20Demo\obj/../Libraries/wch_libraries/Peripheral/ch32v10x_usart.c:291
  }
  else
  {
    *(__IO uint32_t*)usartxbase &= ~itmask;
  }
}
    1d30:	a821                	j	1d48 <USART_ITConfig+0xbc>
D:\WCH\代码\3-PIT%20Demo\obj/../Libraries/wch_libraries/Peripheral/ch32v10x_usart.c:289
    *(__IO uint32_t*)usartxbase &= ~itmask;
    1d32:	fec42783          	lw	a5,-20(s0)
    1d36:	4394                	lw	a3,0(a5)
    1d38:	fe042783          	lw	a5,-32(s0)
    1d3c:	fff7c713          	not	a4,a5
    1d40:	fec42783          	lw	a5,-20(s0)
    1d44:	8f75                	and	a4,a4,a3
    1d46:	c398                	sw	a4,0(a5)
D:\WCH\代码\3-PIT%20Demo\obj/../Libraries/wch_libraries/Peripheral/ch32v10x_usart.c:291
}
    1d48:	0001                	nop
    1d4a:	5432                	lw	s0,44(sp)
    1d4c:	6145                	addi	sp,sp,48
    1d4e:	8082                	ret

00001d50 <USART_SendData>:
USART_SendData():
D:\WCH\代码\3-PIT%20Demo\obj/../Libraries/wch_libraries/Peripheral/ch32v10x_usart.c:404
* Input          : USARTx: where x can be 1, 2, 3 to select the USART peripheral.
*                  Data: the data to transmit..
* Return         : None
*******************************************************************************/
void USART_SendData(USART_TypeDef* USARTx, uint16_t Data)
{
    1d50:	1101                	addi	sp,sp,-32
    1d52:	ce22                	sw	s0,28(sp)
    1d54:	1000                	addi	s0,sp,32
    1d56:	fea42623          	sw	a0,-20(s0)
    1d5a:	87ae                	mv	a5,a1
    1d5c:	fef41523          	sh	a5,-22(s0)
D:\WCH\代码\3-PIT%20Demo\obj/../Libraries/wch_libraries/Peripheral/ch32v10x_usart.c:405
  USARTx->DATAR = (Data & (uint16_t)0x01FF);
    1d60:	fea45783          	lhu	a5,-22(s0)
    1d64:	1ff7f793          	andi	a5,a5,511
    1d68:	01079713          	slli	a4,a5,0x10
    1d6c:	8341                	srli	a4,a4,0x10
    1d6e:	fec42783          	lw	a5,-20(s0)
    1d72:	00e79223          	sh	a4,4(a5)
D:\WCH\代码\3-PIT%20Demo\obj/../Libraries/wch_libraries/Peripheral/ch32v10x_usart.c:406
}
    1d76:	0001                	nop
    1d78:	4472                	lw	s0,28(sp)
    1d7a:	6105                	addi	sp,sp,32
    1d7c:	8082                	ret

00001d7e <USART_ReceiveData>:
USART_ReceiveData():
D:\WCH\代码\3-PIT%20Demo\obj/../Libraries/wch_libraries/Peripheral/ch32v10x_usart.c:415
* Description    : Returns the most recent received data by the USARTx peripheral.
* Input          : USARTx: where x can be 1, 2, 3 to select the USART peripheral.
* Return         : The received data.
*******************************************************************************/
uint16_t USART_ReceiveData(USART_TypeDef* USARTx)
{
    1d7e:	1101                	addi	sp,sp,-32
    1d80:	ce22                	sw	s0,28(sp)
    1d82:	1000                	addi	s0,sp,32
    1d84:	fea42623          	sw	a0,-20(s0)
D:\WCH\代码\3-PIT%20Demo\obj/../Libraries/wch_libraries/Peripheral/ch32v10x_usart.c:416
  return (uint16_t)(USARTx->DATAR & (uint16_t)0x01FF);
    1d88:	fec42783          	lw	a5,-20(s0)
    1d8c:	0047d783          	lhu	a5,4(a5)
    1d90:	07c2                	slli	a5,a5,0x10
    1d92:	83c1                	srli	a5,a5,0x10
    1d94:	1ff7f793          	andi	a5,a5,511
    1d98:	07c2                	slli	a5,a5,0x10
    1d9a:	83c1                	srli	a5,a5,0x10
D:\WCH\代码\3-PIT%20Demo\obj/../Libraries/wch_libraries/Peripheral/ch32v10x_usart.c:417
}
    1d9c:	853e                	mv	a0,a5
    1d9e:	4472                	lw	s0,28(sp)
    1da0:	6105                	addi	sp,sp,32
    1da2:	8082                	ret

00001da4 <USART_GetFlagStatus>:
USART_GetFlagStatus():
D:\WCH\代码\3-PIT%20Demo\obj/../Libraries/wch_libraries/Peripheral/ch32v10x_usart.c:603
*                    USART_FLAG_FE: Framing Error flag.
*                    USART_FLAG_PE: Parity Error flag.
* Return         : bitstatus: SET or RESET.
*******************************************************************************/
FlagStatus USART_GetFlagStatus(USART_TypeDef* USARTx, uint16_t USART_FLAG)
{
    1da4:	7179                	addi	sp,sp,-48
    1da6:	d622                	sw	s0,44(sp)
    1da8:	1800                	addi	s0,sp,48
    1daa:	fca42e23          	sw	a0,-36(s0)
    1dae:	87ae                	mv	a5,a1
    1db0:	fcf41d23          	sh	a5,-38(s0)
D:\WCH\代码\3-PIT%20Demo\obj/../Libraries/wch_libraries/Peripheral/ch32v10x_usart.c:604
  FlagStatus bitstatus = RESET;
    1db4:	fe042623          	sw	zero,-20(s0)
D:\WCH\代码\3-PIT%20Demo\obj/../Libraries/wch_libraries/Peripheral/ch32v10x_usart.c:610

  if (USART_FLAG == USART_FLAG_CTS)
  {
  }  
  
  if ((USARTx->STATR & USART_FLAG) != (uint16_t)RESET)
    1db8:	fdc42783          	lw	a5,-36(s0)
    1dbc:	0007d783          	lhu	a5,0(a5)
    1dc0:	01079713          	slli	a4,a5,0x10
    1dc4:	8341                	srli	a4,a4,0x10
    1dc6:	fda45783          	lhu	a5,-38(s0)
    1dca:	8ff9                	and	a5,a5,a4
    1dcc:	07c2                	slli	a5,a5,0x10
    1dce:	83c1                	srli	a5,a5,0x10
    1dd0:	c789                	beqz	a5,1dda <USART_GetFlagStatus+0x36>
D:\WCH\代码\3-PIT%20Demo\obj/../Libraries/wch_libraries/Peripheral/ch32v10x_usart.c:612
  {
    bitstatus = SET;
    1dd2:	4785                	li	a5,1
    1dd4:	fef42623          	sw	a5,-20(s0)
    1dd8:	a019                	j	1dde <USART_GetFlagStatus+0x3a>
D:\WCH\代码\3-PIT%20Demo\obj/../Libraries/wch_libraries/Peripheral/ch32v10x_usart.c:616
  }
  else
  {
    bitstatus = RESET;
    1dda:	fe042623          	sw	zero,-20(s0)
D:\WCH\代码\3-PIT%20Demo\obj/../Libraries/wch_libraries/Peripheral/ch32v10x_usart.c:618
  }
  return bitstatus;
    1dde:	fec42783          	lw	a5,-20(s0)
D:\WCH\代码\3-PIT%20Demo\obj/../Libraries/wch_libraries/Peripheral/ch32v10x_usart.c:619
}
    1de2:	853e                	mv	a0,a5
    1de4:	5432                	lw	s0,44(sp)
    1de6:	6145                	addi	sp,sp,48
    1de8:	8082                	ret

00001dea <USART_GetITStatus>:
USART_GetITStatus():
D:\WCH\代码\3-PIT%20Demo\obj/../Libraries/wch_libraries/Peripheral/ch32v10x_usart.c:660
*                    USART_IT_FE: Framing Error interrupt.
*                    USART_IT_PE: Parity Error interrupt.
* Return         : bitstatus: SET or RESET.
*******************************************************************************/
ITStatus USART_GetITStatus(USART_TypeDef* USARTx, uint16_t USART_IT)
{
    1dea:	7179                	addi	sp,sp,-48
    1dec:	d622                	sw	s0,44(sp)
    1dee:	1800                	addi	s0,sp,48
    1df0:	fca42e23          	sw	a0,-36(s0)
    1df4:	87ae                	mv	a5,a1
    1df6:	fcf41d23          	sh	a5,-38(s0)
D:\WCH\代码\3-PIT%20Demo\obj/../Libraries/wch_libraries/Peripheral/ch32v10x_usart.c:661
  uint32_t bitpos = 0x00, itmask = 0x00, usartreg = 0x00;
    1dfa:	fe042223          	sw	zero,-28(s0)
    1dfe:	fe042623          	sw	zero,-20(s0)
    1e02:	fe042023          	sw	zero,-32(s0)
D:\WCH\代码\3-PIT%20Demo\obj/../Libraries/wch_libraries/Peripheral/ch32v10x_usart.c:662
  ITStatus bitstatus = RESET;
    1e06:	fe042423          	sw	zero,-24(s0)
D:\WCH\代码\3-PIT%20Demo\obj/../Libraries/wch_libraries/Peripheral/ch32v10x_usart.c:668

  if (USART_IT == USART_IT_CTS)
  {
  }   
  
  usartreg = (((uint8_t)USART_IT) >> 0x05);
    1e0a:	fda45783          	lhu	a5,-38(s0)
    1e0e:	0ff7f793          	andi	a5,a5,255
    1e12:	8395                	srli	a5,a5,0x5
    1e14:	0ff7f793          	andi	a5,a5,255
    1e18:	fef42023          	sw	a5,-32(s0)
D:\WCH\代码\3-PIT%20Demo\obj/../Libraries/wch_libraries/Peripheral/ch32v10x_usart.c:669
  itmask = USART_IT & IT_Mask;
    1e1c:	fda45783          	lhu	a5,-38(s0)
    1e20:	8bfd                	andi	a5,a5,31
    1e22:	fef42623          	sw	a5,-20(s0)
D:\WCH\代码\3-PIT%20Demo\obj/../Libraries/wch_libraries/Peripheral/ch32v10x_usart.c:670
  itmask = (uint32_t)0x01 << itmask;
    1e26:	fec42783          	lw	a5,-20(s0)
    1e2a:	4705                	li	a4,1
    1e2c:	00f717b3          	sll	a5,a4,a5
    1e30:	fef42623          	sw	a5,-20(s0)
D:\WCH\代码\3-PIT%20Demo\obj/../Libraries/wch_libraries/Peripheral/ch32v10x_usart.c:672
  
  if (usartreg == 0x01) 
    1e34:	fe042703          	lw	a4,-32(s0)
    1e38:	4785                	li	a5,1
    1e3a:	00f71f63          	bne	a4,a5,1e58 <USART_GetITStatus+0x6e>
D:\WCH\代码\3-PIT%20Demo\obj/../Libraries/wch_libraries/Peripheral/ch32v10x_usart.c:674
  {
    itmask &= USARTx->CTLR1;
    1e3e:	fdc42783          	lw	a5,-36(s0)
    1e42:	00c7d783          	lhu	a5,12(a5)
    1e46:	07c2                	slli	a5,a5,0x10
    1e48:	83c1                	srli	a5,a5,0x10
    1e4a:	873e                	mv	a4,a5
    1e4c:	fec42783          	lw	a5,-20(s0)
    1e50:	8ff9                	and	a5,a5,a4
    1e52:	fef42623          	sw	a5,-20(s0)
    1e56:	a83d                	j	1e94 <USART_GetITStatus+0xaa>
D:\WCH\代码\3-PIT%20Demo\obj/../Libraries/wch_libraries/Peripheral/ch32v10x_usart.c:676
  }
  else if (usartreg == 0x02) 
    1e58:	fe042703          	lw	a4,-32(s0)
    1e5c:	4789                	li	a5,2
    1e5e:	00f71f63          	bne	a4,a5,1e7c <USART_GetITStatus+0x92>
D:\WCH\代码\3-PIT%20Demo\obj/../Libraries/wch_libraries/Peripheral/ch32v10x_usart.c:678
  {
    itmask &= USARTx->CTLR2;
    1e62:	fdc42783          	lw	a5,-36(s0)
    1e66:	0107d783          	lhu	a5,16(a5)
    1e6a:	07c2                	slli	a5,a5,0x10
    1e6c:	83c1                	srli	a5,a5,0x10
    1e6e:	873e                	mv	a4,a5
    1e70:	fec42783          	lw	a5,-20(s0)
    1e74:	8ff9                	and	a5,a5,a4
    1e76:	fef42623          	sw	a5,-20(s0)
    1e7a:	a829                	j	1e94 <USART_GetITStatus+0xaa>
D:\WCH\代码\3-PIT%20Demo\obj/../Libraries/wch_libraries/Peripheral/ch32v10x_usart.c:682
  }
  else 
  {
    itmask &= USARTx->CTLR3;
    1e7c:	fdc42783          	lw	a5,-36(s0)
    1e80:	0147d783          	lhu	a5,20(a5)
    1e84:	07c2                	slli	a5,a5,0x10
    1e86:	83c1                	srli	a5,a5,0x10
    1e88:	873e                	mv	a4,a5
    1e8a:	fec42783          	lw	a5,-20(s0)
    1e8e:	8ff9                	and	a5,a5,a4
    1e90:	fef42623          	sw	a5,-20(s0)
D:\WCH\代码\3-PIT%20Demo\obj/../Libraries/wch_libraries/Peripheral/ch32v10x_usart.c:685
  }
  
  bitpos = USART_IT >> 0x08;
    1e94:	fda45783          	lhu	a5,-38(s0)
    1e98:	83a1                	srli	a5,a5,0x8
    1e9a:	07c2                	slli	a5,a5,0x10
    1e9c:	83c1                	srli	a5,a5,0x10
    1e9e:	fef42223          	sw	a5,-28(s0)
D:\WCH\代码\3-PIT%20Demo\obj/../Libraries/wch_libraries/Peripheral/ch32v10x_usart.c:686
  bitpos = (uint32_t)0x01 << bitpos;
    1ea2:	fe442783          	lw	a5,-28(s0)
    1ea6:	4705                	li	a4,1
    1ea8:	00f717b3          	sll	a5,a4,a5
    1eac:	fef42223          	sw	a5,-28(s0)
D:\WCH\代码\3-PIT%20Demo\obj/../Libraries/wch_libraries/Peripheral/ch32v10x_usart.c:687
  bitpos &= USARTx->STATR;
    1eb0:	fdc42783          	lw	a5,-36(s0)
    1eb4:	0007d783          	lhu	a5,0(a5)
    1eb8:	07c2                	slli	a5,a5,0x10
    1eba:	83c1                	srli	a5,a5,0x10
    1ebc:	873e                	mv	a4,a5
    1ebe:	fe442783          	lw	a5,-28(s0)
    1ec2:	8ff9                	and	a5,a5,a4
    1ec4:	fef42223          	sw	a5,-28(s0)
D:\WCH\代码\3-PIT%20Demo\obj/../Libraries/wch_libraries/Peripheral/ch32v10x_usart.c:689
	
  if ((itmask != (uint16_t)RESET)&&(bitpos != (uint16_t)RESET))
    1ec8:	fec42783          	lw	a5,-20(s0)
    1ecc:	cb81                	beqz	a5,1edc <USART_GetITStatus+0xf2>
D:\WCH\代码\3-PIT%20Demo\obj/../Libraries/wch_libraries/Peripheral/ch32v10x_usart.c:689 (discriminator 1)
    1ece:	fe442783          	lw	a5,-28(s0)
    1ed2:	c789                	beqz	a5,1edc <USART_GetITStatus+0xf2>
D:\WCH\代码\3-PIT%20Demo\obj/../Libraries/wch_libraries/Peripheral/ch32v10x_usart.c:691
  {
    bitstatus = SET;
    1ed4:	4785                	li	a5,1
    1ed6:	fef42423          	sw	a5,-24(s0)
    1eda:	a019                	j	1ee0 <USART_GetITStatus+0xf6>
D:\WCH\代码\3-PIT%20Demo\obj/../Libraries/wch_libraries/Peripheral/ch32v10x_usart.c:695
  }
  else
  {
    bitstatus = RESET;
    1edc:	fe042423          	sw	zero,-24(s0)
D:\WCH\代码\3-PIT%20Demo\obj/../Libraries/wch_libraries/Peripheral/ch32v10x_usart.c:698
  }
  
  return bitstatus;  
    1ee0:	fe842783          	lw	a5,-24(s0)
D:\WCH\代码\3-PIT%20Demo\obj/../Libraries/wch_libraries/Peripheral/ch32v10x_usart.c:699
}
    1ee4:	853e                	mv	a0,a5
    1ee6:	5432                	lw	s0,44(sp)
    1ee8:	6145                	addi	sp,sp,48
    1eea:	8082                	ret

00001eec <USART_ClearITPendingBit>:
USART_ClearITPendingBit():
D:\WCH\代码\3-PIT%20Demo\obj/../Libraries/wch_libraries/Peripheral/ch32v10x_usart.c:713
*                    USART_IT_TC:   Transmission complete interrupt.
*                    USART_IT_RXNE: Receive Data register not empty interrupt.
* Return         : None
*******************************************************************************/
void USART_ClearITPendingBit(USART_TypeDef* USARTx, uint16_t USART_IT)
{
    1eec:	7179                	addi	sp,sp,-48
    1eee:	d622                	sw	s0,44(sp)
    1ef0:	1800                	addi	s0,sp,48
    1ef2:	fca42e23          	sw	a0,-36(s0)
    1ef6:	87ae                	mv	a5,a1
    1ef8:	fcf41d23          	sh	a5,-38(s0)
D:\WCH\代码\3-PIT%20Demo\obj/../Libraries/wch_libraries/Peripheral/ch32v10x_usart.c:714
  uint16_t bitpos = 0x00, itmask = 0x00;
    1efc:	fe041723          	sh	zero,-18(s0)
    1f00:	fe041623          	sh	zero,-20(s0)
D:\WCH\代码\3-PIT%20Demo\obj/../Libraries/wch_libraries/Peripheral/ch32v10x_usart.c:720

  if (USART_IT == USART_IT_CTS)
  {
  }   
  
  bitpos = USART_IT >> 0x08;
    1f04:	fda45783          	lhu	a5,-38(s0)
    1f08:	83a1                	srli	a5,a5,0x8
    1f0a:	fef41723          	sh	a5,-18(s0)
D:\WCH\代码\3-PIT%20Demo\obj/../Libraries/wch_libraries/Peripheral/ch32v10x_usart.c:721
  itmask = ((uint16_t)0x01 << (uint16_t)bitpos);
    1f0e:	fee45783          	lhu	a5,-18(s0)
    1f12:	4705                	li	a4,1
    1f14:	00f717b3          	sll	a5,a4,a5
    1f18:	fef41623          	sh	a5,-20(s0)
D:\WCH\代码\3-PIT%20Demo\obj/../Libraries/wch_libraries/Peripheral/ch32v10x_usart.c:722
  USARTx->STATR = (uint16_t)~itmask;
    1f1c:	fec45783          	lhu	a5,-20(s0)
    1f20:	fff7c793          	not	a5,a5
    1f24:	01079713          	slli	a4,a5,0x10
    1f28:	8341                	srli	a4,a4,0x10
    1f2a:	fdc42783          	lw	a5,-36(s0)
    1f2e:	00e79023          	sh	a4,0(a5)
D:\WCH\代码\3-PIT%20Demo\obj/../Libraries/wch_libraries/Peripheral/ch32v10x_usart.c:723
}
    1f32:	0001                	nop
    1f34:	5432                	lw	s0,44(sp)
    1f36:	6145                	addi	sp,sp,48
    1f38:	8082                	ret

00001f3a <oled_wrdat>:
oled_wrdat():
D:\WCH\代码\3-PIT%20Demo\obj/../Libraries/seekfree_peripheral/SEEKFREE_OLED.c:55
//  @return
//  @since      v1.0
//  Sample usage:               
//-------------------------------------------------------------------------------------------------------------------
void oled_wrdat(uint8 data)
{
    1f3a:	7179                	addi	sp,sp,-48
    1f3c:	d622                	sw	s0,44(sp)
    1f3e:	1800                	addi	s0,sp,48
    1f40:	87aa                	mv	a5,a0
    1f42:	fcf40fa3          	sb	a5,-33(s0)
D:\WCH\代码\3-PIT%20Demo\obj/../Libraries/seekfree_peripheral/SEEKFREE_OLED.c:56
    uint8 i=8;
    1f46:	47a1                	li	a5,8
    1f48:	fef407a3          	sb	a5,-17(s0)
D:\WCH\代码\3-PIT%20Demo\obj/../Libraries/seekfree_peripheral/SEEKFREE_OLED.c:58

    OLED_CS(0); //使能信号端，拉低时正常使用
    1f4c:	6795                	lui	a5,0x5
    1f4e:	39478793          	addi	a5,a5,916 # 5394 <GPION>
    1f52:	479c                	lw	a5,8(a5)
    1f54:	873e                	mv	a4,a5
    1f56:	67a1                	lui	a5,0x8
    1f58:	cb5c                	sw	a5,20(a4)
D:\WCH\代码\3-PIT%20Demo\obj/../Libraries/seekfree_peripheral/SEEKFREE_OLED.c:59
    OLED_DC(1);
    1f5a:	6795                	lui	a5,0x5
    1f5c:	39478793          	addi	a5,a5,916 # 5394 <GPION>
    1f60:	479c                	lw	a5,8(a5)
    1f62:	873e                	mv	a4,a5
    1f64:	6791                	lui	a5,0x4
    1f66:	cb1c                	sw	a5,16(a4)
D:\WCH\代码\3-PIT%20Demo\obj/../Libraries/seekfree_peripheral/SEEKFREE_OLED.c:60
    OLED_SCL(0);
    1f68:	6795                	lui	a5,0x5
    1f6a:	3947a783          	lw	a5,916(a5) # 5394 <GPION>
    1f6e:	873e                	mv	a4,a5
    1f70:	02000793          	li	a5,32
    1f74:	cb5c                	sw	a5,20(a4)
D:\WCH\代码\3-PIT%20Demo\obj/../Libraries/seekfree_peripheral/SEEKFREE_OLED.c:61
    while(i--)
    1f76:	a0b9                	j	1fc4 <oled_wrdat+0x8a>
D:\WCH\代码\3-PIT%20Demo\obj/../Libraries/seekfree_peripheral/SEEKFREE_OLED.c:63
    {
        if(data&0x80){OLED_SDA(1);}
    1f78:	fdf40783          	lb	a5,-33(s0)
    1f7c:	0007da63          	bgez	a5,1f90 <oled_wrdat+0x56>
D:\WCH\代码\3-PIT%20Demo\obj/../Libraries/seekfree_peripheral/SEEKFREE_OLED.c:63 (discriminator 1)
    1f80:	6795                	lui	a5,0x5
    1f82:	3947a783          	lw	a5,916(a5) # 5394 <GPION>
    1f86:	873e                	mv	a4,a5
    1f88:	08000793          	li	a5,128
    1f8c:	cb1c                	sw	a5,16(a4)
    1f8e:	a801                	j	1f9e <oled_wrdat+0x64>
D:\WCH\代码\3-PIT%20Demo\obj/../Libraries/seekfree_peripheral/SEEKFREE_OLED.c:64
        else{OLED_SDA(0);}
    1f90:	6795                	lui	a5,0x5
    1f92:	3947a783          	lw	a5,916(a5) # 5394 <GPION>
    1f96:	873e                	mv	a4,a5
    1f98:	08000793          	li	a5,128
    1f9c:	cb5c                	sw	a5,20(a4)
D:\WCH\代码\3-PIT%20Demo\obj/../Libraries/seekfree_peripheral/SEEKFREE_OLED.c:65
        OLED_SCL(1);
    1f9e:	6795                	lui	a5,0x5
    1fa0:	3947a783          	lw	a5,916(a5) # 5394 <GPION>
    1fa4:	873e                	mv	a4,a5
    1fa6:	02000793          	li	a5,32
    1faa:	cb1c                	sw	a5,16(a4)
D:\WCH\代码\3-PIT%20Demo\obj/../Libraries/seekfree_peripheral/SEEKFREE_OLED.c:67

        OLED_SCL(0);
    1fac:	6795                	lui	a5,0x5
    1fae:	3947a783          	lw	a5,916(a5) # 5394 <GPION>
    1fb2:	873e                	mv	a4,a5
    1fb4:	02000793          	li	a5,32
    1fb8:	cb5c                	sw	a5,20(a4)
D:\WCH\代码\3-PIT%20Demo\obj/../Libraries/seekfree_peripheral/SEEKFREE_OLED.c:68
        data<<=1;
    1fba:	fdf44783          	lbu	a5,-33(s0)
    1fbe:	0786                	slli	a5,a5,0x1
    1fc0:	fcf40fa3          	sb	a5,-33(s0)
D:\WCH\代码\3-PIT%20Demo\obj/../Libraries/seekfree_peripheral/SEEKFREE_OLED.c:61
    while(i--)
    1fc4:	fef44783          	lbu	a5,-17(s0)
    1fc8:	fff78713          	addi	a4,a5,-1
    1fcc:	fee407a3          	sb	a4,-17(s0)
    1fd0:	f7c5                	bnez	a5,1f78 <oled_wrdat+0x3e>
D:\WCH\代码\3-PIT%20Demo\obj/../Libraries/seekfree_peripheral/SEEKFREE_OLED.c:70
    }
    OLED_CS(1); //使能信号端，拉低时正常使用
    1fd2:	6795                	lui	a5,0x5
    1fd4:	39478793          	addi	a5,a5,916 # 5394 <GPION>
    1fd8:	479c                	lw	a5,8(a5)
    1fda:	873e                	mv	a4,a5
    1fdc:	67a1                	lui	a5,0x8
    1fde:	cb1c                	sw	a5,16(a4)
D:\WCH\代码\3-PIT%20Demo\obj/../Libraries/seekfree_peripheral/SEEKFREE_OLED.c:71
}
    1fe0:	0001                	nop
    1fe2:	5432                	lw	s0,44(sp)
    1fe4:	6145                	addi	sp,sp,48
    1fe6:	8082                	ret

00001fe8 <oled_wrcmd>:
oled_wrcmd():
D:\WCH\代码\3-PIT%20Demo\obj/../Libraries/seekfree_peripheral/SEEKFREE_OLED.c:106
//  @return
//  @since      v1.0
//  Sample usage:               
//-------------------------------------------------------------------------------------------------------------------
void oled_wrcmd(uint8 cmd)
{
    1fe8:	7179                	addi	sp,sp,-48
    1fea:	d622                	sw	s0,44(sp)
    1fec:	1800                	addi	s0,sp,48
    1fee:	87aa                	mv	a5,a0
    1ff0:	fcf40fa3          	sb	a5,-33(s0)
D:\WCH\代码\3-PIT%20Demo\obj/../Libraries/seekfree_peripheral/SEEKFREE_OLED.c:107
    uint8 i=8;
    1ff4:	47a1                	li	a5,8
    1ff6:	fef407a3          	sb	a5,-17(s0)
D:\WCH\代码\3-PIT%20Demo\obj/../Libraries/seekfree_peripheral/SEEKFREE_OLED.c:109

    OLED_CS(0); //使能信号端，拉低时正常使用
    1ffa:	6795                	lui	a5,0x5
    1ffc:	39478793          	addi	a5,a5,916 # 5394 <GPION>
    2000:	479c                	lw	a5,8(a5)
    2002:	873e                	mv	a4,a5
    2004:	67a1                	lui	a5,0x8
    2006:	cb5c                	sw	a5,20(a4)
D:\WCH\代码\3-PIT%20Demo\obj/../Libraries/seekfree_peripheral/SEEKFREE_OLED.c:110
    OLED_DC(0);
    2008:	6795                	lui	a5,0x5
    200a:	39478793          	addi	a5,a5,916 # 5394 <GPION>
    200e:	479c                	lw	a5,8(a5)
    2010:	873e                	mv	a4,a5
    2012:	6791                	lui	a5,0x4
    2014:	cb5c                	sw	a5,20(a4)
D:\WCH\代码\3-PIT%20Demo\obj/../Libraries/seekfree_peripheral/SEEKFREE_OLED.c:111
    OLED_SCL(0);;
    2016:	6795                	lui	a5,0x5
    2018:	3947a783          	lw	a5,916(a5) # 5394 <GPION>
    201c:	873e                	mv	a4,a5
    201e:	02000793          	li	a5,32
    2022:	cb5c                	sw	a5,20(a4)
D:\WCH\代码\3-PIT%20Demo\obj/../Libraries/seekfree_peripheral/SEEKFREE_OLED.c:113
    
    while(i--)
    2024:	a0b9                	j	2072 <oled_wrcmd+0x8a>
D:\WCH\代码\3-PIT%20Demo\obj/../Libraries/seekfree_peripheral/SEEKFREE_OLED.c:115
    {
        if(cmd&0x80){OLED_SDA(1);}
    2026:	fdf40783          	lb	a5,-33(s0)
    202a:	0007da63          	bgez	a5,203e <oled_wrcmd+0x56>
D:\WCH\代码\3-PIT%20Demo\obj/../Libraries/seekfree_peripheral/SEEKFREE_OLED.c:115 (discriminator 1)
    202e:	6795                	lui	a5,0x5
    2030:	3947a783          	lw	a5,916(a5) # 5394 <GPION>
    2034:	873e                	mv	a4,a5
    2036:	08000793          	li	a5,128
    203a:	cb1c                	sw	a5,16(a4)
    203c:	a801                	j	204c <oled_wrcmd+0x64>
D:\WCH\代码\3-PIT%20Demo\obj/../Libraries/seekfree_peripheral/SEEKFREE_OLED.c:116
        else{OLED_SDA(0);}
    203e:	6795                	lui	a5,0x5
    2040:	3947a783          	lw	a5,916(a5) # 5394 <GPION>
    2044:	873e                	mv	a4,a5
    2046:	08000793          	li	a5,128
    204a:	cb5c                	sw	a5,20(a4)
D:\WCH\代码\3-PIT%20Demo\obj/../Libraries/seekfree_peripheral/SEEKFREE_OLED.c:117
        OLED_SCL(1);
    204c:	6795                	lui	a5,0x5
    204e:	3947a783          	lw	a5,916(a5) # 5394 <GPION>
    2052:	873e                	mv	a4,a5
    2054:	02000793          	li	a5,32
    2058:	cb1c                	sw	a5,16(a4)
D:\WCH\代码\3-PIT%20Demo\obj/../Libraries/seekfree_peripheral/SEEKFREE_OLED.c:119

        OLED_SCL(0);
    205a:	6795                	lui	a5,0x5
    205c:	3947a783          	lw	a5,916(a5) # 5394 <GPION>
    2060:	873e                	mv	a4,a5
    2062:	02000793          	li	a5,32
    2066:	cb5c                	sw	a5,20(a4)
D:\WCH\代码\3-PIT%20Demo\obj/../Libraries/seekfree_peripheral/SEEKFREE_OLED.c:120
        cmd<<=1;
    2068:	fdf44783          	lbu	a5,-33(s0)
    206c:	0786                	slli	a5,a5,0x1
    206e:	fcf40fa3          	sb	a5,-33(s0)
D:\WCH\代码\3-PIT%20Demo\obj/../Libraries/seekfree_peripheral/SEEKFREE_OLED.c:113
    while(i--)
    2072:	fef44783          	lbu	a5,-17(s0)
    2076:	fff78713          	addi	a4,a5,-1
    207a:	fee407a3          	sb	a4,-17(s0)
    207e:	f7c5                	bnez	a5,2026 <oled_wrcmd+0x3e>
D:\WCH\代码\3-PIT%20Demo\obj/../Libraries/seekfree_peripheral/SEEKFREE_OLED.c:122
    }
    OLED_CS(1); //使能信号端，拉低时正常使用
    2080:	6795                	lui	a5,0x5
    2082:	39478793          	addi	a5,a5,916 # 5394 <GPION>
    2086:	479c                	lw	a5,8(a5)
    2088:	873e                	mv	a4,a5
    208a:	67a1                	lui	a5,0x8
    208c:	cb1c                	sw	a5,16(a4)
D:\WCH\代码\3-PIT%20Demo\obj/../Libraries/seekfree_peripheral/SEEKFREE_OLED.c:123
}
    208e:	0001                	nop
    2090:	5432                	lw	s0,44(sp)
    2092:	6145                	addi	sp,sp,48
    2094:	8082                	ret

00002096 <oled_hexascii>:
oled_hexascii():
D:\WCH\代码\3-PIT%20Demo\obj/../Libraries/seekfree_peripheral/SEEKFREE_OLED.c:133
//  @return
//  @since      v1.0
//  Sample usage:               
//-------------------------------------------------------------------------------------------------------------------
void oled_hexascii(uint16 hex,int8 * Print)
{
    2096:	7179                	addi	sp,sp,-48
    2098:	d622                	sw	s0,44(sp)
    209a:	1800                	addi	s0,sp,48
    209c:	87aa                	mv	a5,a0
    209e:	fcb42c23          	sw	a1,-40(s0)
    20a2:	fcf41f23          	sh	a5,-34(s0)
D:\WCH\代码\3-PIT%20Demo\obj/../Libraries/seekfree_peripheral/SEEKFREE_OLED.c:136
    uint8 hexcheck ;
    uint8 TEMP ;
    TEMP = 6 ;
    20a6:	4799                	li	a5,6
    20a8:	fef407a3          	sb	a5,-17(s0)
D:\WCH\代码\3-PIT%20Demo\obj/../Libraries/seekfree_peripheral/SEEKFREE_OLED.c:137
    Print[TEMP ]='\0';
    20ac:	fef44783          	lbu	a5,-17(s0)
    20b0:	fd842703          	lw	a4,-40(s0)
    20b4:	97ba                	add	a5,a5,a4
    20b6:	00078023          	sb	zero,0(a5) # 8000 <_data_lma+0x2b48>
D:\WCH\代码\3-PIT%20Demo\obj/../Libraries/seekfree_peripheral/SEEKFREE_OLED.c:138
    while(TEMP)
    20ba:	a0b1                	j	2106 <oled_hexascii+0x70>
D:\WCH\代码\3-PIT%20Demo\obj/../Libraries/seekfree_peripheral/SEEKFREE_OLED.c:140
    {
        TEMP -- ;
    20bc:	fef44783          	lbu	a5,-17(s0)
    20c0:	17fd                	addi	a5,a5,-1
    20c2:	fef407a3          	sb	a5,-17(s0)
D:\WCH\代码\3-PIT%20Demo\obj/../Libraries/seekfree_peripheral/SEEKFREE_OLED.c:141
        hexcheck  =  hex%10 ;
    20c6:	fde45703          	lhu	a4,-34(s0)
    20ca:	47a9                	li	a5,10
    20cc:	02f777b3          	remu	a5,a4,a5
    20d0:	07c2                	slli	a5,a5,0x10
    20d2:	83c1                	srli	a5,a5,0x10
    20d4:	fef40723          	sb	a5,-18(s0)
D:\WCH\代码\3-PIT%20Demo\obj/../Libraries/seekfree_peripheral/SEEKFREE_OLED.c:142
        hex   /=10 ;
    20d8:	fde45703          	lhu	a4,-34(s0)
    20dc:	47a9                	li	a5,10
    20de:	02f757b3          	divu	a5,a4,a5
    20e2:	fcf41f23          	sh	a5,-34(s0)
D:\WCH\代码\3-PIT%20Demo\obj/../Libraries/seekfree_peripheral/SEEKFREE_OLED.c:143
        Print[TEMP ]  = hexcheck + 0x30 ;
    20e6:	fee44783          	lbu	a5,-18(s0)
    20ea:	03078793          	addi	a5,a5,48
    20ee:	0ff7f693          	andi	a3,a5,255
    20f2:	fef44783          	lbu	a5,-17(s0)
    20f6:	fd842703          	lw	a4,-40(s0)
    20fa:	97ba                	add	a5,a5,a4
    20fc:	01869713          	slli	a4,a3,0x18
    2100:	8761                	srai	a4,a4,0x18
    2102:	00e78023          	sb	a4,0(a5)
D:\WCH\代码\3-PIT%20Demo\obj/../Libraries/seekfree_peripheral/SEEKFREE_OLED.c:138
    while(TEMP)
    2106:	fef44783          	lbu	a5,-17(s0)
    210a:	fbcd                	bnez	a5,20bc <oled_hexascii+0x26>
D:\WCH\代码\3-PIT%20Demo\obj/../Libraries/seekfree_peripheral/SEEKFREE_OLED.c:146
    }
  
}
    210c:	0001                	nop
    210e:	5432                	lw	s0,44(sp)
    2110:	6145                	addi	sp,sp,48
    2112:	8082                	ret

00002114 <oled_init>:
oled_init():
D:\WCH\代码\3-PIT%20Demo\obj/../Libraries/seekfree_peripheral/SEEKFREE_OLED.c:156
//  @return     void
//  @since      v1.0
//  Sample usage:
//-------------------------------------------------------------------------------------------------------------------
void oled_init(void)
{
    2114:	1141                	addi	sp,sp,-16
    2116:	c606                	sw	ra,12(sp)
    2118:	c422                	sw	s0,8(sp)
    211a:	0800                	addi	s0,sp,16
D:\WCH\代码\3-PIT%20Demo\obj/../Libraries/seekfree_peripheral/SEEKFREE_OLED.c:157
    gpio_init (OLED_SCL_PIN, GPO,1,GPIO_PIN_CONFIG);
    211c:	31000693          	li	a3,784
    2120:	4605                	li	a2,1
    2122:	4585                	li	a1,1
    2124:	4515                	li	a0,5
    2126:	2671                	jal	24b2 <gpio_init>
D:\WCH\代码\3-PIT%20Demo\obj/../Libraries/seekfree_peripheral/SEEKFREE_OLED.c:158
    gpio_init (OLED_SDA_PIN, GPO,0,GPIO_PIN_CONFIG);
    2128:	31000693          	li	a3,784
    212c:	4601                	li	a2,0
    212e:	4585                	li	a1,1
    2130:	451d                	li	a0,7
    2132:	2641                	jal	24b2 <gpio_init>
D:\WCH\代码\3-PIT%20Demo\obj/../Libraries/seekfree_peripheral/SEEKFREE_OLED.c:159
    gpio_init (OLED_RST_PIN, GPO,1,GPIO_PIN_CONFIG);
    2134:	31000693          	li	a3,784
    2138:	4605                	li	a2,1
    213a:	4585                	li	a1,1
    213c:	04d00513          	li	a0,77
    2140:	2e8d                	jal	24b2 <gpio_init>
D:\WCH\代码\3-PIT%20Demo\obj/../Libraries/seekfree_peripheral/SEEKFREE_OLED.c:160
    gpio_init (OLED_DC_PIN , GPO,1,GPIO_PIN_CONFIG);
    2142:	31000693          	li	a3,784
    2146:	4605                	li	a2,1
    2148:	4585                	li	a1,1
    214a:	04e00513          	li	a0,78
    214e:	2695                	jal	24b2 <gpio_init>
D:\WCH\代码\3-PIT%20Demo\obj/../Libraries/seekfree_peripheral/SEEKFREE_OLED.c:161
    gpio_init (OLED_CS_PIN , GPO,1,GPIO_PIN_CONFIG);
    2150:	31000693          	li	a3,784
    2154:	4605                	li	a2,1
    2156:	4585                	li	a1,1
    2158:	04f00513          	li	a0,79
    215c:	2e99                	jal	24b2 <gpio_init>
D:\WCH\代码\3-PIT%20Demo\obj/../Libraries/seekfree_peripheral/SEEKFREE_OLED.c:163
    
    OLED_SCL(1);
    215e:	6795                	lui	a5,0x5
    2160:	3947a783          	lw	a5,916(a5) # 5394 <GPION>
    2164:	873e                	mv	a4,a5
    2166:	02000793          	li	a5,32
    216a:	cb1c                	sw	a5,16(a4)
D:\WCH\代码\3-PIT%20Demo\obj/../Libraries/seekfree_peripheral/SEEKFREE_OLED.c:164
    OLED_RST(0);
    216c:	6795                	lui	a5,0x5
    216e:	39478793          	addi	a5,a5,916 # 5394 <GPION>
    2172:	479c                	lw	a5,8(a5)
    2174:	873e                	mv	a4,a5
    2176:	6789                	lui	a5,0x2
    2178:	cb5c                	sw	a5,20(a4)
D:\WCH\代码\3-PIT%20Demo\obj/../Libraries/seekfree_peripheral/SEEKFREE_OLED.c:165
    systick_delay_ms(50);
    217a:	67b1                	lui	a5,0xc
    217c:	35078513          	addi	a0,a5,848 # c350 <_data_lma+0x6e98>
    2180:	79d000ef          	jal	ra,311c <systick_delay>
D:\WCH\代码\3-PIT%20Demo\obj/../Libraries/seekfree_peripheral/SEEKFREE_OLED.c:166
    OLED_RST(1);
    2184:	6795                	lui	a5,0x5
    2186:	39478793          	addi	a5,a5,916 # 5394 <GPION>
    218a:	479c                	lw	a5,8(a5)
    218c:	873e                	mv	a4,a5
    218e:	6789                	lui	a5,0x2
    2190:	cb1c                	sw	a5,16(a4)
D:\WCH\代码\3-PIT%20Demo\obj/../Libraries/seekfree_peripheral/SEEKFREE_OLED.c:168

    oled_wrcmd(0xae);//--turn off oled panel
    2192:	0ae00513          	li	a0,174
    2196:	3d89                	jal	1fe8 <oled_wrcmd>
D:\WCH\代码\3-PIT%20Demo\obj/../Libraries/seekfree_peripheral/SEEKFREE_OLED.c:169
    oled_wrcmd(0x00);//---set low column address
    2198:	4501                	li	a0,0
    219a:	35b9                	jal	1fe8 <oled_wrcmd>
D:\WCH\代码\3-PIT%20Demo\obj/../Libraries/seekfree_peripheral/SEEKFREE_OLED.c:170
    oled_wrcmd(0x10);//---set high column address
    219c:	4541                	li	a0,16
    219e:	35a9                	jal	1fe8 <oled_wrcmd>
D:\WCH\代码\3-PIT%20Demo\obj/../Libraries/seekfree_peripheral/SEEKFREE_OLED.c:171
    oled_wrcmd(0x40);//--set start line address  Set Mapping RAM Display Start Line (0x00~0x3F)
    21a0:	04000513          	li	a0,64
    21a4:	3591                	jal	1fe8 <oled_wrcmd>
D:\WCH\代码\3-PIT%20Demo\obj/../Libraries/seekfree_peripheral/SEEKFREE_OLED.c:172
    oled_wrcmd(0x81);//--set contrast control register
    21a6:	08100513          	li	a0,129
    21aa:	3d3d                	jal	1fe8 <oled_wrcmd>
D:\WCH\代码\3-PIT%20Demo\obj/../Libraries/seekfree_peripheral/SEEKFREE_OLED.c:173
    oled_wrcmd(Brightness); // Set SEG Output Current Brightness
    21ac:	07f00513          	li	a0,127
    21b0:	3d25                	jal	1fe8 <oled_wrcmd>
D:\WCH\代码\3-PIT%20Demo\obj/../Libraries/seekfree_peripheral/SEEKFREE_OLED.c:176
    
#if (0 == OLED_DISPLAY_DIR)
    oled_wrcmd(0xa1);//--Set SEG/Column Mapping     0xa0左右反置 0xa1正常
    21b2:	0a100513          	li	a0,161
    21b6:	3d0d                	jal	1fe8 <oled_wrcmd>
D:\WCH\代码\3-PIT%20Demo\obj/../Libraries/seekfree_peripheral/SEEKFREE_OLED.c:177
    oled_wrcmd(0xc8);//Set COM/Row Scan Direction   0xc0上下反置 0xc8正常
    21b8:	0c800513          	li	a0,200
    21bc:	3535                	jal	1fe8 <oled_wrcmd>
D:\WCH\代码\3-PIT%20Demo\obj/../Libraries/seekfree_peripheral/SEEKFREE_OLED.c:183
#else
    oled_wrcmd(0xa0);//--Set SEG/Column Mapping     0xa0左右反置 0xa1正常
    oled_wrcmd(0xc0);//Set COM/Row Scan Direction   0xc0上下反置 0xc8正常
#endif
    
    oled_wrcmd(0xa6);//--set normal display
    21be:	0a600513          	li	a0,166
    21c2:	351d                	jal	1fe8 <oled_wrcmd>
D:\WCH\代码\3-PIT%20Demo\obj/../Libraries/seekfree_peripheral/SEEKFREE_OLED.c:184
    oled_wrcmd(0xa8);//--set multiplex ratio(1 to 64)
    21c4:	0a800513          	li	a0,168
    21c8:	3505                	jal	1fe8 <oled_wrcmd>
D:\WCH\代码\3-PIT%20Demo\obj/../Libraries/seekfree_peripheral/SEEKFREE_OLED.c:185
    oled_wrcmd(0x3f);//--1/64 duty
    21ca:	03f00513          	li	a0,63
    21ce:	3d29                	jal	1fe8 <oled_wrcmd>
D:\WCH\代码\3-PIT%20Demo\obj/../Libraries/seekfree_peripheral/SEEKFREE_OLED.c:186
    oled_wrcmd(0xd3);//-set display offset  Shift Mapping RAM Counter (0x00~0x3F)
    21d0:	0d300513          	li	a0,211
    21d4:	3d11                	jal	1fe8 <oled_wrcmd>
D:\WCH\代码\3-PIT%20Demo\obj/../Libraries/seekfree_peripheral/SEEKFREE_OLED.c:187
    oled_wrcmd(0x00);//-not offset
    21d6:	4501                	li	a0,0
    21d8:	3d01                	jal	1fe8 <oled_wrcmd>
D:\WCH\代码\3-PIT%20Demo\obj/../Libraries/seekfree_peripheral/SEEKFREE_OLED.c:188
    oled_wrcmd(0xd5);//--set display clock divide ratio/oscillator frequency
    21da:	0d500513          	li	a0,213
    21de:	3529                	jal	1fe8 <oled_wrcmd>
D:\WCH\代码\3-PIT%20Demo\obj/../Libraries/seekfree_peripheral/SEEKFREE_OLED.c:189
    oled_wrcmd(0x80);//--set divide ratio, Set Clock as 100 Frames/Sec
    21e0:	08000513          	li	a0,128
    21e4:	3511                	jal	1fe8 <oled_wrcmd>
D:\WCH\代码\3-PIT%20Demo\obj/../Libraries/seekfree_peripheral/SEEKFREE_OLED.c:190
    oled_wrcmd(0xd9);//--set pre-charge period
    21e6:	0d900513          	li	a0,217
    21ea:	3bfd                	jal	1fe8 <oled_wrcmd>
D:\WCH\代码\3-PIT%20Demo\obj/../Libraries/seekfree_peripheral/SEEKFREE_OLED.c:191
    oled_wrcmd(0xf1);//Set Pre-Charge as 15 Clocks & Discharge as 1 Clock
    21ec:	0f100513          	li	a0,241
    21f0:	3be5                	jal	1fe8 <oled_wrcmd>
D:\WCH\代码\3-PIT%20Demo\obj/../Libraries/seekfree_peripheral/SEEKFREE_OLED.c:192
    oled_wrcmd(0xda);//--set com pins hardware configuration
    21f2:	0da00513          	li	a0,218
    21f6:	3bcd                	jal	1fe8 <oled_wrcmd>
D:\WCH\代码\3-PIT%20Demo\obj/../Libraries/seekfree_peripheral/SEEKFREE_OLED.c:193
    oled_wrcmd(0x12);
    21f8:	4549                	li	a0,18
    21fa:	33fd                	jal	1fe8 <oled_wrcmd>
D:\WCH\代码\3-PIT%20Demo\obj/../Libraries/seekfree_peripheral/SEEKFREE_OLED.c:194
    oled_wrcmd(0xdb);//--set vcomh
    21fc:	0db00513          	li	a0,219
    2200:	33e5                	jal	1fe8 <oled_wrcmd>
D:\WCH\代码\3-PIT%20Demo\obj/../Libraries/seekfree_peripheral/SEEKFREE_OLED.c:195
    oled_wrcmd(0x40);//Set VCOM Deselect Level
    2202:	04000513          	li	a0,64
    2206:	33cd                	jal	1fe8 <oled_wrcmd>
D:\WCH\代码\3-PIT%20Demo\obj/../Libraries/seekfree_peripheral/SEEKFREE_OLED.c:196
    oled_wrcmd(0x20);//-Set Page Addressing Mode (0x00/0x01/0x02)
    2208:	02000513          	li	a0,32
    220c:	3bf1                	jal	1fe8 <oled_wrcmd>
D:\WCH\代码\3-PIT%20Demo\obj/../Libraries/seekfree_peripheral/SEEKFREE_OLED.c:197
    oled_wrcmd(0x02);//
    220e:	4509                	li	a0,2
    2210:	3be1                	jal	1fe8 <oled_wrcmd>
D:\WCH\代码\3-PIT%20Demo\obj/../Libraries/seekfree_peripheral/SEEKFREE_OLED.c:198
    oled_wrcmd(0x8d);//--set Charge Pump enable/disable
    2212:	08d00513          	li	a0,141
    2216:	3bc9                	jal	1fe8 <oled_wrcmd>
D:\WCH\代码\3-PIT%20Demo\obj/../Libraries/seekfree_peripheral/SEEKFREE_OLED.c:199
    oled_wrcmd(0x14);//--set(0x10) disable
    2218:	4551                	li	a0,20
    221a:	33f9                	jal	1fe8 <oled_wrcmd>
D:\WCH\代码\3-PIT%20Demo\obj/../Libraries/seekfree_peripheral/SEEKFREE_OLED.c:200
    oled_wrcmd(0xa4);// Disable Entire Display On (0xa4/0xa5)
    221c:	0a400513          	li	a0,164
    2220:	33e1                	jal	1fe8 <oled_wrcmd>
D:\WCH\代码\3-PIT%20Demo\obj/../Libraries/seekfree_peripheral/SEEKFREE_OLED.c:201
    oled_wrcmd(0xa6);// Disable Inverse Display On (0xa6/a7)
    2222:	0a600513          	li	a0,166
    2226:	33c9                	jal	1fe8 <oled_wrcmd>
D:\WCH\代码\3-PIT%20Demo\obj/../Libraries/seekfree_peripheral/SEEKFREE_OLED.c:202
    oled_wrcmd(0xaf);//--turn on oled panel
    2228:	0af00513          	li	a0,175
    222c:	3b75                	jal	1fe8 <oled_wrcmd>
D:\WCH\代码\3-PIT%20Demo\obj/../Libraries/seekfree_peripheral/SEEKFREE_OLED.c:203
    oled_fill(0x00);  //初始清屏
    222e:	4501                	li	a0,0
    2230:	2075                	jal	22dc <oled_fill>
D:\WCH\代码\3-PIT%20Demo\obj/../Libraries/seekfree_peripheral/SEEKFREE_OLED.c:204
    oled_set_pos(0,0);
    2232:	4581                	li	a1,0
    2234:	4501                	li	a0,0
    2236:	2031                	jal	2242 <oled_set_pos>
D:\WCH\代码\3-PIT%20Demo\obj/../Libraries/seekfree_peripheral/SEEKFREE_OLED.c:205
}
    2238:	0001                	nop
    223a:	40b2                	lw	ra,12(sp)
    223c:	4422                	lw	s0,8(sp)
    223e:	0141                	addi	sp,sp,16
    2240:	8082                	ret

00002242 <oled_set_pos>:
oled_set_pos():
D:\WCH\代码\3-PIT%20Demo\obj/../Libraries/seekfree_peripheral/SEEKFREE_OLED.c:216
//  @return     void
//  @since      v1.0
//  Sample usage:
//-------------------------------------------------------------------------------------------------------------------
void oled_set_pos(uint8 x, uint8 y)
{
    2242:	1101                	addi	sp,sp,-32
    2244:	ce06                	sw	ra,28(sp)
    2246:	cc22                	sw	s0,24(sp)
    2248:	1000                	addi	s0,sp,32
    224a:	87aa                	mv	a5,a0
    224c:	872e                	mv	a4,a1
    224e:	fef407a3          	sb	a5,-17(s0)
    2252:	87ba                	mv	a5,a4
    2254:	fef40723          	sb	a5,-18(s0)
D:\WCH\代码\3-PIT%20Demo\obj/../Libraries/seekfree_peripheral/SEEKFREE_OLED.c:217
    assert(X_WIDTH>x);      //参数断言，进入断言标志参数超出范围
    2258:	fef40783          	lb	a5,-17(s0)
    225c:	0007df63          	bgez	a5,227a <oled_set_pos+0x38>
D:\WCH\代码\3-PIT%20Demo\obj/../Libraries/seekfree_peripheral/SEEKFREE_OLED.c:217 (discriminator 1)
    2260:	6795                	lui	a5,0x5
    2262:	0c078693          	addi	a3,a5,192 # 50c0 <_exit+0x2>
    2266:	6795                	lui	a5,0x5
    2268:	38478613          	addi	a2,a5,900 # 5384 <__func__.3179>
    226c:	0d900593          	li	a1,217
    2270:	6795                	lui	a5,0x5
    2272:	0cc78513          	addi	a0,a5,204 # 50cc <_exit+0xe>
    2276:	419010ef          	jal	ra,3e8e <__assert_func>
D:\WCH\代码\3-PIT%20Demo\obj/../Libraries/seekfree_peripheral/SEEKFREE_OLED.c:218
    assert((Y_WIDTH/8)>y);
    227a:	fee44703          	lbu	a4,-18(s0)
    227e:	479d                	li	a5,7
    2280:	00e7ff63          	bgeu	a5,a4,229e <oled_set_pos+0x5c>
D:\WCH\代码\3-PIT%20Demo\obj/../Libraries/seekfree_peripheral/SEEKFREE_OLED.c:218 (discriminator 1)
    2284:	6795                	lui	a5,0x5
    2286:	10078693          	addi	a3,a5,256 # 5100 <_exit+0x42>
    228a:	6795                	lui	a5,0x5
    228c:	38478613          	addi	a2,a5,900 # 5384 <__func__.3179>
    2290:	0da00593          	li	a1,218
    2294:	6795                	lui	a5,0x5
    2296:	0cc78513          	addi	a0,a5,204 # 50cc <_exit+0xe>
    229a:	3f5010ef          	jal	ra,3e8e <__assert_func>
D:\WCH\代码\3-PIT%20Demo\obj/../Libraries/seekfree_peripheral/SEEKFREE_OLED.c:220
    
    oled_wrcmd(0xb0+y);
    229e:	fee44783          	lbu	a5,-18(s0)
    22a2:	fb078793          	addi	a5,a5,-80
    22a6:	0ff7f793          	andi	a5,a5,255
    22aa:	853e                	mv	a0,a5
    22ac:	3b35                	jal	1fe8 <oled_wrcmd>
D:\WCH\代码\3-PIT%20Demo\obj/../Libraries/seekfree_peripheral/SEEKFREE_OLED.c:221
    oled_wrcmd(((x&0xf0)>>4)|0x10);
    22ae:	fef44783          	lbu	a5,-17(s0)
    22b2:	8391                	srli	a5,a5,0x4
    22b4:	0ff7f793          	andi	a5,a5,255
    22b8:	0107e793          	ori	a5,a5,16
    22bc:	0ff7f793          	andi	a5,a5,255
    22c0:	853e                	mv	a0,a5
    22c2:	331d                	jal	1fe8 <oled_wrcmd>
D:\WCH\代码\3-PIT%20Demo\obj/../Libraries/seekfree_peripheral/SEEKFREE_OLED.c:222
    oled_wrcmd((x&0x0f)|0x00);
    22c4:	fef44783          	lbu	a5,-17(s0)
    22c8:	8bbd                	andi	a5,a5,15
    22ca:	0ff7f793          	andi	a5,a5,255
    22ce:	853e                	mv	a0,a5
    22d0:	3b21                	jal	1fe8 <oled_wrcmd>
D:\WCH\代码\3-PIT%20Demo\obj/../Libraries/seekfree_peripheral/SEEKFREE_OLED.c:223
}
    22d2:	0001                	nop
    22d4:	40f2                	lw	ra,28(sp)
    22d6:	4462                	lw	s0,24(sp)
    22d8:	6105                	addi	sp,sp,32
    22da:	8082                	ret

000022dc <oled_fill>:
oled_fill():
D:\WCH\代码\3-PIT%20Demo\obj/../Libraries/seekfree_peripheral/SEEKFREE_OLED.c:233
//  @return     void
//  @since      v1.0
//  Sample usage:
//-------------------------------------------------------------------------------------------------------------------
void oled_fill(uint8 bmp_data)
{
    22dc:	7179                	addi	sp,sp,-48
    22de:	d606                	sw	ra,44(sp)
    22e0:	d422                	sw	s0,40(sp)
    22e2:	1800                	addi	s0,sp,48
    22e4:	87aa                	mv	a5,a0
    22e6:	fcf40fa3          	sb	a5,-33(s0)
D:\WCH\代码\3-PIT%20Demo\obj/../Libraries/seekfree_peripheral/SEEKFREE_OLED.c:236
    uint8 y,x;

    for(y=0;y<8;y++)
    22ea:	fe0407a3          	sb	zero,-17(s0)
    22ee:	a091                	j	2332 <oled_fill+0x56>
D:\WCH\代码\3-PIT%20Demo\obj/../Libraries/seekfree_peripheral/SEEKFREE_OLED.c:238
    {
        oled_wrcmd(0xb0+y);
    22f0:	fef44783          	lbu	a5,-17(s0)
    22f4:	fb078793          	addi	a5,a5,-80
    22f8:	0ff7f793          	andi	a5,a5,255
    22fc:	853e                	mv	a0,a5
    22fe:	31ed                	jal	1fe8 <oled_wrcmd>
D:\WCH\代码\3-PIT%20Demo\obj/../Libraries/seekfree_peripheral/SEEKFREE_OLED.c:239
        oled_wrcmd(0x01);
    2300:	4505                	li	a0,1
    2302:	31dd                	jal	1fe8 <oled_wrcmd>
D:\WCH\代码\3-PIT%20Demo\obj/../Libraries/seekfree_peripheral/SEEKFREE_OLED.c:240
        oled_wrcmd(0x10);
    2304:	4541                	li	a0,16
    2306:	31cd                	jal	1fe8 <oled_wrcmd>
D:\WCH\代码\3-PIT%20Demo\obj/../Libraries/seekfree_peripheral/SEEKFREE_OLED.c:241
        for(x=0;x<X_WIDTH;x++)  oled_wrdat(bmp_data);
    2308:	fe040723          	sb	zero,-18(s0)
    230c:	a811                	j	2320 <oled_fill+0x44>
D:\WCH\代码\3-PIT%20Demo\obj/../Libraries/seekfree_peripheral/SEEKFREE_OLED.c:241 (discriminator 3)
    230e:	fdf44783          	lbu	a5,-33(s0)
    2312:	853e                	mv	a0,a5
    2314:	311d                	jal	1f3a <oled_wrdat>
    2316:	fee44783          	lbu	a5,-18(s0)
    231a:	0785                	addi	a5,a5,1
    231c:	fef40723          	sb	a5,-18(s0)
D:\WCH\代码\3-PIT%20Demo\obj/../Libraries/seekfree_peripheral/SEEKFREE_OLED.c:241 (discriminator 1)
    2320:	fee40783          	lb	a5,-18(s0)
    2324:	fe07d5e3          	bgez	a5,230e <oled_fill+0x32>
D:\WCH\代码\3-PIT%20Demo\obj/../Libraries/seekfree_peripheral/SEEKFREE_OLED.c:236 (discriminator 2)
    for(y=0;y<8;y++)
    2328:	fef44783          	lbu	a5,-17(s0)
    232c:	0785                	addi	a5,a5,1
    232e:	fef407a3          	sb	a5,-17(s0)
D:\WCH\代码\3-PIT%20Demo\obj/../Libraries/seekfree_peripheral/SEEKFREE_OLED.c:236 (discriminator 1)
    2332:	fef44703          	lbu	a4,-17(s0)
    2336:	479d                	li	a5,7
    2338:	fae7fce3          	bgeu	a5,a4,22f0 <oled_fill+0x14>
D:\WCH\代码\3-PIT%20Demo\obj/../Libraries/seekfree_peripheral/SEEKFREE_OLED.c:243
    }
}
    233c:	0001                	nop
    233e:	50b2                	lw	ra,44(sp)
    2340:	5422                	lw	s0,40(sp)
    2342:	6145                	addi	sp,sp,48
    2344:	8082                	ret

00002346 <oled_p6x8str>:
oled_p6x8str():
D:\WCH\代码\3-PIT%20Demo\obj/../Libraries/seekfree_peripheral/SEEKFREE_OLED.c:293
//  @return     void
//  @since      v1.0
//  Sample usage:
//-------------------------------------------------------------------------------------------------------------------
void oled_p6x8str(uint8 x,uint8 y,const int8 ch[])
{
    2346:	7179                	addi	sp,sp,-48
    2348:	d606                	sw	ra,44(sp)
    234a:	d422                	sw	s0,40(sp)
    234c:	1800                	addi	s0,sp,48
    234e:	87aa                	mv	a5,a0
    2350:	872e                	mv	a4,a1
    2352:	fcc42c23          	sw	a2,-40(s0)
    2356:	fcf40fa3          	sb	a5,-33(s0)
    235a:	87ba                	mv	a5,a4
    235c:	fcf40f23          	sb	a5,-34(s0)
D:\WCH\代码\3-PIT%20Demo\obj/../Libraries/seekfree_peripheral/SEEKFREE_OLED.c:294
    uint8 c=0,i=0,j=0;
    2360:	fe0406a3          	sb	zero,-19(s0)
    2364:	fe0407a3          	sb	zero,-17(s0)
    2368:	fe040723          	sb	zero,-18(s0)
D:\WCH\代码\3-PIT%20Demo\obj/../Libraries/seekfree_peripheral/SEEKFREE_OLED.c:295
    while (ch[j]!='\0')
    236c:	a849                	j	23fe <oled_p6x8str+0xb8>
D:\WCH\代码\3-PIT%20Demo\obj/../Libraries/seekfree_peripheral/SEEKFREE_OLED.c:297
    {
        c =ch[j]-32;
    236e:	fee44783          	lbu	a5,-18(s0)
    2372:	fd842703          	lw	a4,-40(s0)
    2376:	97ba                	add	a5,a5,a4
    2378:	00078783          	lb	a5,0(a5)
    237c:	0ff7f793          	andi	a5,a5,255
    2380:	1781                	addi	a5,a5,-32
    2382:	fef406a3          	sb	a5,-19(s0)
D:\WCH\代码\3-PIT%20Demo\obj/../Libraries/seekfree_peripheral/SEEKFREE_OLED.c:298
        if(x>126){x=0;y++;}
    2386:	fdf44703          	lbu	a4,-33(s0)
    238a:	07e00793          	li	a5,126
    238e:	00e7f963          	bgeu	a5,a4,23a0 <oled_p6x8str+0x5a>
D:\WCH\代码\3-PIT%20Demo\obj/../Libraries/seekfree_peripheral/SEEKFREE_OLED.c:298 (discriminator 1)
    2392:	fc040fa3          	sb	zero,-33(s0)
    2396:	fde44783          	lbu	a5,-34(s0)
    239a:	0785                	addi	a5,a5,1
    239c:	fcf40f23          	sb	a5,-34(s0)
D:\WCH\代码\3-PIT%20Demo\obj/../Libraries/seekfree_peripheral/SEEKFREE_OLED.c:299
        oled_set_pos(x,y);
    23a0:	fde44703          	lbu	a4,-34(s0)
    23a4:	fdf44783          	lbu	a5,-33(s0)
    23a8:	85ba                	mv	a1,a4
    23aa:	853e                	mv	a0,a5
    23ac:	3d59                	jal	2242 <oled_set_pos>
D:\WCH\代码\3-PIT%20Demo\obj/../Libraries/seekfree_peripheral/SEEKFREE_OLED.c:300
        for(i=0;i<6;i++)    oled_wrdat(oled_6x8[c][i]);
    23ae:	fe0407a3          	sb	zero,-17(s0)
    23b2:	a03d                	j	23e0 <oled_p6x8str+0x9a>
D:\WCH\代码\3-PIT%20Demo\obj/../Libraries/seekfree_peripheral/SEEKFREE_OLED.c:300 (discriminator 3)
    23b4:	fed44703          	lbu	a4,-19(s0)
    23b8:	fef44683          	lbu	a3,-17(s0)
    23bc:	6615                	lui	a2,0x5
    23be:	87ba                	mv	a5,a4
    23c0:	0786                	slli	a5,a5,0x1
    23c2:	97ba                	add	a5,a5,a4
    23c4:	0786                	slli	a5,a5,0x1
    23c6:	15c60713          	addi	a4,a2,348 # 515c <oled_6x8>
    23ca:	97ba                	add	a5,a5,a4
    23cc:	97b6                	add	a5,a5,a3
    23ce:	0007c783          	lbu	a5,0(a5)
    23d2:	853e                	mv	a0,a5
    23d4:	369d                	jal	1f3a <oled_wrdat>
    23d6:	fef44783          	lbu	a5,-17(s0)
    23da:	0785                	addi	a5,a5,1
    23dc:	fef407a3          	sb	a5,-17(s0)
D:\WCH\代码\3-PIT%20Demo\obj/../Libraries/seekfree_peripheral/SEEKFREE_OLED.c:300 (discriminator 1)
    23e0:	fef44703          	lbu	a4,-17(s0)
    23e4:	4795                	li	a5,5
    23e6:	fce7f7e3          	bgeu	a5,a4,23b4 <oled_p6x8str+0x6e>
D:\WCH\代码\3-PIT%20Demo\obj/../Libraries/seekfree_peripheral/SEEKFREE_OLED.c:301
        x+=6;
    23ea:	fdf44783          	lbu	a5,-33(s0)
    23ee:	0799                	addi	a5,a5,6
    23f0:	fcf40fa3          	sb	a5,-33(s0)
D:\WCH\代码\3-PIT%20Demo\obj/../Libraries/seekfree_peripheral/SEEKFREE_OLED.c:302
        j++;
    23f4:	fee44783          	lbu	a5,-18(s0)
    23f8:	0785                	addi	a5,a5,1
    23fa:	fef40723          	sb	a5,-18(s0)
D:\WCH\代码\3-PIT%20Demo\obj/../Libraries/seekfree_peripheral/SEEKFREE_OLED.c:295
    while (ch[j]!='\0')
    23fe:	fee44783          	lbu	a5,-18(s0)
    2402:	fd842703          	lw	a4,-40(s0)
    2406:	97ba                	add	a5,a5,a4
    2408:	00078783          	lb	a5,0(a5)
    240c:	f3ad                	bnez	a5,236e <oled_p6x8str+0x28>
D:\WCH\代码\3-PIT%20Demo\obj/../Libraries/seekfree_peripheral/SEEKFREE_OLED.c:304
    }
}
    240e:	0001                	nop
    2410:	50b2                	lw	ra,44(sp)
    2412:	5422                	lw	s0,40(sp)
    2414:	6145                	addi	sp,sp,48
    2416:	8082                	ret

00002418 <oled_int16>:
oled_int16():
D:\WCH\代码\3-PIT%20Demo\obj/../Libraries/seekfree_peripheral/SEEKFREE_OLED.c:364
//  @return     void
//  @since      v1.0
//  Sample usage:
//-------------------------------------------------------------------------------------------------------------------
void oled_int16(uint8 x, uint8 y, int16 num)
{
    2418:	7179                	addi	sp,sp,-48
    241a:	d606                	sw	ra,44(sp)
    241c:	d422                	sw	s0,40(sp)
    241e:	1800                	addi	s0,sp,48
    2420:	87aa                	mv	a5,a0
    2422:	86ae                	mv	a3,a1
    2424:	8732                	mv	a4,a2
    2426:	fcf40fa3          	sb	a5,-33(s0)
    242a:	87b6                	mv	a5,a3
    242c:	fcf40f23          	sb	a5,-34(s0)
    2430:	87ba                	mv	a5,a4
    2432:	fcf41e23          	sh	a5,-36(s0)
D:\WCH\代码\3-PIT%20Demo\obj/../Libraries/seekfree_peripheral/SEEKFREE_OLED.c:366
    int8 ch[7];
    if(num<0)   {num = -num;oled_p6x8str(x, y, "-");}
    2436:	fdc41783          	lh	a5,-36(s0)
    243a:	0207d563          	bgez	a5,2464 <oled_int16+0x4c>
D:\WCH\代码\3-PIT%20Demo\obj/../Libraries/seekfree_peripheral/SEEKFREE_OLED.c:366 (discriminator 1)
    243e:	fdc45783          	lhu	a5,-36(s0)
    2442:	40f007b3          	neg	a5,a5
    2446:	07c2                	slli	a5,a5,0x10
    2448:	83c1                	srli	a5,a5,0x10
    244a:	fcf41e23          	sh	a5,-36(s0)
    244e:	fde44683          	lbu	a3,-34(s0)
    2452:	fdf44703          	lbu	a4,-33(s0)
    2456:	6795                	lui	a5,0x5
    2458:	11078613          	addi	a2,a5,272 # 5110 <_exit+0x52>
    245c:	85b6                	mv	a1,a3
    245e:	853a                	mv	a0,a4
    2460:	35dd                	jal	2346 <oled_p6x8str>
    2462:	a819                	j	2478 <oled_int16+0x60>
D:\WCH\代码\3-PIT%20Demo\obj/../Libraries/seekfree_peripheral/SEEKFREE_OLED.c:367
    else         oled_p6x8str(x, y, " ");
    2464:	fde44683          	lbu	a3,-34(s0)
    2468:	fdf44703          	lbu	a4,-33(s0)
    246c:	6795                	lui	a5,0x5
    246e:	11478613          	addi	a2,a5,276 # 5114 <_exit+0x56>
    2472:	85b6                	mv	a1,a3
    2474:	853a                	mv	a0,a4
    2476:	3dc1                	jal	2346 <oled_p6x8str>
D:\WCH\代码\3-PIT%20Demo\obj/../Libraries/seekfree_peripheral/SEEKFREE_OLED.c:368
    x+=6;
    2478:	fdf44783          	lbu	a5,-33(s0)
    247c:	0799                	addi	a5,a5,6
    247e:	fcf40fa3          	sb	a5,-33(s0)
D:\WCH\代码\3-PIT%20Demo\obj/../Libraries/seekfree_peripheral/SEEKFREE_OLED.c:370
    
    oled_hexascii(num,ch);
    2482:	fdc45783          	lhu	a5,-36(s0)
    2486:	fe840713          	addi	a4,s0,-24
    248a:	85ba                	mv	a1,a4
    248c:	853e                	mv	a0,a5
    248e:	3121                	jal	2096 <oled_hexascii>
D:\WCH\代码\3-PIT%20Demo\obj/../Libraries/seekfree_peripheral/SEEKFREE_OLED.c:371
    oled_p6x8str(x, y, &ch[1]);     //显示数字  6*8字体
    2490:	fe840793          	addi	a5,s0,-24
    2494:	00178693          	addi	a3,a5,1
    2498:	fde44703          	lbu	a4,-34(s0)
    249c:	fdf44783          	lbu	a5,-33(s0)
    24a0:	8636                	mv	a2,a3
    24a2:	85ba                	mv	a1,a4
    24a4:	853e                	mv	a0,a5
    24a6:	3545                	jal	2346 <oled_p6x8str>
D:\WCH\代码\3-PIT%20Demo\obj/../Libraries/seekfree_peripheral/SEEKFREE_OLED.c:372
}
    24a8:	0001                	nop
    24aa:	50b2                	lw	ra,44(sp)
    24ac:	5422                	lw	s0,40(sp)
    24ae:	6145                	addi	sp,sp,48
    24b0:	8082                	ret

000024b2 <gpio_init>:
gpio_init():
D:\WCH\代码\3-PIT%20Demo\obj/../Libraries/seekfree_libraries/zf_gpio.c:40
//  @param      pinconf     引脚配置（可设置参数由zf_gpio.h文件内GPIOSPEED_enum与GPIOMODE_enum枚举值确定，多个条件使用 | 相或）
//  @return     void
//  Sample usage:           gpio_init(D0, GPO, 1, GPIO_PIN_CONFIG);//D0初始化为GPIO功能、输出模式、输出高电平、速度100MHZ 推挽输出
//-------------------------------------------------------------------------------------------------------------------
void gpio_init(PIN_enum pin, GPIODIR_enum dir, uint8 dat, uint32 pinconf)
{
    24b2:	7179                	addi	sp,sp,-48
    24b4:	d606                	sw	ra,44(sp)
    24b6:	d422                	sw	s0,40(sp)
    24b8:	1800                	addi	s0,sp,48
    24ba:	fca42e23          	sw	a0,-36(s0)
    24be:	fcb42c23          	sw	a1,-40(s0)
    24c2:	87b2                	mv	a5,a2
    24c4:	fcd42823          	sw	a3,-48(s0)
    24c8:	fcf40ba3          	sb	a5,-41(s0)
D:\WCH\代码\3-PIT%20Demo\obj/../Libraries/seekfree_libraries/zf_gpio.c:42
    GPIO_InitTypeDef GPIO_InitStructure;
    uint8 io_group = (pin & 0xE0) >> 5;
    24cc:	fdc42783          	lw	a5,-36(s0)
    24d0:	8395                	srli	a5,a5,0x5
    24d2:	0ff7f793          	andi	a5,a5,255
    24d6:	8b9d                	andi	a5,a5,7
    24d8:	fef407a3          	sb	a5,-17(s0)
D:\WCH\代码\3-PIT%20Demo\obj/../Libraries/seekfree_libraries/zf_gpio.c:43
    uint8 io_pin = pin & 0x1F;
    24dc:	fdc42783          	lw	a5,-36(s0)
    24e0:	0ff7f793          	andi	a5,a5,255
    24e4:	8bfd                	andi	a5,a5,31
    24e6:	fef40723          	sb	a5,-18(s0)
D:\WCH\代码\3-PIT%20Demo\obj/../Libraries/seekfree_libraries/zf_gpio.c:46


    if(PIN_NULL == pin) return;
    24ea:	fdc42703          	lw	a4,-36(s0)
    24ee:	08000793          	li	a5,128
    24f2:	14f70d63          	beq	a4,a5,264c <gpio_init+0x19a>
D:\WCH\代码\3-PIT%20Demo\obj/../Libraries/seekfree_libraries/zf_gpio.c:48
    //GPIO总线使能
    if(0 == (pin >> 5))      RCC_APB2PeriphClockCmd(RCC_APB2Periph_GPIOA, ENABLE);
    24f6:	fdc42783          	lw	a5,-36(s0)
    24fa:	8395                	srli	a5,a5,0x5
    24fc:	e791                	bnez	a5,2508 <gpio_init+0x56>
D:\WCH\代码\3-PIT%20Demo\obj/../Libraries/seekfree_libraries/zf_gpio.c:48 (discriminator 1)
    24fe:	4585                	li	a1,1
    2500:	4511                	li	a0,4
    2502:	8fbfe0ef          	jal	ra,dfc <RCC_APB2PeriphClockCmd>
    2506:	a861                	j	259e <gpio_init+0xec>
D:\WCH\代码\3-PIT%20Demo\obj/../Libraries/seekfree_libraries/zf_gpio.c:49
    else if(1 == (pin >> 5)) RCC_APB2PeriphClockCmd(RCC_APB2Periph_GPIOB, ENABLE);
    2508:	fdc42783          	lw	a5,-36(s0)
    250c:	0057d713          	srli	a4,a5,0x5
    2510:	4785                	li	a5,1
    2512:	00f71763          	bne	a4,a5,2520 <gpio_init+0x6e>
D:\WCH\代码\3-PIT%20Demo\obj/../Libraries/seekfree_libraries/zf_gpio.c:49 (discriminator 1)
    2516:	4585                	li	a1,1
    2518:	4521                	li	a0,8
    251a:	8e3fe0ef          	jal	ra,dfc <RCC_APB2PeriphClockCmd>
    251e:	a041                	j	259e <gpio_init+0xec>
D:\WCH\代码\3-PIT%20Demo\obj/../Libraries/seekfree_libraries/zf_gpio.c:50
    else if(2 == (pin >> 5)) RCC_APB2PeriphClockCmd(RCC_APB2Periph_GPIOC, ENABLE);
    2520:	fdc42783          	lw	a5,-36(s0)
    2524:	0057d713          	srli	a4,a5,0x5
    2528:	4789                	li	a5,2
    252a:	00f71763          	bne	a4,a5,2538 <gpio_init+0x86>
D:\WCH\代码\3-PIT%20Demo\obj/../Libraries/seekfree_libraries/zf_gpio.c:50 (discriminator 1)
    252e:	4585                	li	a1,1
    2530:	4541                	li	a0,16
    2532:	8cbfe0ef          	jal	ra,dfc <RCC_APB2PeriphClockCmd>
    2536:	a0a5                	j	259e <gpio_init+0xec>
D:\WCH\代码\3-PIT%20Demo\obj/../Libraries/seekfree_libraries/zf_gpio.c:51
    else if(3 == (pin >> 5)) RCC_APB2PeriphClockCmd(RCC_APB2Periph_GPIOD, ENABLE);
    2538:	fdc42783          	lw	a5,-36(s0)
    253c:	0057d713          	srli	a4,a5,0x5
    2540:	478d                	li	a5,3
    2542:	00f71863          	bne	a4,a5,2552 <gpio_init+0xa0>
D:\WCH\代码\3-PIT%20Demo\obj/../Libraries/seekfree_libraries/zf_gpio.c:51 (discriminator 1)
    2546:	4585                	li	a1,1
    2548:	02000513          	li	a0,32
    254c:	8b1fe0ef          	jal	ra,dfc <RCC_APB2PeriphClockCmd>
    2550:	a0b9                	j	259e <gpio_init+0xec>
D:\WCH\代码\3-PIT%20Demo\obj/../Libraries/seekfree_libraries/zf_gpio.c:52
    else if(4 == (pin >> 5)) RCC_APB2PeriphClockCmd(RCC_APB2Periph_GPIOE, ENABLE);
    2552:	fdc42783          	lw	a5,-36(s0)
    2556:	0057d713          	srli	a4,a5,0x5
    255a:	4791                	li	a5,4
    255c:	00f71863          	bne	a4,a5,256c <gpio_init+0xba>
D:\WCH\代码\3-PIT%20Demo\obj/../Libraries/seekfree_libraries/zf_gpio.c:52 (discriminator 1)
    2560:	4585                	li	a1,1
    2562:	04000513          	li	a0,64
    2566:	897fe0ef          	jal	ra,dfc <RCC_APB2PeriphClockCmd>
    256a:	a815                	j	259e <gpio_init+0xec>
D:\WCH\代码\3-PIT%20Demo\obj/../Libraries/seekfree_libraries/zf_gpio.c:53
    else if(5 == (pin >> 5)) RCC_APB2PeriphClockCmd(RCC_APB2Periph_GPIOF, ENABLE);
    256c:	fdc42783          	lw	a5,-36(s0)
    2570:	0057d713          	srli	a4,a5,0x5
    2574:	4795                	li	a5,5
    2576:	00f71863          	bne	a4,a5,2586 <gpio_init+0xd4>
D:\WCH\代码\3-PIT%20Demo\obj/../Libraries/seekfree_libraries/zf_gpio.c:53 (discriminator 1)
    257a:	4585                	li	a1,1
    257c:	08000513          	li	a0,128
    2580:	87dfe0ef          	jal	ra,dfc <RCC_APB2PeriphClockCmd>
    2584:	a829                	j	259e <gpio_init+0xec>
D:\WCH\代码\3-PIT%20Demo\obj/../Libraries/seekfree_libraries/zf_gpio.c:54
    else if(6 == (pin >> 5)) RCC_APB2PeriphClockCmd(RCC_APB2Periph_GPIOG, ENABLE);
    2586:	fdc42783          	lw	a5,-36(s0)
    258a:	0057d713          	srli	a4,a5,0x5
    258e:	4799                	li	a5,6
    2590:	00f71763          	bne	a4,a5,259e <gpio_init+0xec>
D:\WCH\代码\3-PIT%20Demo\obj/../Libraries/seekfree_libraries/zf_gpio.c:54 (discriminator 1)
    2594:	4585                	li	a1,1
    2596:	10000513          	li	a0,256
    259a:	863fe0ef          	jal	ra,dfc <RCC_APB2PeriphClockCmd>
D:\WCH\代码\3-PIT%20Demo\obj/../Libraries/seekfree_libraries/zf_gpio.c:58


    //设置引脚号
    GPIO_InitStructure.GPIO_Pin = (uint16)(1 << io_pin);
    259e:	fee44783          	lbu	a5,-18(s0)
    25a2:	4705                	li	a4,1
    25a4:	00f717b3          	sll	a5,a4,a5
    25a8:	07c2                	slli	a5,a5,0x10
    25aa:	83c1                	srli	a5,a5,0x10
    25ac:	fef41023          	sh	a5,-32(s0)
D:\WCH\代码\3-PIT%20Demo\obj/../Libraries/seekfree_libraries/zf_gpio.c:60

    if(GPO == dir)
    25b0:	fd842703          	lw	a4,-40(s0)
    25b4:	4785                	li	a5,1
    25b6:	02f71763          	bne	a4,a5,25e4 <gpio_init+0x132>
D:\WCH\代码\3-PIT%20Demo\obj/../Libraries/seekfree_libraries/zf_gpio.c:63
    {
        //只有输出需要设置速度
        if((uint16)pinconf >> 8 == 0) GPIO_InitStructure.GPIO_Speed = (GPIOSpeed_TypeDef)(GPIO_Speed_50MHz);  //防止没有填写这个参数,默认设置50Mhz
    25ba:	fd042783          	lw	a5,-48(s0)
    25be:	07c2                	slli	a5,a5,0x10
    25c0:	83c1                	srli	a5,a5,0x10
    25c2:	83a1                	srli	a5,a5,0x8
    25c4:	07c2                	slli	a5,a5,0x10
    25c6:	83c1                	srli	a5,a5,0x10
    25c8:	e789                	bnez	a5,25d2 <gpio_init+0x120>
D:\WCH\代码\3-PIT%20Demo\obj/../Libraries/seekfree_libraries/zf_gpio.c:63 (discriminator 1)
    25ca:	478d                	li	a5,3
    25cc:	fef42223          	sw	a5,-28(s0)
    25d0:	a811                	j	25e4 <gpio_init+0x132>
D:\WCH\代码\3-PIT%20Demo\obj/../Libraries/seekfree_libraries/zf_gpio.c:64
        else GPIO_InitStructure.GPIO_Speed = (GPIOSpeed_TypeDef)((uint16)pinconf >> 8);                       //已经填写了该参数。根据值来设置
    25d2:	fd042783          	lw	a5,-48(s0)
    25d6:	07c2                	slli	a5,a5,0x10
    25d8:	83c1                	srli	a5,a5,0x10
    25da:	83a1                	srli	a5,a5,0x8
    25dc:	07c2                	slli	a5,a5,0x10
    25de:	83c1                	srli	a5,a5,0x10
    25e0:	fef42223          	sw	a5,-28(s0)
D:\WCH\代码\3-PIT%20Demo\obj/../Libraries/seekfree_libraries/zf_gpio.c:68
    }

    //设置模式
    GPIO_InitStructure.GPIO_Mode = (GPIOMode_TypeDef)((uint16)pinconf & 0xff);
    25e4:	fd042783          	lw	a5,-48(s0)
    25e8:	07c2                	slli	a5,a5,0x10
    25ea:	83c1                	srli	a5,a5,0x10
    25ec:	0ff7f793          	andi	a5,a5,255
    25f0:	fef42423          	sw	a5,-24(s0)
D:\WCH\代码\3-PIT%20Demo\obj/../Libraries/seekfree_libraries/zf_gpio.c:69
    GPIO_Init((GPIO_TypeDef *)(GPION[io_group]), &GPIO_InitStructure);
    25f4:	fef44703          	lbu	a4,-17(s0)
    25f8:	6795                	lui	a5,0x5
    25fa:	070a                	slli	a4,a4,0x2
    25fc:	39478793          	addi	a5,a5,916 # 5394 <GPION>
    2600:	97ba                	add	a5,a5,a4
    2602:	439c                	lw	a5,0(a5)
    2604:	873e                	mv	a4,a5
    2606:	fe040793          	addi	a5,s0,-32
    260a:	85be                	mv	a1,a5
    260c:	853a                	mv	a0,a4
    260e:	ee1fd0ef          	jal	ra,4ee <GPIO_Init>
D:\WCH\代码\3-PIT%20Demo\obj/../Libraries/seekfree_libraries/zf_gpio.c:71

    if(GPO == dir)
    2612:	fd842703          	lw	a4,-40(s0)
    2616:	4785                	li	a5,1
    2618:	02f71b63          	bne	a4,a5,264e <gpio_init+0x19c>
D:\WCH\代码\3-PIT%20Demo\obj/../Libraries/seekfree_libraries/zf_gpio.c:74
    {
        //只有输出需要设置引脚状态
        GPIO_WriteBit((GPIO_TypeDef *)(GPION[io_group]), (uint16)(1 << io_pin), dat);
    261c:	fef44703          	lbu	a4,-17(s0)
    2620:	6795                	lui	a5,0x5
    2622:	070a                	slli	a4,a4,0x2
    2624:	39478793          	addi	a5,a5,916 # 5394 <GPION>
    2628:	97ba                	add	a5,a5,a4
    262a:	439c                	lw	a5,0(a5)
    262c:	86be                	mv	a3,a5
    262e:	fee44783          	lbu	a5,-18(s0)
    2632:	4705                	li	a4,1
    2634:	00f717b3          	sll	a5,a4,a5
    2638:	07c2                	slli	a5,a5,0x10
    263a:	83c1                	srli	a5,a5,0x10
    263c:	fd744703          	lbu	a4,-41(s0)
    2640:	863a                	mv	a2,a4
    2642:	85be                	mv	a1,a5
    2644:	8536                	mv	a0,a3
    2646:	8d2fe0ef          	jal	ra,718 <GPIO_WriteBit>
    264a:	a011                	j	264e <gpio_init+0x19c>
D:\WCH\代码\3-PIT%20Demo\obj/../Libraries/seekfree_libraries/zf_gpio.c:46
    if(PIN_NULL == pin) return;
    264c:	0001                	nop
D:\WCH\代码\3-PIT%20Demo\obj/../Libraries/seekfree_libraries/zf_gpio.c:76
    }
}
    264e:	50b2                	lw	ra,44(sp)
    2650:	5422                	lw	s0,40(sp)
    2652:	6145                	addi	sp,sp,48
    2654:	8082                	ret

00002656 <gpio_get>:
gpio_get():
D:\WCH\代码\3-PIT%20Demo\obj/../Libraries/seekfree_libraries/zf_gpio.c:103
//  @param      pin         选择的引脚 (可选择范围由 common.h 内PIN_enum枚举值确定)
//  @return     uint8       0：低电平 1：高电平
//  Sample usage:           uint8 status = gpio_get(D0);//获取D0引脚电平
//-------------------------------------------------------------------------------------------------------------------
uint8 gpio_get(PIN_enum pin)
{
    2656:	7179                	addi	sp,sp,-48
    2658:	d622                	sw	s0,44(sp)
    265a:	1800                	addi	s0,sp,48
    265c:	fca42e23          	sw	a0,-36(s0)
D:\WCH\代码\3-PIT%20Demo\obj/../Libraries/seekfree_libraries/zf_gpio.c:104
    uint8 io_group = (pin & 0xE0) >> 5;
    2660:	fdc42783          	lw	a5,-36(s0)
    2664:	8395                	srli	a5,a5,0x5
    2666:	0ff7f793          	andi	a5,a5,255
    266a:	8b9d                	andi	a5,a5,7
    266c:	fef407a3          	sb	a5,-17(s0)
D:\WCH\代码\3-PIT%20Demo\obj/../Libraries/seekfree_libraries/zf_gpio.c:105
    uint8 io_pin = pin & 0x1F;
    2670:	fdc42783          	lw	a5,-36(s0)
    2674:	0ff7f793          	andi	a5,a5,255
    2678:	8bfd                	andi	a5,a5,31
    267a:	fef40723          	sb	a5,-18(s0)
D:\WCH\代码\3-PIT%20Demo\obj/../Libraries/seekfree_libraries/zf_gpio.c:107

    if((((GPIO_TypeDef *)(GPION[io_group]))->INDR & (1 << io_pin)) != 0)
    267e:	fef44703          	lbu	a4,-17(s0)
    2682:	6795                	lui	a5,0x5
    2684:	070a                	slli	a4,a4,0x2
    2686:	39478793          	addi	a5,a5,916 # 5394 <GPION>
    268a:	97ba                	add	a5,a5,a4
    268c:	439c                	lw	a5,0(a5)
    268e:	479c                	lw	a5,8(a5)
    2690:	fee44703          	lbu	a4,-18(s0)
    2694:	4685                	li	a3,1
    2696:	00e69733          	sll	a4,a3,a4
    269a:	8ff9                	and	a5,a5,a4
    269c:	c399                	beqz	a5,26a2 <gpio_get+0x4c>
D:\WCH\代码\3-PIT%20Demo\obj/../Libraries/seekfree_libraries/zf_gpio.c:109
    {
        return 1;
    269e:	4785                	li	a5,1
    26a0:	a011                	j	26a4 <gpio_get+0x4e>
D:\WCH\代码\3-PIT%20Demo\obj/../Libraries/seekfree_libraries/zf_gpio.c:111
    }
    return 0;
    26a2:	4781                	li	a5,0
D:\WCH\代码\3-PIT%20Demo\obj/../Libraries/seekfree_libraries/zf_gpio.c:114


}
    26a4:	853e                	mv	a0,a5
    26a6:	5432                	lw	s0,44(sp)
    26a8:	6145                	addi	sp,sp,48
    26aa:	8082                	ret

000026ac <gpio_toggle>:
gpio_toggle():
D:\WCH\代码\3-PIT%20Demo\obj/../Libraries/seekfree_libraries/zf_gpio.c:124
//  @param      pin         选择的引脚 (可选择范围由 common.h 内PIN_enum枚举值确定)
//  @return     void        
//  Sample usage:           gpio_toggle(D5);//D5引脚电平翻转
//-------------------------------------------------------------------------------------------------------------------
void gpio_toggle(PIN_enum pin)
{
    26ac:	7179                	addi	sp,sp,-48
    26ae:	d622                	sw	s0,44(sp)
    26b0:	1800                	addi	s0,sp,48
    26b2:	fca42e23          	sw	a0,-36(s0)
D:\WCH\代码\3-PIT%20Demo\obj/../Libraries/seekfree_libraries/zf_gpio.c:125
    uint8 io_group = (pin & 0xE0) >> 5;
    26b6:	fdc42783          	lw	a5,-36(s0)
    26ba:	8395                	srli	a5,a5,0x5
    26bc:	0ff7f793          	andi	a5,a5,255
    26c0:	8b9d                	andi	a5,a5,7
    26c2:	fef407a3          	sb	a5,-17(s0)
D:\WCH\代码\3-PIT%20Demo\obj/../Libraries/seekfree_libraries/zf_gpio.c:126
    uint8 io_pin = pin & 0x1F;
    26c6:	fdc42783          	lw	a5,-36(s0)
    26ca:	0ff7f793          	andi	a5,a5,255
    26ce:	8bfd                	andi	a5,a5,31
    26d0:	fef40723          	sb	a5,-18(s0)
D:\WCH\代码\3-PIT%20Demo\obj/../Libraries/seekfree_libraries/zf_gpio.c:128

    ((GPIO_TypeDef *)(GPION[io_group]))->OUTDR ^= (uint16)(1 << io_pin);
    26d4:	fef44703          	lbu	a4,-17(s0)
    26d8:	6795                	lui	a5,0x5
    26da:	070a                	slli	a4,a4,0x2
    26dc:	39478793          	addi	a5,a5,916 # 5394 <GPION>
    26e0:	97ba                	add	a5,a5,a4
    26e2:	439c                	lw	a5,0(a5)
    26e4:	47dc                	lw	a5,12(a5)
    26e6:	fee44703          	lbu	a4,-18(s0)
    26ea:	4685                	li	a3,1
    26ec:	00e69733          	sll	a4,a3,a4
    26f0:	0742                	slli	a4,a4,0x10
    26f2:	8341                	srli	a4,a4,0x10
    26f4:	863a                	mv	a2,a4
    26f6:	fef44683          	lbu	a3,-17(s0)
    26fa:	6715                	lui	a4,0x5
    26fc:	068a                	slli	a3,a3,0x2
    26fe:	39470713          	addi	a4,a4,916 # 5394 <GPION>
    2702:	9736                	add	a4,a4,a3
    2704:	4318                	lw	a4,0(a4)
    2706:	8fb1                	xor	a5,a5,a2
    2708:	c75c                	sw	a5,12(a4)
D:\WCH\代码\3-PIT%20Demo\obj/../Libraries/seekfree_libraries/zf_gpio.c:129
}
    270a:	0001                	nop
    270c:	5432                	lw	s0,44(sp)
    270e:	6145                	addi	sp,sp,48
    2710:	8082                	ret

00002712 <gpio_interrupt_init>:
gpio_interrupt_init():
D:\WCH\代码\3-PIT%20Demo\obj/../Libraries/seekfree_libraries/zf_gpio.c:141
//  @param      trigger     中断触发方式 选择范围参见h文件TRIGGER_enum枚举
//  @return     void
//  Sample usage:           gpio_interrupt_init(D0, RISING, GPIO_INT_CONFIG);//D0上升沿中断
//-------------------------------------------------------------------------------------------------------------------
void gpio_interrupt_init(PIN_enum pin,TRIGGER_enum trigger, uint32 pinconf)
{
    2712:	7179                	addi	sp,sp,-48
    2714:	d606                	sw	ra,44(sp)
    2716:	d422                	sw	s0,40(sp)
    2718:	1800                	addi	s0,sp,48
    271a:	fca42e23          	sw	a0,-36(s0)
    271e:	fcb42c23          	sw	a1,-40(s0)
    2722:	fcc42a23          	sw	a2,-44(s0)
D:\WCH\代码\3-PIT%20Demo\obj/../Libraries/seekfree_libraries/zf_gpio.c:143
    EXTI_InitTypeDef EXTI_InitStructure;
    RCC_APB2PeriphClockCmd(RCC_APB2Periph_AFIO,ENABLE);
    2726:	4585                	li	a1,1
    2728:	4505                	li	a0,1
    272a:	ed2fe0ef          	jal	ra,dfc <RCC_APB2PeriphClockCmd>
D:\WCH\代码\3-PIT%20Demo\obj/../Libraries/seekfree_libraries/zf_gpio.c:144
    gpio_init(pin, GPI, 0, pinconf);
    272e:	fd442683          	lw	a3,-44(s0)
    2732:	4601                	li	a2,0
    2734:	4581                	li	a1,0
    2736:	fdc42503          	lw	a0,-36(s0)
    273a:	3ba5                	jal	24b2 <gpio_init>
D:\WCH\代码\3-PIT%20Demo\obj/../Libraries/seekfree_libraries/zf_gpio.c:145
    GPIO_EXTILineConfig(pin >> 5, pin & 0x1F);              //引脚中断号配置
    273c:	fdc42783          	lw	a5,-36(s0)
    2740:	8395                	srli	a5,a5,0x5
    2742:	0ff7f713          	andi	a4,a5,255
    2746:	fdc42783          	lw	a5,-36(s0)
    274a:	0ff7f793          	andi	a5,a5,255
    274e:	8bfd                	andi	a5,a5,31
    2750:	0ff7f793          	andi	a5,a5,255
    2754:	85be                	mv	a1,a5
    2756:	853a                	mv	a0,a4
    2758:	934fe0ef          	jal	ra,88c <GPIO_EXTILineConfig>
D:\WCH\代码\3-PIT%20Demo\obj/../Libraries/seekfree_libraries/zf_gpio.c:146
    EXTI_InitStructure.EXTI_Line = 1 << (pin & 0x1F);       //引脚号配置
    275c:	fdc42783          	lw	a5,-36(s0)
    2760:	8bfd                	andi	a5,a5,31
    2762:	4705                	li	a4,1
    2764:	00f717b3          	sll	a5,a4,a5
    2768:	fef42023          	sw	a5,-32(s0)
D:\WCH\代码\3-PIT%20Demo\obj/../Libraries/seekfree_libraries/zf_gpio.c:147
    EXTI_InitStructure.EXTI_Mode = EXTI_Mode_Interrupt;     //触发模式
    276c:	fe042223          	sw	zero,-28(s0)
D:\WCH\代码\3-PIT%20Demo\obj/../Libraries/seekfree_libraries/zf_gpio.c:148
    EXTI_InitStructure.EXTI_Trigger = trigger;              //触发方式
    2770:	fd842783          	lw	a5,-40(s0)
    2774:	fef42423          	sw	a5,-24(s0)
D:\WCH\代码\3-PIT%20Demo\obj/../Libraries/seekfree_libraries/zf_gpio.c:149
    EXTI_InitStructure.EXTI_LineCmd = ENABLE;               //使能或者失能
    2778:	4785                	li	a5,1
    277a:	fef42623          	sw	a5,-20(s0)
D:\WCH\代码\3-PIT%20Demo\obj/../Libraries/seekfree_libraries/zf_gpio.c:150
    EXTI_Init(&EXTI_InitStructure);
    277e:	fe040793          	addi	a5,s0,-32
    2782:	853e                	mv	a0,a5
    2784:	b85fd0ef          	jal	ra,308 <EXTI_Init>
D:\WCH\代码\3-PIT%20Demo\obj/../Libraries/seekfree_libraries/zf_gpio.c:151
}
    2788:	0001                	nop
    278a:	50b2                	lw	ra,44(sp)
    278c:	5422                	lw	s0,40(sp)
    278e:	6145                	addi	sp,sp,48
    2790:	8082                	ret

00002792 <nvic_init>:
nvic_init():
D:\WCH\代码\3-PIT%20Demo\obj/../Libraries/seekfree_libraries/zf_nvic.c:38
//  @param      status                      使能或者失能
//  @return     void
//  Sample usage:                           nvic_init(EXTI0_IRQn,0, 0, ENABLE); //外部中断0使能,抢占优先级最高，次优先级最高。
//-------------------------------------------------------------------------------------------------------------------
void nvic_init(IRQn_Type irqn,uint8 preemption_priority, uint8 sub_priority,uint8 status)
{
    2792:	7179                	addi	sp,sp,-48
    2794:	d606                	sw	ra,44(sp)
    2796:	d422                	sw	s0,40(sp)
    2798:	1800                	addi	s0,sp,48
    279a:	fca42e23          	sw	a0,-36(s0)
    279e:	87ae                	mv	a5,a1
    27a0:	8736                	mv	a4,a3
    27a2:	fcf40da3          	sb	a5,-37(s0)
    27a6:	87b2                	mv	a5,a2
    27a8:	fcf40d23          	sb	a5,-38(s0)
    27ac:	87ba                	mv	a5,a4
    27ae:	fcf40ca3          	sb	a5,-39(s0)
D:\WCH\代码\3-PIT%20Demo\obj/../Libraries/seekfree_libraries/zf_nvic.c:41
    NVIC_InitTypeDef NVIC_InitStructure;

    NVIC_InitStructure.NVIC_IRQChannel = irqn;                                  //中断号设置
    27b2:	fdc42783          	lw	a5,-36(s0)
    27b6:	0ff7f793          	andi	a5,a5,255
    27ba:	fef40423          	sb	a5,-24(s0)
D:\WCH\代码\3-PIT%20Demo\obj/../Libraries/seekfree_libraries/zf_nvic.c:42
    NVIC_InitStructure.NVIC_IRQChannelPreemptionPriority=preemption_priority;   //抢占优先级值越小，优先级越高
    27be:	fdb44783          	lbu	a5,-37(s0)
    27c2:	fef404a3          	sb	a5,-23(s0)
D:\WCH\代码\3-PIT%20Demo\obj/../Libraries/seekfree_libraries/zf_nvic.c:43
    NVIC_InitStructure.NVIC_IRQChannelSubPriority = sub_priority;               //次优先级值越小，优先级越高
    27c6:	fda44783          	lbu	a5,-38(s0)
    27ca:	fef40523          	sb	a5,-22(s0)
D:\WCH\代码\3-PIT%20Demo\obj/../Libraries/seekfree_libraries/zf_nvic.c:44
    NVIC_InitStructure.NVIC_IRQChannelCmd = status;                             //使能
    27ce:	fd944783          	lbu	a5,-39(s0)
    27d2:	fef42623          	sw	a5,-20(s0)
D:\WCH\代码\3-PIT%20Demo\obj/../Libraries/seekfree_libraries/zf_nvic.c:45
    NVIC_Init(&NVIC_InitStructure);
    27d6:	fe840793          	addi	a5,s0,-24
    27da:	853e                	mv	a0,a5
    27dc:	9e0fe0ef          	jal	ra,9bc <NVIC_Init>
D:\WCH\代码\3-PIT%20Demo\obj/../Libraries/seekfree_libraries/zf_nvic.c:48

    //保存状态值
    irq_status.ienr0 |= (PFIC->ISR[0] & 0xFFFFF000);    //[31:12]
    27e0:	e000e7b7          	lui	a5,0xe000e
    27e4:	4398                	lw	a4,0(a5)
    27e6:	77fd                	lui	a5,0xfffff
    27e8:	8f7d                	and	a4,a4,a5
    27ea:	83c1a783          	lw	a5,-1988(gp) # 200000c4 <irq_status>
    27ee:	8f5d                	or	a4,a4,a5
    27f0:	82e1ae23          	sw	a4,-1988(gp) # 200000c4 <irq_status>
D:\WCH\代码\3-PIT%20Demo\obj/../Libraries/seekfree_libraries/zf_nvic.c:49
    irq_status.ienr1 |= (PFIC->ISR[1] & 0x0FFFFFFF);    //[27:0]
    27f4:	e000e7b7          	lui	a5,0xe000e
    27f8:	43d8                	lw	a4,4(a5)
    27fa:	100007b7          	lui	a5,0x10000
    27fe:	17fd                	addi	a5,a5,-1
    2800:	8f7d                	and	a4,a4,a5
    2802:	83c18793          	addi	a5,gp,-1988 # 200000c4 <irq_status>
    2806:	43dc                	lw	a5,4(a5)
    2808:	8f5d                	or	a4,a4,a5
    280a:	83c18793          	addi	a5,gp,-1988 # 200000c4 <irq_status>
    280e:	c3d8                	sw	a4,4(a5)
D:\WCH\代码\3-PIT%20Demo\obj/../Libraries/seekfree_libraries/zf_nvic.c:50
    if(irq_status.flag == 1)
    2810:	83c18793          	addi	a5,gp,-1988 # 200000c4 <irq_status>
    2814:	0087c703          	lbu	a4,8(a5) # 10000008 <_data_lma+0xfffab50>
    2818:	4785                	li	a5,1
    281a:	00f71363          	bne	a4,a5,2820 <nvic_init+0x8e>
D:\WCH\代码\3-PIT%20Demo\obj/../Libraries/seekfree_libraries/zf_nvic.c:52
    {
        close_all_irq();
    281e:	2031                	jal	282a <close_all_irq>
D:\WCH\代码\3-PIT%20Demo\obj/../Libraries/seekfree_libraries/zf_nvic.c:54
    }
}
    2820:	0001                	nop
    2822:	50b2                	lw	ra,44(sp)
    2824:	5422                	lw	s0,40(sp)
    2826:	6145                	addi	sp,sp,48
    2828:	8082                	ret

0000282a <close_all_irq>:
close_all_irq():
D:\WCH\代码\3-PIT%20Demo\obj/../Libraries/seekfree_libraries/zf_nvic.c:63
//  @return     void
//  @since      v1.0
//  Sample usage:
//-------------------------------------------------------------------------------------------------------------------
void close_all_irq(void)
{
    282a:	1141                	addi	sp,sp,-16
    282c:	c622                	sw	s0,12(sp)
    282e:	0800                	addi	s0,sp,16
D:\WCH\代码\3-PIT%20Demo\obj/../Libraries/seekfree_libraries/zf_nvic.c:65
    //写1，清空状态
    PFIC->IRER[0] = 0xffffffff;
    2830:	e000e7b7          	lui	a5,0xe000e
    2834:	577d                	li	a4,-1
    2836:	18e7a023          	sw	a4,384(a5) # e000e180 <_eusrstack+0xc0009180>
D:\WCH\代码\3-PIT%20Demo\obj/../Libraries/seekfree_libraries/zf_nvic.c:66
    PFIC->IRER[1] = 0xffffffff;
    283a:	e000e7b7          	lui	a5,0xe000e
    283e:	577d                	li	a4,-1
    2840:	18e7a223          	sw	a4,388(a5) # e000e184 <_eusrstack+0xc0009184>
D:\WCH\代码\3-PIT%20Demo\obj/../Libraries/seekfree_libraries/zf_nvic.c:67
}
    2844:	0001                	nop
    2846:	4432                	lw	s0,12(sp)
    2848:	0141                	addi	sp,sp,16
    284a:	8082                	ret

0000284c <sys_recover_irq>:
sys_recover_irq():
D:\WCH\代码\3-PIT%20Demo\obj/../Libraries/seekfree_libraries/zf_nvic.c:77
//  @return     void
//  @since      v1.0
//  Sample usage:
//-------------------------------------------------------------------------------------------------------------------
void sys_recover_irq(void)
{
    284c:	1141                	addi	sp,sp,-16
    284e:	c622                	sw	s0,12(sp)
    2850:	0800                	addi	s0,sp,16
D:\WCH\代码\3-PIT%20Demo\obj/../Libraries/seekfree_libraries/zf_nvic.c:78
    PFIC->IENR[0] = irq_status.ienr0;
    2852:	e000e7b7          	lui	a5,0xe000e
    2856:	83c1a703          	lw	a4,-1988(gp) # 200000c4 <irq_status>
    285a:	10e7a023          	sw	a4,256(a5) # e000e100 <_eusrstack+0xc0009100>
D:\WCH\代码\3-PIT%20Demo\obj/../Libraries/seekfree_libraries/zf_nvic.c:79
    PFIC->IENR[1] = irq_status.ienr1;
    285e:	e000e7b7          	lui	a5,0xe000e
    2862:	83c18713          	addi	a4,gp,-1988 # 200000c4 <irq_status>
    2866:	4358                	lw	a4,4(a4)
    2868:	10e7a223          	sw	a4,260(a5) # e000e104 <_eusrstack+0xc0009104>
D:\WCH\代码\3-PIT%20Demo\obj/../Libraries/seekfree_libraries/zf_nvic.c:80
}
    286c:	0001                	nop
    286e:	4432                	lw	s0,12(sp)
    2870:	0141                	addi	sp,sp,16
    2872:	8082                	ret

00002874 <EnableGlobalIRQ>:
EnableGlobalIRQ():
D:\WCH\代码\3-PIT%20Demo\obj/../Libraries/seekfree_libraries/zf_nvic.c:107
//  @return     void
//  @since      v1.0
//  Sample usage:
//-------------------------------------------------------------------------------------------------------------------
void EnableGlobalIRQ(uint8 state)
{
    2874:	1101                	addi	sp,sp,-32
    2876:	ce06                	sw	ra,28(sp)
    2878:	cc22                	sw	s0,24(sp)
    287a:	1000                	addi	s0,sp,32
    287c:	87aa                	mv	a5,a0
    287e:	fef407a3          	sb	a5,-17(s0)
D:\WCH\代码\3-PIT%20Demo\obj/../Libraries/seekfree_libraries/zf_nvic.c:108
    if(state == 0)
    2882:	fef44783          	lbu	a5,-17(s0)
    2886:	e781                	bnez	a5,288e <EnableGlobalIRQ+0x1a>
D:\WCH\代码\3-PIT%20Demo\obj/../Libraries/seekfree_libraries/zf_nvic.c:110
    {
        close_all_irq_flag = 0;
    2888:	80018a23          	sb	zero,-2028(gp) # 2000009c <close_all_irq_flag>
D:\WCH\代码\3-PIT%20Demo\obj/../Libraries/seekfree_libraries/zf_nvic.c:111
        sys_recover_irq();
    288c:	37c1                	jal	284c <sys_recover_irq>
D:\WCH\代码\3-PIT%20Demo\obj/../Libraries/seekfree_libraries/zf_nvic.c:113
    }
}
    288e:	0001                	nop
    2890:	40f2                	lw	ra,28(sp)
    2892:	4462                	lw	s0,24(sp)
    2894:	6105                	addi	sp,sp,32
    2896:	8082                	ret

00002898 <timer_pit_interrupt_ms>:
timer_pit_interrupt_ms():
D:\WCH\代码\3-PIT%20Demo\obj/../Libraries/seekfree_libraries/zf_pit.c:36
//  @param      ms          定时周期(1-32767)
//  @return     void
//  Sample usage:           timer_pit_interrupt(TIMER_1, 5); 使用定时器1作为5ms一次的周期中断
//-------------------------------------------------------------------------------------------------------------------
void timer_pit_interrupt_ms(TIMERN_enum timern, uint16 count)
{
    2898:	7179                	addi	sp,sp,-48
    289a:	d606                	sw	ra,44(sp)
    289c:	d422                	sw	s0,40(sp)
    289e:	1800                	addi	s0,sp,48
    28a0:	fca42e23          	sw	a0,-36(s0)
    28a4:	87ae                	mv	a5,a1
    28a6:	fcf41d23          	sh	a5,-38(s0)
D:\WCH\代码\3-PIT%20Demo\obj/../Libraries/seekfree_libraries/zf_pit.c:39
    TIM_TimeBaseInitTypeDef  TIM_TimeBaseStructure;

    if(TIMER_1 == timern)
    28aa:	fdc42783          	lw	a5,-36(s0)
    28ae:	eb81                	bnez	a5,28be <timer_pit_interrupt_ms+0x26>
D:\WCH\代码\3-PIT%20Demo\obj/../Libraries/seekfree_libraries/zf_pit.c:40
        RCC_APB2PeriphClockCmd(RCC_APB2Periph_TIM1, ENABLE);                //时钟使能
    28b0:	4585                	li	a1,1
    28b2:	6785                	lui	a5,0x1
    28b4:	80078513          	addi	a0,a5,-2048 # 800 <__stack_size>
    28b8:	d44fe0ef          	jal	ra,dfc <RCC_APB2PeriphClockCmd>
    28bc:	a835                	j	28f8 <timer_pit_interrupt_ms+0x60>
D:\WCH\代码\3-PIT%20Demo\obj/../Libraries/seekfree_libraries/zf_pit.c:41
    else if(TIMER_2 == timern)
    28be:	fdc42703          	lw	a4,-36(s0)
    28c2:	4785                	li	a5,1
    28c4:	00f71763          	bne	a4,a5,28d2 <timer_pit_interrupt_ms+0x3a>
D:\WCH\代码\3-PIT%20Demo\obj/../Libraries/seekfree_libraries/zf_pit.c:42
        RCC_APB1PeriphClockCmd(RCC_APB1Periph_TIM2, ENABLE);                //时钟使能
    28c8:	4585                	li	a1,1
    28ca:	4505                	li	a0,1
    28cc:	d76fe0ef          	jal	ra,e42 <RCC_APB1PeriphClockCmd>
    28d0:	a025                	j	28f8 <timer_pit_interrupt_ms+0x60>
D:\WCH\代码\3-PIT%20Demo\obj/../Libraries/seekfree_libraries/zf_pit.c:43
    else if(TIMER_3 == timern)
    28d2:	fdc42703          	lw	a4,-36(s0)
    28d6:	4789                	li	a5,2
    28d8:	00f71763          	bne	a4,a5,28e6 <timer_pit_interrupt_ms+0x4e>
D:\WCH\代码\3-PIT%20Demo\obj/../Libraries/seekfree_libraries/zf_pit.c:44
        RCC_APB1PeriphClockCmd(RCC_APB1Periph_TIM3, ENABLE);                //时钟使能
    28dc:	4585                	li	a1,1
    28de:	4509                	li	a0,2
    28e0:	d62fe0ef          	jal	ra,e42 <RCC_APB1PeriphClockCmd>
    28e4:	a811                	j	28f8 <timer_pit_interrupt_ms+0x60>
D:\WCH\代码\3-PIT%20Demo\obj/../Libraries/seekfree_libraries/zf_pit.c:45
    else if(TIMER_4 == timern)
    28e6:	fdc42703          	lw	a4,-36(s0)
    28ea:	478d                	li	a5,3
    28ec:	00f71663          	bne	a4,a5,28f8 <timer_pit_interrupt_ms+0x60>
D:\WCH\代码\3-PIT%20Demo\obj/../Libraries/seekfree_libraries/zf_pit.c:46
        RCC_APB1PeriphClockCmd(RCC_APB1Periph_TIM4, ENABLE);                //时钟使能
    28f0:	4585                	li	a1,1
    28f2:	4511                	li	a0,4
    28f4:	d4efe0ef          	jal	ra,e42 <RCC_APB1PeriphClockCmd>
D:\WCH\代码\3-PIT%20Demo\obj/../Libraries/seekfree_libraries/zf_pit.c:50

    //定时器TIM3初始化,计数器
    //ATRLR寄存器设置为1 ，则计数0和1，一共2次
    assert(count);
    28f8:	fda45783          	lhu	a5,-38(s0)
    28fc:	ef91                	bnez	a5,2918 <timer_pit_interrupt_ms+0x80>
D:\WCH\代码\3-PIT%20Demo\obj/../Libraries/seekfree_libraries/zf_pit.c:50 (discriminator 1)
    28fe:	6795                	lui	a5,0x5
    2900:	12478693          	addi	a3,a5,292 # 5124 <_exit+0x66>
    2904:	6795                	lui	a5,0x5
    2906:	3a478613          	addi	a2,a5,932 # 53a4 <__func__.3543>
    290a:	03200593          	li	a1,50
    290e:	6795                	lui	a5,0x5
    2910:	12c78513          	addi	a0,a5,300 # 512c <_exit+0x6e>
    2914:	57a010ef          	jal	ra,3e8e <__assert_func>
D:\WCH\代码\3-PIT%20Demo\obj/../Libraries/seekfree_libraries/zf_pit.c:53


    TIM_TimeBaseStructure.TIM_Period = 44000 - 1;                           //计数44000
    2918:	77ed                	lui	a5,0xffffb
    291a:	bdf78793          	addi	a5,a5,-1057 # ffffabdf <_eusrstack+0xdfff5bdf>
    291e:	fef41423          	sh	a5,-24(s0)
D:\WCH\代码\3-PIT%20Demo\obj/../Libraries/seekfree_libraries/zf_pit.c:54
    TIM_TimeBaseStructure.TIM_Prescaler = 2*count - 1;                      //设置为1MHZ计数一次,也就是1us计数一次
    2922:	fda45783          	lhu	a5,-38(s0)
    2926:	0786                	slli	a5,a5,0x1
    2928:	07c2                	slli	a5,a5,0x10
    292a:	83c1                	srli	a5,a5,0x10
    292c:	17fd                	addi	a5,a5,-1
    292e:	07c2                	slli	a5,a5,0x10
    2930:	83c1                	srli	a5,a5,0x10
    2932:	fef41223          	sh	a5,-28(s0)
D:\WCH\代码\3-PIT%20Demo\obj/../Libraries/seekfree_libraries/zf_pit.c:56

    TIM_TimeBaseStructure.TIM_ClockDivision = TIM_CKD_DIV1;                 //设置时钟分割:TDTS = Tck_tim
    2936:	fe041523          	sh	zero,-22(s0)
D:\WCH\代码\3-PIT%20Demo\obj/../Libraries/seekfree_libraries/zf_pit.c:57
    TIM_TimeBaseStructure.TIM_CounterMode = TIM_CounterMode_Up;             //TIM向上计数模式
    293a:	fe041323          	sh	zero,-26(s0)
D:\WCH\代码\3-PIT%20Demo\obj/../Libraries/seekfree_libraries/zf_pit.c:58
    TIM_TimeBaseStructure.TIM_RepetitionCounter = 0;                        //重复计数器设置为0
    293e:	fe040623          	sb	zero,-20(s0)
D:\WCH\代码\3-PIT%20Demo\obj/../Libraries/seekfree_libraries/zf_pit.c:59
    TIM_TimeBaseInit((TIM_TypeDef *)TIMERN[timern], &TIM_TimeBaseStructure);//根据指定的参数初始化TIMx的时间基数单位
    2942:	6795                	lui	a5,0x5
    2944:	fdc42703          	lw	a4,-36(s0)
    2948:	070a                	slli	a4,a4,0x2
    294a:	3bc78793          	addi	a5,a5,956 # 53bc <TIMERN>
    294e:	97ba                	add	a5,a5,a4
    2950:	439c                	lw	a5,0(a5)
    2952:	873e                	mv	a4,a5
    2954:	fe440793          	addi	a5,s0,-28
    2958:	85be                	mv	a1,a5
    295a:	853a                	mv	a0,a4
    295c:	d2cfe0ef          	jal	ra,e88 <TIM_TimeBaseInit>
D:\WCH\代码\3-PIT%20Demo\obj/../Libraries/seekfree_libraries/zf_pit.c:61

    TIM_ITConfig((TIM_TypeDef *)TIMERN[timern],TIM_IT_Update,ENABLE );      //使能指定的TIM中断,允许更新中断
    2960:	6795                	lui	a5,0x5
    2962:	fdc42703          	lw	a4,-36(s0)
    2966:	070a                	slli	a4,a4,0x2
    2968:	3bc78793          	addi	a5,a5,956 # 53bc <TIMERN>
    296c:	97ba                	add	a5,a5,a4
    296e:	439c                	lw	a5,0(a5)
    2970:	4605                	li	a2,1
    2972:	4585                	li	a1,1
    2974:	853e                	mv	a0,a5
    2976:	ce5fe0ef          	jal	ra,165a <TIM_ITConfig>
D:\WCH\代码\3-PIT%20Demo\obj/../Libraries/seekfree_libraries/zf_pit.c:64

    //中断优先级NVIC设置
    if(TIMER_1 == timern)
    297a:	fdc42783          	lw	a5,-36(s0)
    297e:	eb81                	bnez	a5,298e <timer_pit_interrupt_ms+0xf6>
D:\WCH\代码\3-PIT%20Demo\obj/../Libraries/seekfree_libraries/zf_pit.c:65
        nvic_init(TIM1_UP_IRQn, 0, 2, ENABLE);
    2980:	4685                	li	a3,1
    2982:	4609                	li	a2,2
    2984:	4581                	li	a1,0
    2986:	02900513          	li	a0,41
    298a:	3521                	jal	2792 <nvic_init>
    298c:	a0a1                	j	29d4 <timer_pit_interrupt_ms+0x13c>
D:\WCH\代码\3-PIT%20Demo\obj/../Libraries/seekfree_libraries/zf_pit.c:66
    else if(TIMER_2 == timern)
    298e:	fdc42703          	lw	a4,-36(s0)
    2992:	4785                	li	a5,1
    2994:	00f71963          	bne	a4,a5,29a6 <timer_pit_interrupt_ms+0x10e>
D:\WCH\代码\3-PIT%20Demo\obj/../Libraries/seekfree_libraries/zf_pit.c:67
        nvic_init(TIM2_IRQn, 0, 2, ENABLE);
    2998:	4685                	li	a3,1
    299a:	4609                	li	a2,2
    299c:	4581                	li	a1,0
    299e:	02c00513          	li	a0,44
    29a2:	3bc5                	jal	2792 <nvic_init>
    29a4:	a805                	j	29d4 <timer_pit_interrupt_ms+0x13c>
D:\WCH\代码\3-PIT%20Demo\obj/../Libraries/seekfree_libraries/zf_pit.c:68
    else if(TIMER_3 == timern)
    29a6:	fdc42703          	lw	a4,-36(s0)
    29aa:	4789                	li	a5,2
    29ac:	00f71963          	bne	a4,a5,29be <timer_pit_interrupt_ms+0x126>
D:\WCH\代码\3-PIT%20Demo\obj/../Libraries/seekfree_libraries/zf_pit.c:69
        nvic_init(TIM3_IRQn, 0, 2, ENABLE);
    29b0:	4685                	li	a3,1
    29b2:	4609                	li	a2,2
    29b4:	4581                	li	a1,0
    29b6:	02d00513          	li	a0,45
    29ba:	3be1                	jal	2792 <nvic_init>
    29bc:	a821                	j	29d4 <timer_pit_interrupt_ms+0x13c>
D:\WCH\代码\3-PIT%20Demo\obj/../Libraries/seekfree_libraries/zf_pit.c:70
    else if(TIMER_4 == timern)
    29be:	fdc42703          	lw	a4,-36(s0)
    29c2:	478d                	li	a5,3
    29c4:	00f71863          	bne	a4,a5,29d4 <timer_pit_interrupt_ms+0x13c>
D:\WCH\代码\3-PIT%20Demo\obj/../Libraries/seekfree_libraries/zf_pit.c:71
        nvic_init(TIM4_IRQn, 0, 2, ENABLE);
    29c8:	4685                	li	a3,1
    29ca:	4609                	li	a2,2
    29cc:	4581                	li	a1,0
    29ce:	02e00513          	li	a0,46
    29d2:	33c1                	jal	2792 <nvic_init>
D:\WCH\代码\3-PIT%20Demo\obj/../Libraries/seekfree_libraries/zf_pit.c:73

    TIM_Cmd((TIM_TypeDef *)TIMERN[timern], ENABLE);  //使能TIMx
    29d4:	6795                	lui	a5,0x5
    29d6:	fdc42703          	lw	a4,-36(s0)
    29da:	070a                	slli	a4,a4,0x2
    29dc:	3bc78793          	addi	a5,a5,956 # 53bc <TIMERN>
    29e0:	97ba                	add	a5,a5,a4
    29e2:	439c                	lw	a5,0(a5)
    29e4:	4585                	li	a1,1
    29e6:	853e                	mv	a0,a5
    29e8:	bbbfe0ef          	jal	ra,15a2 <TIM_Cmd>
D:\WCH\代码\3-PIT%20Demo\obj/../Libraries/seekfree_libraries/zf_pit.c:75

}
    29ec:	0001                	nop
    29ee:	50b2                	lw	ra,44(sp)
    29f0:	5422                	lw	s0,40(sp)
    29f2:	6145                	addi	sp,sp,48
    29f4:	8082                	ret

000029f6 <pwm_gpio_init>:
pwm_gpio_init():
D:\WCH\代码\3-PIT%20Demo\obj/../Libraries/seekfree_libraries/zf_pwm.c:35
//  @param      pwmch       PWM通道(可选择范围由zf_pwm.h内PWMCH_enum枚举值确定)
//  @return     void
//  Sample usage:           内部使用  用户无需关心
//-------------------------------------------------------------------------------------------------------------------
void pwm_gpio_init(PWMCH_enum pwmch)
{
    29f6:	1101                	addi	sp,sp,-32
    29f8:	ce06                	sw	ra,28(sp)
    29fa:	cc22                	sw	s0,24(sp)
    29fc:	1000                	addi	s0,sp,32
    29fe:	fea42623          	sw	a0,-20(s0)
    2a02:	fec42703          	lw	a4,-20(s0)
    2a06:	20000793          	li	a5,512
    2a0a:	24f70763          	beq	a4,a5,2c58 <pwm_gpio_init+0x262>
    2a0e:	fec42703          	lw	a4,-20(s0)
    2a12:	20000793          	li	a5,512
    2a16:	0ae7ea63          	bltu	a5,a4,2aca <pwm_gpio_init+0xd4>
    2a1a:	fec42703          	lw	a4,-20(s0)
    2a1e:	10100793          	li	a5,257
    2a22:	1cf70063          	beq	a4,a5,2be2 <pwm_gpio_init+0x1ec>
    2a26:	fec42703          	lw	a4,-20(s0)
    2a2a:	10100793          	li	a5,257
    2a2e:	04e7e263          	bltu	a5,a4,2a72 <pwm_gpio_init+0x7c>
    2a32:	fec42703          	lw	a4,-20(s0)
    2a36:	4789                	li	a5,2
    2a38:	16f70d63          	beq	a4,a5,2bb2 <pwm_gpio_init+0x1bc>
    2a3c:	fec42703          	lw	a4,-20(s0)
    2a40:	4789                	li	a5,2
    2a42:	00e7ec63          	bltu	a5,a4,2a5a <pwm_gpio_init+0x64>
    2a46:	fec42783          	lw	a5,-20(s0)
    2a4a:	14078463          	beqz	a5,2b92 <pwm_gpio_init+0x19c>
    2a4e:	fec42703          	lw	a4,-20(s0)
    2a52:	4785                	li	a5,1
    2a54:	14f70763          	beq	a4,a5,2ba2 <pwm_gpio_init+0x1ac>
D:\WCH\代码\3-PIT%20Demo\obj/../Libraries/seekfree_libraries/zf_pwm.c:145
        case PWM4_CH4_B9:
            gpio_init(B9, GPO, 0, SPEED_50MHZ|OUT_AF_PP);
            break;
        default:
            //断言
            break;
    2a58:	ace5                	j	2d50 <pwm_gpio_init+0x35a>
    2a5a:	fec42703          	lw	a4,-20(s0)
    2a5e:	478d                	li	a5,3
    2a60:	16f70163          	beq	a4,a5,2bc2 <pwm_gpio_init+0x1cc>
    2a64:	fec42703          	lw	a4,-20(s0)
    2a68:	10000793          	li	a5,256
    2a6c:	16f70363          	beq	a4,a5,2bd2 <pwm_gpio_init+0x1dc>
    2a70:	a4c5                	j	2d50 <pwm_gpio_init+0x35a>
    2a72:	fec42703          	lw	a4,-20(s0)
    2a76:	11000793          	li	a5,272
    2a7a:	18f70c63          	beq	a4,a5,2c12 <pwm_gpio_init+0x21c>
    2a7e:	fec42703          	lw	a4,-20(s0)
    2a82:	11000793          	li	a5,272
    2a86:	00e7ef63          	bltu	a5,a4,2aa4 <pwm_gpio_init+0xae>
    2a8a:	fec42703          	lw	a4,-20(s0)
    2a8e:	10200793          	li	a5,258
    2a92:	16f70063          	beq	a4,a5,2bf2 <pwm_gpio_init+0x1fc>
    2a96:	fec42703          	lw	a4,-20(s0)
    2a9a:	10300793          	li	a5,259
    2a9e:	16f70263          	beq	a4,a5,2c02 <pwm_gpio_init+0x20c>
    2aa2:	a47d                	j	2d50 <pwm_gpio_init+0x35a>
    2aa4:	fec42703          	lw	a4,-20(s0)
    2aa8:	11200793          	li	a5,274
    2aac:	18f70463          	beq	a4,a5,2c34 <pwm_gpio_init+0x23e>
    2ab0:	fec42703          	lw	a4,-20(s0)
    2ab4:	11200793          	li	a5,274
    2ab8:	16f76563          	bltu	a4,a5,2c22 <pwm_gpio_init+0x22c>
    2abc:	fec42703          	lw	a4,-20(s0)
    2ac0:	11300793          	li	a5,275
    2ac4:	18f70163          	beq	a4,a5,2c46 <pwm_gpio_init+0x250>
    2ac8:	a461                	j	2d50 <pwm_gpio_init+0x35a>
    2aca:	fec42703          	lw	a4,-20(s0)
    2ace:	21300793          	li	a5,531
    2ad2:	20f70063          	beq	a4,a5,2cd2 <pwm_gpio_init+0x2dc>
    2ad6:	fec42703          	lw	a4,-20(s0)
    2ada:	21300793          	li	a5,531
    2ade:	04e7ee63          	bltu	a5,a4,2b3a <pwm_gpio_init+0x144>
    2ae2:	fec42703          	lw	a4,-20(s0)
    2ae6:	20300793          	li	a5,515
    2aea:	1af70063          	beq	a4,a5,2c8a <pwm_gpio_init+0x294>
    2aee:	fec42703          	lw	a4,-20(s0)
    2af2:	20300793          	li	a5,515
    2af6:	00e7ef63          	bltu	a5,a4,2b14 <pwm_gpio_init+0x11e>
    2afa:	fec42703          	lw	a4,-20(s0)
    2afe:	20100793          	li	a5,513
    2b02:	16f70363          	beq	a4,a5,2c68 <pwm_gpio_init+0x272>
    2b06:	fec42703          	lw	a4,-20(s0)
    2b0a:	20200793          	li	a5,514
    2b0e:	16f70563          	beq	a4,a5,2c78 <pwm_gpio_init+0x282>
    2b12:	ac3d                	j	2d50 <pwm_gpio_init+0x35a>
    2b14:	fec42703          	lw	a4,-20(s0)
    2b18:	21100793          	li	a5,529
    2b1c:	18f70963          	beq	a4,a5,2cae <pwm_gpio_init+0x2b8>
    2b20:	fec42703          	lw	a4,-20(s0)
    2b24:	21100793          	li	a5,529
    2b28:	18e7ec63          	bltu	a5,a4,2cc0 <pwm_gpio_init+0x2ca>
    2b2c:	fec42703          	lw	a4,-20(s0)
    2b30:	21000793          	li	a5,528
    2b34:	16f70463          	beq	a4,a5,2c9c <pwm_gpio_init+0x2a6>
    2b38:	ac21                	j	2d50 <pwm_gpio_init+0x35a>
    2b3a:	fec42703          	lw	a4,-20(s0)
    2b3e:	30000793          	li	a5,768
    2b42:	1cf70363          	beq	a4,a5,2d08 <pwm_gpio_init+0x312>
    2b46:	fec42703          	lw	a4,-20(s0)
    2b4a:	30000793          	li	a5,768
    2b4e:	00e7ef63          	bltu	a5,a4,2b6c <pwm_gpio_init+0x176>
    2b52:	fec42703          	lw	a4,-20(s0)
    2b56:	22000793          	li	a5,544
    2b5a:	18f70563          	beq	a4,a5,2ce4 <pwm_gpio_init+0x2ee>
    2b5e:	fec42703          	lw	a4,-20(s0)
    2b62:	22100793          	li	a5,545
    2b66:	18f70863          	beq	a4,a5,2cf6 <pwm_gpio_init+0x300>
    2b6a:	a2dd                	j	2d50 <pwm_gpio_init+0x35a>
    2b6c:	fec42703          	lw	a4,-20(s0)
    2b70:	30200793          	li	a5,770
    2b74:	1af70c63          	beq	a4,a5,2d2c <pwm_gpio_init+0x336>
    2b78:	fec42703          	lw	a4,-20(s0)
    2b7c:	30200793          	li	a5,770
    2b80:	18f76d63          	bltu	a4,a5,2d1a <pwm_gpio_init+0x324>
    2b84:	fec42703          	lw	a4,-20(s0)
    2b88:	30300793          	li	a5,771
    2b8c:	1af70963          	beq	a4,a5,2d3e <pwm_gpio_init+0x348>
    2b90:	a2c1                	j	2d50 <pwm_gpio_init+0x35a>
D:\WCH\代码\3-PIT%20Demo\obj/../Libraries/seekfree_libraries/zf_pwm.c:40
            gpio_init(A8, GPO, 0, SPEED_50MHZ|OUT_AF_PP);
    2b92:	31800693          	li	a3,792
    2b96:	4601                	li	a2,0
    2b98:	4585                	li	a1,1
    2b9a:	4521                	li	a0,8
    2b9c:	917ff0ef          	jal	ra,24b2 <gpio_init>
D:\WCH\代码\3-PIT%20Demo\obj/../Libraries/seekfree_libraries/zf_pwm.c:41
            break;
    2ba0:	aa45                	j	2d50 <pwm_gpio_init+0x35a>
D:\WCH\代码\3-PIT%20Demo\obj/../Libraries/seekfree_libraries/zf_pwm.c:43
            gpio_init(A9, GPO, 0, SPEED_50MHZ|OUT_AF_PP);
    2ba2:	31800693          	li	a3,792
    2ba6:	4601                	li	a2,0
    2ba8:	4585                	li	a1,1
    2baa:	4525                	li	a0,9
    2bac:	907ff0ef          	jal	ra,24b2 <gpio_init>
D:\WCH\代码\3-PIT%20Demo\obj/../Libraries/seekfree_libraries/zf_pwm.c:44
            break;
    2bb0:	a245                	j	2d50 <pwm_gpio_init+0x35a>
D:\WCH\代码\3-PIT%20Demo\obj/../Libraries/seekfree_libraries/zf_pwm.c:46
            gpio_init(A10, GPO, 0, SPEED_50MHZ|OUT_AF_PP);
    2bb2:	31800693          	li	a3,792
    2bb6:	4601                	li	a2,0
    2bb8:	4585                	li	a1,1
    2bba:	4529                	li	a0,10
    2bbc:	8f7ff0ef          	jal	ra,24b2 <gpio_init>
D:\WCH\代码\3-PIT%20Demo\obj/../Libraries/seekfree_libraries/zf_pwm.c:47
            break;
    2bc0:	aa41                	j	2d50 <pwm_gpio_init+0x35a>
D:\WCH\代码\3-PIT%20Demo\obj/../Libraries/seekfree_libraries/zf_pwm.c:49
            gpio_init(A11, GPO, 0, SPEED_50MHZ|OUT_AF_PP);
    2bc2:	31800693          	li	a3,792
    2bc6:	4601                	li	a2,0
    2bc8:	4585                	li	a1,1
    2bca:	452d                	li	a0,11
    2bcc:	8e7ff0ef          	jal	ra,24b2 <gpio_init>
D:\WCH\代码\3-PIT%20Demo\obj/../Libraries/seekfree_libraries/zf_pwm.c:50
            break;
    2bd0:	a241                	j	2d50 <pwm_gpio_init+0x35a>
D:\WCH\代码\3-PIT%20Demo\obj/../Libraries/seekfree_libraries/zf_pwm.c:73
            gpio_init(A0, GPO, 0, SPEED_50MHZ|OUT_AF_PP);
    2bd2:	31800693          	li	a3,792
    2bd6:	4601                	li	a2,0
    2bd8:	4585                	li	a1,1
    2bda:	4501                	li	a0,0
    2bdc:	8d7ff0ef          	jal	ra,24b2 <gpio_init>
D:\WCH\代码\3-PIT%20Demo\obj/../Libraries/seekfree_libraries/zf_pwm.c:74
            break;
    2be0:	aa85                	j	2d50 <pwm_gpio_init+0x35a>
D:\WCH\代码\3-PIT%20Demo\obj/../Libraries/seekfree_libraries/zf_pwm.c:76
            gpio_init(A1, GPO, 0, SPEED_50MHZ|OUT_AF_PP);
    2be2:	31800693          	li	a3,792
    2be6:	4601                	li	a2,0
    2be8:	4585                	li	a1,1
    2bea:	4505                	li	a0,1
    2bec:	8c7ff0ef          	jal	ra,24b2 <gpio_init>
D:\WCH\代码\3-PIT%20Demo\obj/../Libraries/seekfree_libraries/zf_pwm.c:77
            break;
    2bf0:	a285                	j	2d50 <pwm_gpio_init+0x35a>
D:\WCH\代码\3-PIT%20Demo\obj/../Libraries/seekfree_libraries/zf_pwm.c:79
            gpio_init(A2, GPO, 0, SPEED_50MHZ|OUT_AF_PP);
    2bf2:	31800693          	li	a3,792
    2bf6:	4601                	li	a2,0
    2bf8:	4585                	li	a1,1
    2bfa:	4509                	li	a0,2
    2bfc:	8b7ff0ef          	jal	ra,24b2 <gpio_init>
D:\WCH\代码\3-PIT%20Demo\obj/../Libraries/seekfree_libraries/zf_pwm.c:80
            break;
    2c00:	aa81                	j	2d50 <pwm_gpio_init+0x35a>
D:\WCH\代码\3-PIT%20Demo\obj/../Libraries/seekfree_libraries/zf_pwm.c:82
            gpio_init(A3, GPO, 0, SPEED_50MHZ|OUT_AF_PP);
    2c02:	31800693          	li	a3,792
    2c06:	4601                	li	a2,0
    2c08:	4585                	li	a1,1
    2c0a:	450d                	li	a0,3
    2c0c:	8a7ff0ef          	jal	ra,24b2 <gpio_init>
D:\WCH\代码\3-PIT%20Demo\obj/../Libraries/seekfree_libraries/zf_pwm.c:83
            break;
    2c10:	a281                	j	2d50 <pwm_gpio_init+0x35a>
D:\WCH\代码\3-PIT%20Demo\obj/../Libraries/seekfree_libraries/zf_pwm.c:86
            gpio_init(A15, GPO, 0, SPEED_50MHZ|OUT_AF_PP);
    2c12:	31800693          	li	a3,792
    2c16:	4601                	li	a2,0
    2c18:	4585                	li	a1,1
    2c1a:	453d                	li	a0,15
    2c1c:	897ff0ef          	jal	ra,24b2 <gpio_init>
D:\WCH\代码\3-PIT%20Demo\obj/../Libraries/seekfree_libraries/zf_pwm.c:87
            break;
    2c20:	aa05                	j	2d50 <pwm_gpio_init+0x35a>
D:\WCH\代码\3-PIT%20Demo\obj/../Libraries/seekfree_libraries/zf_pwm.c:89
            gpio_init(B3, GPO, 0, SPEED_50MHZ|OUT_AF_PP);
    2c22:	31800693          	li	a3,792
    2c26:	4601                	li	a2,0
    2c28:	4585                	li	a1,1
    2c2a:	02300513          	li	a0,35
    2c2e:	885ff0ef          	jal	ra,24b2 <gpio_init>
D:\WCH\代码\3-PIT%20Demo\obj/../Libraries/seekfree_libraries/zf_pwm.c:90
            break;
    2c32:	aa39                	j	2d50 <pwm_gpio_init+0x35a>
D:\WCH\代码\3-PIT%20Demo\obj/../Libraries/seekfree_libraries/zf_pwm.c:92
            gpio_init(B10, GPO, 0, SPEED_50MHZ|OUT_AF_PP);
    2c34:	31800693          	li	a3,792
    2c38:	4601                	li	a2,0
    2c3a:	4585                	li	a1,1
    2c3c:	02a00513          	li	a0,42
    2c40:	873ff0ef          	jal	ra,24b2 <gpio_init>
D:\WCH\代码\3-PIT%20Demo\obj/../Libraries/seekfree_libraries/zf_pwm.c:93
            break;
    2c44:	a231                	j	2d50 <pwm_gpio_init+0x35a>
D:\WCH\代码\3-PIT%20Demo\obj/../Libraries/seekfree_libraries/zf_pwm.c:95
            gpio_init(B11, GPO, 0, SPEED_50MHZ|OUT_AF_PP);
    2c46:	31800693          	li	a3,792
    2c4a:	4601                	li	a2,0
    2c4c:	4585                	li	a1,1
    2c4e:	02b00513          	li	a0,43
    2c52:	861ff0ef          	jal	ra,24b2 <gpio_init>
D:\WCH\代码\3-PIT%20Demo\obj/../Libraries/seekfree_libraries/zf_pwm.c:96
            break;
    2c56:	a8ed                	j	2d50 <pwm_gpio_init+0x35a>
D:\WCH\代码\3-PIT%20Demo\obj/../Libraries/seekfree_libraries/zf_pwm.c:99
            gpio_init(A6, GPO, 0, SPEED_50MHZ|OUT_AF_PP);
    2c58:	31800693          	li	a3,792
    2c5c:	4601                	li	a2,0
    2c5e:	4585                	li	a1,1
    2c60:	4519                	li	a0,6
    2c62:	851ff0ef          	jal	ra,24b2 <gpio_init>
D:\WCH\代码\3-PIT%20Demo\obj/../Libraries/seekfree_libraries/zf_pwm.c:100
            break;
    2c66:	a0ed                	j	2d50 <pwm_gpio_init+0x35a>
D:\WCH\代码\3-PIT%20Demo\obj/../Libraries/seekfree_libraries/zf_pwm.c:102
            gpio_init(A7, GPO, 0, SPEED_50MHZ|OUT_AF_PP);
    2c68:	31800693          	li	a3,792
    2c6c:	4601                	li	a2,0
    2c6e:	4585                	li	a1,1
    2c70:	451d                	li	a0,7
    2c72:	841ff0ef          	jal	ra,24b2 <gpio_init>
D:\WCH\代码\3-PIT%20Demo\obj/../Libraries/seekfree_libraries/zf_pwm.c:103
            break;
    2c76:	a8e9                	j	2d50 <pwm_gpio_init+0x35a>
D:\WCH\代码\3-PIT%20Demo\obj/../Libraries/seekfree_libraries/zf_pwm.c:105
            gpio_init(B0, GPO, 0, SPEED_50MHZ|OUT_AF_PP);
    2c78:	31800693          	li	a3,792
    2c7c:	4601                	li	a2,0
    2c7e:	4585                	li	a1,1
    2c80:	02000513          	li	a0,32
    2c84:	82fff0ef          	jal	ra,24b2 <gpio_init>
D:\WCH\代码\3-PIT%20Demo\obj/../Libraries/seekfree_libraries/zf_pwm.c:106
            break;
    2c88:	a0e1                	j	2d50 <pwm_gpio_init+0x35a>
D:\WCH\代码\3-PIT%20Demo\obj/../Libraries/seekfree_libraries/zf_pwm.c:108
            gpio_init(B1, GPO, 0, SPEED_50MHZ|OUT_AF_PP);
    2c8a:	31800693          	li	a3,792
    2c8e:	4601                	li	a2,0
    2c90:	4585                	li	a1,1
    2c92:	02100513          	li	a0,33
    2c96:	81dff0ef          	jal	ra,24b2 <gpio_init>
D:\WCH\代码\3-PIT%20Demo\obj/../Libraries/seekfree_libraries/zf_pwm.c:109
            break;
    2c9a:	a85d                	j	2d50 <pwm_gpio_init+0x35a>
D:\WCH\代码\3-PIT%20Demo\obj/../Libraries/seekfree_libraries/zf_pwm.c:112
            gpio_init(C6, GPO, 0, SPEED_50MHZ|OUT_AF_PP);
    2c9c:	31800693          	li	a3,792
    2ca0:	4601                	li	a2,0
    2ca2:	4585                	li	a1,1
    2ca4:	04600513          	li	a0,70
    2ca8:	80bff0ef          	jal	ra,24b2 <gpio_init>
D:\WCH\代码\3-PIT%20Demo\obj/../Libraries/seekfree_libraries/zf_pwm.c:113
            break;
    2cac:	a055                	j	2d50 <pwm_gpio_init+0x35a>
D:\WCH\代码\3-PIT%20Demo\obj/../Libraries/seekfree_libraries/zf_pwm.c:115
            gpio_init(C7, GPO, 0, SPEED_50MHZ|OUT_AF_PP);
    2cae:	31800693          	li	a3,792
    2cb2:	4601                	li	a2,0
    2cb4:	4585                	li	a1,1
    2cb6:	04700513          	li	a0,71
    2cba:	ff8ff0ef          	jal	ra,24b2 <gpio_init>
D:\WCH\代码\3-PIT%20Demo\obj/../Libraries/seekfree_libraries/zf_pwm.c:116
            break;
    2cbe:	a849                	j	2d50 <pwm_gpio_init+0x35a>
D:\WCH\代码\3-PIT%20Demo\obj/../Libraries/seekfree_libraries/zf_pwm.c:118
            gpio_init(C8, GPO, 0, SPEED_50MHZ|OUT_AF_PP);
    2cc0:	31800693          	li	a3,792
    2cc4:	4601                	li	a2,0
    2cc6:	4585                	li	a1,1
    2cc8:	04800513          	li	a0,72
    2ccc:	fe6ff0ef          	jal	ra,24b2 <gpio_init>
D:\WCH\代码\3-PIT%20Demo\obj/../Libraries/seekfree_libraries/zf_pwm.c:119
            break;
    2cd0:	a041                	j	2d50 <pwm_gpio_init+0x35a>
D:\WCH\代码\3-PIT%20Demo\obj/../Libraries/seekfree_libraries/zf_pwm.c:121
            gpio_init(C9, GPO, 0, SPEED_50MHZ|OUT_AF_PP);
    2cd2:	31800693          	li	a3,792
    2cd6:	4601                	li	a2,0
    2cd8:	4585                	li	a1,1
    2cda:	04900513          	li	a0,73
    2cde:	fd4ff0ef          	jal	ra,24b2 <gpio_init>
D:\WCH\代码\3-PIT%20Demo\obj/../Libraries/seekfree_libraries/zf_pwm.c:122
            break;
    2ce2:	a0bd                	j	2d50 <pwm_gpio_init+0x35a>
D:\WCH\代码\3-PIT%20Demo\obj/../Libraries/seekfree_libraries/zf_pwm.c:125
            gpio_init(B4, GPO, 0, SPEED_50MHZ|OUT_AF_PP);
    2ce4:	31800693          	li	a3,792
    2ce8:	4601                	li	a2,0
    2cea:	4585                	li	a1,1
    2cec:	02400513          	li	a0,36
    2cf0:	fc2ff0ef          	jal	ra,24b2 <gpio_init>
D:\WCH\代码\3-PIT%20Demo\obj/../Libraries/seekfree_libraries/zf_pwm.c:126
            break;
    2cf4:	a8b1                	j	2d50 <pwm_gpio_init+0x35a>
D:\WCH\代码\3-PIT%20Demo\obj/../Libraries/seekfree_libraries/zf_pwm.c:128
            gpio_init(B5, GPO, 0, SPEED_50MHZ|OUT_AF_PP);
    2cf6:	31800693          	li	a3,792
    2cfa:	4601                	li	a2,0
    2cfc:	4585                	li	a1,1
    2cfe:	02500513          	li	a0,37
    2d02:	fb0ff0ef          	jal	ra,24b2 <gpio_init>
D:\WCH\代码\3-PIT%20Demo\obj/../Libraries/seekfree_libraries/zf_pwm.c:129
            break;
    2d06:	a0a9                	j	2d50 <pwm_gpio_init+0x35a>
D:\WCH\代码\3-PIT%20Demo\obj/../Libraries/seekfree_libraries/zf_pwm.c:132
            gpio_init(B6, GPO, 0, SPEED_50MHZ|OUT_AF_PP);
    2d08:	31800693          	li	a3,792
    2d0c:	4601                	li	a2,0
    2d0e:	4585                	li	a1,1
    2d10:	02600513          	li	a0,38
    2d14:	f9eff0ef          	jal	ra,24b2 <gpio_init>
D:\WCH\代码\3-PIT%20Demo\obj/../Libraries/seekfree_libraries/zf_pwm.c:133
            break;
    2d18:	a825                	j	2d50 <pwm_gpio_init+0x35a>
D:\WCH\代码\3-PIT%20Demo\obj/../Libraries/seekfree_libraries/zf_pwm.c:135
            gpio_init(B7, GPO, 0, SPEED_50MHZ|OUT_AF_PP);
    2d1a:	31800693          	li	a3,792
    2d1e:	4601                	li	a2,0
    2d20:	4585                	li	a1,1
    2d22:	02700513          	li	a0,39
    2d26:	f8cff0ef          	jal	ra,24b2 <gpio_init>
D:\WCH\代码\3-PIT%20Demo\obj/../Libraries/seekfree_libraries/zf_pwm.c:136
            break;
    2d2a:	a01d                	j	2d50 <pwm_gpio_init+0x35a>
D:\WCH\代码\3-PIT%20Demo\obj/../Libraries/seekfree_libraries/zf_pwm.c:138
            gpio_init(B8, GPO, 0, SPEED_50MHZ|OUT_AF_PP);
    2d2c:	31800693          	li	a3,792
    2d30:	4601                	li	a2,0
    2d32:	4585                	li	a1,1
    2d34:	02800513          	li	a0,40
    2d38:	f7aff0ef          	jal	ra,24b2 <gpio_init>
D:\WCH\代码\3-PIT%20Demo\obj/../Libraries/seekfree_libraries/zf_pwm.c:139
            break;
    2d3c:	a811                	j	2d50 <pwm_gpio_init+0x35a>
D:\WCH\代码\3-PIT%20Demo\obj/../Libraries/seekfree_libraries/zf_pwm.c:141
            gpio_init(B9, GPO, 0, SPEED_50MHZ|OUT_AF_PP);
    2d3e:	31800693          	li	a3,792
    2d42:	4601                	li	a2,0
    2d44:	4585                	li	a1,1
    2d46:	02900513          	li	a0,41
    2d4a:	f68ff0ef          	jal	ra,24b2 <gpio_init>
D:\WCH\代码\3-PIT%20Demo\obj/../Libraries/seekfree_libraries/zf_pwm.c:142
            break;
    2d4e:	0001                	nop
D:\WCH\代码\3-PIT%20Demo\obj/../Libraries/seekfree_libraries/zf_pwm.c:147
    }
}
    2d50:	0001                	nop
    2d52:	40f2                	lw	ra,28(sp)
    2d54:	4462                	lw	s0,24(sp)
    2d56:	6105                	addi	sp,sp,32
    2d58:	8082                	ret

00002d5a <pwm_init>:
pwm_init():
D:\WCH\代码\3-PIT%20Demo\obj/../Libraries/seekfree_libraries/zf_pwm.c:165
//  @return     void
//  Sample usage:               pwm_init(PWM1_CH1_A8, 50, 5000);   //初始化PWM1 通道1 使用引脚A8  输出PWM频率50HZ   占空比为百分之 5000/PWM_DUTY_MAX*100
//                              PWM_DUTY_MAX在zf_pwm.h文件中 默认为50000
//-------------------------------------------------------------------------------------------------------------------
void pwm_init(PWMCH_enum pwmch, uint32 freq, uint32 duty)
{
    2d5a:	7139                	addi	sp,sp,-64
    2d5c:	de06                	sw	ra,60(sp)
    2d5e:	dc22                	sw	s0,56(sp)
    2d60:	0080                	addi	s0,sp,64
    2d62:	fca42623          	sw	a0,-52(s0)
    2d66:	fcb42423          	sw	a1,-56(s0)
    2d6a:	fcc42223          	sw	a2,-60(s0)
D:\WCH\代码\3-PIT%20Demo\obj/../Libraries/seekfree_libraries/zf_pwm.c:170
    TIM_TimeBaseInitTypeDef  TIM_TimeBaseStructure;
    TIM_OCInitTypeDef  TIM_OCInitStructure;
    uint16 match_temp;                                          //占空比值
    uint16 period_temp;                                         //周期值
    uint16 freq_div = 0;                                        //分频值
    2d6e:	fe041723          	sh	zero,-18(s0)
D:\WCH\代码\3-PIT%20Demo\obj/../Libraries/seekfree_libraries/zf_pwm.c:172

    pwm_gpio_init(pwmch);                                       //PWM引脚初始化
    2d72:	fcc42503          	lw	a0,-52(s0)
    2d76:	3141                	jal	29f6 <pwm_gpio_init>
D:\WCH\代码\3-PIT%20Demo\obj/../Libraries/seekfree_libraries/zf_pwm.c:174

    if((pwmch >> 8) == 0x00)
    2d78:	fcc42783          	lw	a5,-52(s0)
    2d7c:	83a1                	srli	a5,a5,0x8
    2d7e:	eb81                	bnez	a5,2d8e <pwm_init+0x34>
D:\WCH\代码\3-PIT%20Demo\obj/../Libraries/seekfree_libraries/zf_pwm.c:175
        RCC_APB2PeriphClockCmd(RCC_APB2Periph_TIM1, ENABLE);    //使能定时器1时钟
    2d80:	4585                	li	a1,1
    2d82:	6785                	lui	a5,0x1
    2d84:	80078513          	addi	a0,a5,-2048 # 800 <__stack_size>
    2d88:	874fe0ef          	jal	ra,dfc <RCC_APB2PeriphClockCmd>
    2d8c:	a0a1                	j	2dd4 <pwm_init+0x7a>
D:\WCH\代码\3-PIT%20Demo\obj/../Libraries/seekfree_libraries/zf_pwm.c:176
    else if((pwmch >> 8) == 0x01)
    2d8e:	fcc42783          	lw	a5,-52(s0)
    2d92:	0087d713          	srli	a4,a5,0x8
    2d96:	4785                	li	a5,1
    2d98:	00f71763          	bne	a4,a5,2da6 <pwm_init+0x4c>
D:\WCH\代码\3-PIT%20Demo\obj/../Libraries/seekfree_libraries/zf_pwm.c:177
        RCC_APB1PeriphClockCmd(RCC_APB1Periph_TIM2, ENABLE);    //使能定时器2时钟
    2d9c:	4585                	li	a1,1
    2d9e:	4505                	li	a0,1
    2da0:	8a2fe0ef          	jal	ra,e42 <RCC_APB1PeriphClockCmd>
    2da4:	a805                	j	2dd4 <pwm_init+0x7a>
D:\WCH\代码\3-PIT%20Demo\obj/../Libraries/seekfree_libraries/zf_pwm.c:178
    else if((pwmch >> 8) == 0x02)
    2da6:	fcc42783          	lw	a5,-52(s0)
    2daa:	0087d713          	srli	a4,a5,0x8
    2dae:	4789                	li	a5,2
    2db0:	00f71763          	bne	a4,a5,2dbe <pwm_init+0x64>
D:\WCH\代码\3-PIT%20Demo\obj/../Libraries/seekfree_libraries/zf_pwm.c:179
        RCC_APB1PeriphClockCmd(RCC_APB1Periph_TIM3, ENABLE);    //使能定时器3时钟
    2db4:	4585                	li	a1,1
    2db6:	4509                	li	a0,2
    2db8:	88afe0ef          	jal	ra,e42 <RCC_APB1PeriphClockCmd>
    2dbc:	a821                	j	2dd4 <pwm_init+0x7a>
D:\WCH\代码\3-PIT%20Demo\obj/../Libraries/seekfree_libraries/zf_pwm.c:180
    else if((pwmch >> 8) == 0x03)
    2dbe:	fcc42783          	lw	a5,-52(s0)
    2dc2:	0087d713          	srli	a4,a5,0x8
    2dc6:	478d                	li	a5,3
    2dc8:	00f71663          	bne	a4,a5,2dd4 <pwm_init+0x7a>
D:\WCH\代码\3-PIT%20Demo\obj/../Libraries/seekfree_libraries/zf_pwm.c:181
        RCC_APB1PeriphClockCmd(RCC_APB1Periph_TIM4, ENABLE);    //使能定时器4时钟
    2dcc:	4585                	li	a1,1
    2dce:	4511                	li	a0,4
    2dd0:	872fe0ef          	jal	ra,e42 <RCC_APB1PeriphClockCmd>
D:\WCH\代码\3-PIT%20Demo\obj/../Libraries/seekfree_libraries/zf_pwm.c:183

    RCC_APB2PeriphClockCmd(RCC_APB2Periph_AFIO, ENABLE);        //使能AFIO复用功能模块时钟
    2dd4:	4585                	li	a1,1
    2dd6:	4505                	li	a0,1
    2dd8:	824fe0ef          	jal	ra,dfc <RCC_APB2PeriphClockCmd>
D:\WCH\代码\3-PIT%20Demo\obj/../Libraries/seekfree_libraries/zf_pwm.c:186

    //引脚重映射
    if((pwmch >> 4) == 0x10)        //PWM1的部分重映射
    2ddc:	fcc42783          	lw	a5,-52(s0)
    2de0:	0047d713          	srli	a4,a5,0x4
    2de4:	47c1                	li	a5,16
    2de6:	00f71a63          	bne	a4,a5,2dfa <pwm_init+0xa0>
D:\WCH\代码\3-PIT%20Demo\obj/../Libraries/seekfree_libraries/zf_pwm.c:187
        GPIO_PinRemapConfig(GPIO_PartialRemap_TIM1, ENABLE);
    2dea:	4585                	li	a1,1
    2dec:	001607b7          	lui	a5,0x160
    2df0:	04078513          	addi	a0,a5,64 # 160040 <_data_lma+0x15ab88>
    2df4:	95dfd0ef          	jal	ra,750 <GPIO_PinRemapConfig>
    2df8:	a8b9                	j	2e56 <pwm_init+0xfc>
D:\WCH\代码\3-PIT%20Demo\obj/../Libraries/seekfree_libraries/zf_pwm.c:188
    else if((pwmch >> 4) == 0x11)   //PWM2的完全重映射
    2dfa:	fcc42783          	lw	a5,-52(s0)
    2dfe:	0047d713          	srli	a4,a5,0x4
    2e02:	47c5                	li	a5,17
    2e04:	00f71a63          	bne	a4,a5,2e18 <pwm_init+0xbe>
D:\WCH\代码\3-PIT%20Demo\obj/../Libraries/seekfree_libraries/zf_pwm.c:189
        GPIO_PinRemapConfig(GPIO_FullRemap_TIM2, ENABLE);
    2e08:	4585                	li	a1,1
    2e0a:	001807b7          	lui	a5,0x180
    2e0e:	30078513          	addi	a0,a5,768 # 180300 <_data_lma+0x17ae48>
    2e12:	93ffd0ef          	jal	ra,750 <GPIO_PinRemapConfig>
    2e16:	a081                	j	2e56 <pwm_init+0xfc>
D:\WCH\代码\3-PIT%20Demo\obj/../Libraries/seekfree_libraries/zf_pwm.c:190
    else if((pwmch >> 4) == 0x21)   //PWM3的完全重映射
    2e18:	fcc42783          	lw	a5,-52(s0)
    2e1c:	0047d713          	srli	a4,a5,0x4
    2e20:	02100793          	li	a5,33
    2e24:	00f71a63          	bne	a4,a5,2e38 <pwm_init+0xde>
D:\WCH\代码\3-PIT%20Demo\obj/../Libraries/seekfree_libraries/zf_pwm.c:191
        GPIO_PinRemapConfig(GPIO_FullRemap_TIM3, ENABLE);
    2e28:	4585                	li	a1,1
    2e2a:	001a17b7          	lui	a5,0x1a1
    2e2e:	c0078513          	addi	a0,a5,-1024 # 1a0c00 <_data_lma+0x19b748>
    2e32:	91ffd0ef          	jal	ra,750 <GPIO_PinRemapConfig>
    2e36:	a005                	j	2e56 <pwm_init+0xfc>
D:\WCH\代码\3-PIT%20Demo\obj/../Libraries/seekfree_libraries/zf_pwm.c:192
    else if((pwmch >> 4) == 0x22)   //PWM3的部分重映射
    2e38:	fcc42783          	lw	a5,-52(s0)
    2e3c:	0047d713          	srli	a4,a5,0x4
    2e40:	02200793          	li	a5,34
    2e44:	00f71963          	bne	a4,a5,2e56 <pwm_init+0xfc>
D:\WCH\代码\3-PIT%20Demo\obj/../Libraries/seekfree_libraries/zf_pwm.c:193
        GPIO_PinRemapConfig(GPIO_PartialRemap_TIM3, ENABLE);
    2e48:	4585                	li	a1,1
    2e4a:	001a17b7          	lui	a5,0x1a1
    2e4e:	80078513          	addi	a0,a5,-2048 # 1a0800 <_data_lma+0x19b348>
    2e52:	8fffd0ef          	jal	ra,750 <GPIO_PinRemapConfig>
D:\WCH\代码\3-PIT%20Demo\obj/../Libraries/seekfree_libraries/zf_pwm.c:196

    //获取系统主频
    sys_clk = 8000000 * (((RCC->CFGR0 >> 18)&0x0F) + 2);
    2e56:	400217b7          	lui	a5,0x40021
    2e5a:	43dc                	lw	a5,4(a5)
    2e5c:	83c9                	srli	a5,a5,0x12
    2e5e:	00f7f713          	andi	a4,a5,15
    2e62:	007a17b7          	lui	a5,0x7a1
    2e66:	20078793          	addi	a5,a5,512 # 7a1200 <_data_lma+0x79bd48>
    2e6a:	02f70733          	mul	a4,a4,a5
    2e6e:	00f427b7          	lui	a5,0xf42
    2e72:	40078793          	addi	a5,a5,1024 # f42400 <_data_lma+0xf3cf48>
    2e76:	973e                	add	a4,a4,a5
    2e78:	80e1ac23          	sw	a4,-2024(gp) # 200000a0 <sys_clk>
D:\WCH\代码\3-PIT%20Demo\obj/../Libraries/seekfree_libraries/zf_pwm.c:198

    freq_div = (uint16)((sys_clk / freq) >> 16);                            //多少分频
    2e7c:	8181a703          	lw	a4,-2024(gp) # 200000a0 <sys_clk>
    2e80:	fc842783          	lw	a5,-56(s0)
    2e84:	02f757b3          	divu	a5,a4,a5
    2e88:	83c1                	srli	a5,a5,0x10
    2e8a:	fef41723          	sh	a5,-18(s0)
D:\WCH\代码\3-PIT%20Demo\obj/../Libraries/seekfree_libraries/zf_pwm.c:199
    period_temp = (uint16)(sys_clk/(freq*(freq_div + 1)));                  //周期
    2e8e:	8181a703          	lw	a4,-2024(gp) # 200000a0 <sys_clk>
    2e92:	fee45783          	lhu	a5,-18(s0)
    2e96:	0785                	addi	a5,a5,1
    2e98:	86be                	mv	a3,a5
    2e9a:	fc842783          	lw	a5,-56(s0)
    2e9e:	02f687b3          	mul	a5,a3,a5
    2ea2:	02f757b3          	divu	a5,a4,a5
    2ea6:	fef41623          	sh	a5,-20(s0)
D:\WCH\代码\3-PIT%20Demo\obj/../Libraries/seekfree_libraries/zf_pwm.c:200
    match_temp = period_temp * duty / PWM_DUTY_MAX;                         //占空比
    2eaa:	fec45703          	lhu	a4,-20(s0)
    2eae:	fc442783          	lw	a5,-60(s0)
    2eb2:	02f70733          	mul	a4,a4,a5
    2eb6:	6789                	lui	a5,0x2
    2eb8:	71078793          	addi	a5,a5,1808 # 2710 <gpio_toggle+0x64>
    2ebc:	02f757b3          	divu	a5,a4,a5
    2ec0:	fef41523          	sh	a5,-22(s0)
D:\WCH\代码\3-PIT%20Demo\obj/../Libraries/seekfree_libraries/zf_pwm.c:203

    //初始化TIM1-4
    TIM_TimeBaseStructure.TIM_Period = period_temp - 1;                     //设置在下一个更新事件装入活动的自动重装载寄存器周期的值
    2ec4:	fec45783          	lhu	a5,-20(s0)
    2ec8:	17fd                	addi	a5,a5,-1
    2eca:	07c2                	slli	a5,a5,0x10
    2ecc:	83c1                	srli	a5,a5,0x10
    2ece:	fef41223          	sh	a5,-28(s0)
D:\WCH\代码\3-PIT%20Demo\obj/../Libraries/seekfree_libraries/zf_pwm.c:204
    TIM_TimeBaseStructure.TIM_Prescaler = freq_div;                         //设置用来作为TIMx时钟频率除数的预分频值
    2ed2:	fee45783          	lhu	a5,-18(s0)
    2ed6:	fef41023          	sh	a5,-32(s0)
D:\WCH\代码\3-PIT%20Demo\obj/../Libraries/seekfree_libraries/zf_pwm.c:205
    TIM_TimeBaseStructure.TIM_ClockDivision = TIM_CKD_DIV1;                 //设置时钟分割:TDTS = Tck_tim
    2eda:	fe041323          	sh	zero,-26(s0)
D:\WCH\代码\3-PIT%20Demo\obj/../Libraries/seekfree_libraries/zf_pwm.c:206
    TIM_TimeBaseStructure.TIM_CounterMode = TIM_CounterMode_Up;             //TIM向上计数模式
    2ede:	fe041123          	sh	zero,-30(s0)
D:\WCH\代码\3-PIT%20Demo\obj/../Libraries/seekfree_libraries/zf_pwm.c:207
    TIM_TimeBaseStructure.TIM_RepetitionCounter = 0;
    2ee2:	fe040423          	sb	zero,-24(s0)
D:\WCH\代码\3-PIT%20Demo\obj/../Libraries/seekfree_libraries/zf_pwm.c:210

    //初始化TIM1-4 PWM模式
    TIM_OCInitStructure.TIM_OCMode = TIM_OCMode_PWM2;                       //选择定时器模式:TIM脉冲宽度调制模式2
    2ee6:	07000793          	li	a5,112
    2eea:	fcf41823          	sh	a5,-48(s0)
D:\WCH\代码\3-PIT%20Demo\obj/../Libraries/seekfree_libraries/zf_pwm.c:211
    TIM_OCInitStructure.TIM_OutputState = TIM_OutputState_Enable;           //比较输出使能
    2eee:	4785                	li	a5,1
    2ef0:	fcf41923          	sh	a5,-46(s0)
D:\WCH\代码\3-PIT%20Demo\obj/../Libraries/seekfree_libraries/zf_pwm.c:212
    TIM_OCInitStructure.TIM_OutputNState = TIM_OutputState_Disable;
    2ef4:	fc041a23          	sh	zero,-44(s0)
D:\WCH\代码\3-PIT%20Demo\obj/../Libraries/seekfree_libraries/zf_pwm.c:213
    TIM_OCInitStructure.TIM_Pulse = match_temp;
    2ef8:	fea45783          	lhu	a5,-22(s0)
    2efc:	fcf41b23          	sh	a5,-42(s0)
D:\WCH\代码\3-PIT%20Demo\obj/../Libraries/seekfree_libraries/zf_pwm.c:214
    TIM_OCInitStructure.TIM_OCPolarity = TIM_OCPolarity_Low;                //输出极性:TIM输出比较极性高
    2f00:	4789                	li	a5,2
    2f02:	fcf41c23          	sh	a5,-40(s0)
D:\WCH\代码\3-PIT%20Demo\obj/../Libraries/seekfree_libraries/zf_pwm.c:215
    TIM_OCInitStructure.TIM_OCNPolarity = TIM_OCPolarity_Low;               //输出极性:TIM输出比较极性高
    2f06:	4789                	li	a5,2
    2f08:	fcf41d23          	sh	a5,-38(s0)
D:\WCH\代码\3-PIT%20Demo\obj/../Libraries/seekfree_libraries/zf_pwm.c:216
    TIM_OCInitStructure.TIM_OCIdleState = TIM_OCIdleState_Reset;
    2f0c:	fc041e23          	sh	zero,-36(s0)
D:\WCH\代码\3-PIT%20Demo\obj/../Libraries/seekfree_libraries/zf_pwm.c:217
    TIM_OCInitStructure.TIM_OCNIdleState = TIM_OCIdleState_Reset;
    2f10:	fc041f23          	sh	zero,-34(s0)
D:\WCH\代码\3-PIT%20Demo\obj/../Libraries/seekfree_libraries/zf_pwm.c:221



    TIM_TimeBaseInit(((TIM_TypeDef *) TIMERN[pwmch>>8]), &TIM_TimeBaseStructure);  //根据TIM_TimeBaseInitStruct中指定的参数初始化TIMx的时间基数单位
    2f14:	fcc42783          	lw	a5,-52(s0)
    2f18:	0087d713          	srli	a4,a5,0x8
    2f1c:	6795                	lui	a5,0x5
    2f1e:	070a                	slli	a4,a4,0x2
    2f20:	3bc78793          	addi	a5,a5,956 # 53bc <TIMERN>
    2f24:	97ba                	add	a5,a5,a4
    2f26:	439c                	lw	a5,0(a5)
    2f28:	873e                	mv	a4,a5
    2f2a:	fe040793          	addi	a5,s0,-32
    2f2e:	85be                	mv	a1,a5
    2f30:	853a                	mv	a0,a4
    2f32:	f57fd0ef          	jal	ra,e88 <TIM_TimeBaseInit>
D:\WCH\代码\3-PIT%20Demo\obj/../Libraries/seekfree_libraries/zf_pwm.c:231
//        {
//            TIM_OCInitStructure.TIM_OutputState = TIM_OutputState_Enable;   //P通道
//            TIM_OCInitStructure.TIM_OutputNState = TIM_OutputState_Enable;  //N通道
//        }

    if((pwmch & 0x03) == 0x00)                                          //通道选择
    2f36:	fcc42783          	lw	a5,-52(s0)
    2f3a:	8b8d                	andi	a5,a5,3
    2f3c:	efb9                	bnez	a5,2f9a <pwm_init+0x240>
D:\WCH\代码\3-PIT%20Demo\obj/../Libraries/seekfree_libraries/zf_pwm.c:233
    {
        TIM_OC1Init(((TIM_TypeDef *) TIMERN[pwmch>>8]), &TIM_OCInitStructure );                       //定时器通道1初始化
    2f3e:	fcc42783          	lw	a5,-52(s0)
    2f42:	0087d713          	srli	a4,a5,0x8
    2f46:	6795                	lui	a5,0x5
    2f48:	070a                	slli	a4,a4,0x2
    2f4a:	3bc78793          	addi	a5,a5,956 # 53bc <TIMERN>
    2f4e:	97ba                	add	a5,a5,a4
    2f50:	439c                	lw	a5,0(a5)
    2f52:	873e                	mv	a4,a5
    2f54:	fd040793          	addi	a5,s0,-48
    2f58:	85be                	mv	a1,a5
    2f5a:	853a                	mv	a0,a4
    2f5c:	826fe0ef          	jal	ra,f82 <TIM_OC1Init>
D:\WCH\代码\3-PIT%20Demo\obj/../Libraries/seekfree_libraries/zf_pwm.c:234
        TIM_OC1PreloadConfig(((TIM_TypeDef *) TIMERN[pwmch>>8]), TIM_OCPreload_Enable);               //定时器预装载配置
    2f60:	fcc42783          	lw	a5,-52(s0)
    2f64:	0087d713          	srli	a4,a5,0x8
    2f68:	6795                	lui	a5,0x5
    2f6a:	070a                	slli	a4,a4,0x2
    2f6c:	3bc78793          	addi	a5,a5,956 # 53bc <TIMERN>
    2f70:	97ba                	add	a5,a5,a4
    2f72:	439c                	lw	a5,0(a5)
    2f74:	45a1                	li	a1,8
    2f76:	853e                	mv	a0,a5
    2f78:	f52fe0ef          	jal	ra,16ca <TIM_OC1PreloadConfig>
D:\WCH\代码\3-PIT%20Demo\obj/../Libraries/seekfree_libraries/zf_pwm.c:235
        TIM_OC1FastConfig(((TIM_TypeDef *) TIMERN[pwmch>>8]), TIM_OC1FE);                             //比较捕获通道快速使能
    2f7c:	fcc42783          	lw	a5,-52(s0)
    2f80:	0087d713          	srli	a4,a5,0x8
    2f84:	6795                	lui	a5,0x5
    2f86:	070a                	slli	a4,a4,0x2
    2f88:	3bc78793          	addi	a5,a5,956 # 53bc <TIMERN>
    2f8c:	97ba                	add	a5,a5,a4
    2f8e:	439c                	lw	a5,0(a5)
    2f90:	4591                	li	a1,4
    2f92:	853e                	mv	a0,a5
    2f94:	883fe0ef          	jal	ra,1816 <TIM_OC1FastConfig>
    2f98:	a289                	j	30da <pwm_init+0x380>
D:\WCH\代码\3-PIT%20Demo\obj/../Libraries/seekfree_libraries/zf_pwm.c:237
    }
    else if((pwmch & 0x03) == 0x01)
    2f9a:	fcc42783          	lw	a5,-52(s0)
    2f9e:	0037f713          	andi	a4,a5,3
    2fa2:	4785                	li	a5,1
    2fa4:	06f71163          	bne	a4,a5,3006 <pwm_init+0x2ac>
D:\WCH\代码\3-PIT%20Demo\obj/../Libraries/seekfree_libraries/zf_pwm.c:239
    {
        TIM_OC2Init(((TIM_TypeDef *) TIMERN[pwmch>>8]), &TIM_OCInitStructure );
    2fa8:	fcc42783          	lw	a5,-52(s0)
    2fac:	0087d713          	srli	a4,a5,0x8
    2fb0:	6795                	lui	a5,0x5
    2fb2:	070a                	slli	a4,a4,0x2
    2fb4:	3bc78793          	addi	a5,a5,956 # 53bc <TIMERN>
    2fb8:	97ba                	add	a5,a5,a4
    2fba:	439c                	lw	a5,0(a5)
    2fbc:	873e                	mv	a4,a5
    2fbe:	fd040793          	addi	a5,s0,-48
    2fc2:	85be                	mv	a1,a5
    2fc4:	853a                	mv	a0,a4
    2fc6:	92cfe0ef          	jal	ra,10f2 <TIM_OC2Init>
D:\WCH\代码\3-PIT%20Demo\obj/../Libraries/seekfree_libraries/zf_pwm.c:240
        TIM_OC2PreloadConfig(((TIM_TypeDef *) TIMERN[pwmch>>8]), TIM_OCPreload_Enable);
    2fca:	fcc42783          	lw	a5,-52(s0)
    2fce:	0087d713          	srli	a4,a5,0x8
    2fd2:	6795                	lui	a5,0x5
    2fd4:	070a                	slli	a4,a4,0x2
    2fd6:	3bc78793          	addi	a5,a5,956 # 53bc <TIMERN>
    2fda:	97ba                	add	a5,a5,a4
    2fdc:	439c                	lw	a5,0(a5)
    2fde:	45a1                	li	a1,8
    2fe0:	853e                	mv	a0,a5
    2fe2:	f34fe0ef          	jal	ra,1716 <TIM_OC2PreloadConfig>
D:\WCH\代码\3-PIT%20Demo\obj/../Libraries/seekfree_libraries/zf_pwm.c:241
        TIM_OC2FastConfig(((TIM_TypeDef *) TIMERN[pwmch>>8]), TIM_OC2FE);                             //比较捕获通道快速使能
    2fe6:	fcc42783          	lw	a5,-52(s0)
    2fea:	0087d713          	srli	a4,a5,0x8
    2fee:	6795                	lui	a5,0x5
    2ff0:	070a                	slli	a4,a4,0x2
    2ff2:	3bc78793          	addi	a5,a5,956 # 53bc <TIMERN>
    2ff6:	97ba                	add	a5,a5,a4
    2ff8:	439c                	lw	a5,0(a5)
    2ffa:	40000593          	li	a1,1024
    2ffe:	853e                	mv	a0,a5
    3000:	863fe0ef          	jal	ra,1862 <TIM_OC2FastConfig>
    3004:	a8d9                	j	30da <pwm_init+0x380>
D:\WCH\代码\3-PIT%20Demo\obj/../Libraries/seekfree_libraries/zf_pwm.c:243
    }
    else if((pwmch & 0x03) == 0x02)
    3006:	fcc42783          	lw	a5,-52(s0)
    300a:	0037f713          	andi	a4,a5,3
    300e:	4789                	li	a5,2
    3010:	06f71063          	bne	a4,a5,3070 <pwm_init+0x316>
D:\WCH\代码\3-PIT%20Demo\obj/../Libraries/seekfree_libraries/zf_pwm.c:245
    {
        TIM_OC3Init(((TIM_TypeDef *) TIMERN[pwmch>>8]), &TIM_OCInitStructure );
    3014:	fcc42783          	lw	a5,-52(s0)
    3018:	0087d713          	srli	a4,a5,0x8
    301c:	6795                	lui	a5,0x5
    301e:	070a                	slli	a4,a4,0x2
    3020:	3bc78793          	addi	a5,a5,956 # 53bc <TIMERN>
    3024:	97ba                	add	a5,a5,a4
    3026:	439c                	lw	a5,0(a5)
    3028:	873e                	mv	a4,a5
    302a:	fd040793          	addi	a5,s0,-48
    302e:	85be                	mv	a1,a5
    3030:	853a                	mv	a0,a4
    3032:	a76fe0ef          	jal	ra,12a8 <TIM_OC3Init>
D:\WCH\代码\3-PIT%20Demo\obj/../Libraries/seekfree_libraries/zf_pwm.c:246
        TIM_OC3PreloadConfig(((TIM_TypeDef *) TIMERN[pwmch>>8]), TIM_OCPreload_Enable);
    3036:	fcc42783          	lw	a5,-52(s0)
    303a:	0087d713          	srli	a4,a5,0x8
    303e:	6795                	lui	a5,0x5
    3040:	070a                	slli	a4,a4,0x2
    3042:	3bc78793          	addi	a5,a5,956 # 53bc <TIMERN>
    3046:	97ba                	add	a5,a5,a4
    3048:	439c                	lw	a5,0(a5)
    304a:	45a1                	li	a1,8
    304c:	853e                	mv	a0,a5
    304e:	f22fe0ef          	jal	ra,1770 <TIM_OC3PreloadConfig>
D:\WCH\代码\3-PIT%20Demo\obj/../Libraries/seekfree_libraries/zf_pwm.c:247
        TIM_OC3FastConfig(((TIM_TypeDef *) TIMERN[pwmch>>8]), TIM_OC3FE);                             //比较捕获通道快速使能
    3052:	fcc42783          	lw	a5,-52(s0)
    3056:	0087d713          	srli	a4,a5,0x8
    305a:	6795                	lui	a5,0x5
    305c:	070a                	slli	a4,a4,0x2
    305e:	3bc78793          	addi	a5,a5,956 # 53bc <TIMERN>
    3062:	97ba                	add	a5,a5,a4
    3064:	439c                	lw	a5,0(a5)
    3066:	4591                	li	a1,4
    3068:	853e                	mv	a0,a5
    306a:	84ffe0ef          	jal	ra,18b8 <TIM_OC3FastConfig>
    306e:	a0b5                	j	30da <pwm_init+0x380>
D:\WCH\代码\3-PIT%20Demo\obj/../Libraries/seekfree_libraries/zf_pwm.c:249
    }
    else if((pwmch & 0x03) == 0x03)
    3070:	fcc42783          	lw	a5,-52(s0)
    3074:	0037f713          	andi	a4,a5,3
    3078:	478d                	li	a5,3
    307a:	06f71063          	bne	a4,a5,30da <pwm_init+0x380>
D:\WCH\代码\3-PIT%20Demo\obj/../Libraries/seekfree_libraries/zf_pwm.c:251
    {
        TIM_OC4Init(((TIM_TypeDef *) TIMERN[pwmch>>8]), &TIM_OCInitStructure );
    307e:	fcc42783          	lw	a5,-52(s0)
    3082:	0087d713          	srli	a4,a5,0x8
    3086:	6795                	lui	a5,0x5
    3088:	070a                	slli	a4,a4,0x2
    308a:	3bc78793          	addi	a5,a5,956 # 53bc <TIMERN>
    308e:	97ba                	add	a5,a5,a4
    3090:	439c                	lw	a5,0(a5)
    3092:	873e                	mv	a4,a5
    3094:	fd040793          	addi	a5,s0,-48
    3098:	85be                	mv	a1,a5
    309a:	853a                	mv	a0,a4
    309c:	bbcfe0ef          	jal	ra,1458 <TIM_OC4Init>
D:\WCH\代码\3-PIT%20Demo\obj/../Libraries/seekfree_libraries/zf_pwm.c:252
        TIM_OC4PreloadConfig(((TIM_TypeDef *) TIMERN[pwmch>>8]), TIM_OCPreload_Enable);
    30a0:	fcc42783          	lw	a5,-52(s0)
    30a4:	0087d713          	srli	a4,a5,0x8
    30a8:	6795                	lui	a5,0x5
    30aa:	070a                	slli	a4,a4,0x2
    30ac:	3bc78793          	addi	a5,a5,956 # 53bc <TIMERN>
    30b0:	97ba                	add	a5,a5,a4
    30b2:	439c                	lw	a5,0(a5)
    30b4:	45a1                	li	a1,8
    30b6:	853e                	mv	a0,a5
    30b8:	f04fe0ef          	jal	ra,17bc <TIM_OC4PreloadConfig>
D:\WCH\代码\3-PIT%20Demo\obj/../Libraries/seekfree_libraries/zf_pwm.c:253
        TIM_OC4FastConfig(((TIM_TypeDef *) TIMERN[pwmch>>8]), TIM_OC4FE);                             //比较捕获通道快速使能
    30bc:	fcc42783          	lw	a5,-52(s0)
    30c0:	0087d713          	srli	a4,a5,0x8
    30c4:	6795                	lui	a5,0x5
    30c6:	070a                	slli	a4,a4,0x2
    30c8:	3bc78793          	addi	a5,a5,956 # 53bc <TIMERN>
    30cc:	97ba                	add	a5,a5,a4
    30ce:	439c                	lw	a5,0(a5)
    30d0:	40000593          	li	a1,1024
    30d4:	853e                	mv	a0,a5
    30d6:	82ffe0ef          	jal	ra,1904 <TIM_OC4FastConfig>
D:\WCH\代码\3-PIT%20Demo\obj/../Libraries/seekfree_libraries/zf_pwm.c:256
    }

    TIM_Cmd(((TIM_TypeDef *) TIMERN[pwmch>>8]), ENABLE);                                              //定时器使能
    30da:	fcc42783          	lw	a5,-52(s0)
    30de:	0087d713          	srli	a4,a5,0x8
    30e2:	6795                	lui	a5,0x5
    30e4:	070a                	slli	a4,a4,0x2
    30e6:	3bc78793          	addi	a5,a5,956 # 53bc <TIMERN>
    30ea:	97ba                	add	a5,a5,a4
    30ec:	439c                	lw	a5,0(a5)
    30ee:	4585                	li	a1,1
    30f0:	853e                	mv	a0,a5
    30f2:	cb0fe0ef          	jal	ra,15a2 <TIM_Cmd>
D:\WCH\代码\3-PIT%20Demo\obj/../Libraries/seekfree_libraries/zf_pwm.c:257
    TIM_CtrlPWMOutputs(((TIM_TypeDef *) TIMERN[pwmch>>8]), ENABLE );
    30f6:	fcc42783          	lw	a5,-52(s0)
    30fa:	0087d713          	srli	a4,a5,0x8
    30fe:	6795                	lui	a5,0x5
    3100:	070a                	slli	a4,a4,0x2
    3102:	3bc78793          	addi	a5,a5,956 # 53bc <TIMERN>
    3106:	97ba                	add	a5,a5,a4
    3108:	439c                	lw	a5,0(a5)
    310a:	4585                	li	a1,1
    310c:	853e                	mv	a0,a5
    310e:	cecfe0ef          	jal	ra,15fa <TIM_CtrlPWMOutputs>
D:\WCH\代码\3-PIT%20Demo\obj/../Libraries/seekfree_libraries/zf_pwm.c:259
    //TIM_ARRPreloadConfig( TIM1, ENABLE );
}
    3112:	0001                	nop
    3114:	50f2                	lw	ra,60(sp)
    3116:	5462                	lw	s0,56(sp)
    3118:	6121                	addi	sp,sp,64
    311a:	8082                	ret

0000311c <systick_delay>:
systick_delay():
D:\WCH\代码\3-PIT%20Demo\obj/../Libraries/seekfree_libraries/zf_systick.c:29
//  @param      time                us
//  @return     void
//  Sample usage:                   内部使用，用户无需关心
//-------------------------------------------------------------------------------------------------------------------
void systick_delay(uint32 time)
{
    311c:	7179                	addi	sp,sp,-48
    311e:	d622                	sw	s0,44(sp)
    3120:	1800                	addi	s0,sp,48
    3122:	fca42e23          	sw	a0,-36(s0)
D:\WCH\代码\3-PIT%20Demo\obj/../Libraries/seekfree_libraries/zf_systick.c:32
    uint32 i;

    SysTick->CTLR = 0;
    3126:	e000f7b7          	lui	a5,0xe000f
    312a:	0007a023          	sw	zero,0(a5) # e000f000 <_eusrstack+0xc000a000>
D:\WCH\代码\3-PIT%20Demo\obj/../Libraries/seekfree_libraries/zf_systick.c:33
    i = (uint32)time * (sys_clk/8000000);
    312e:	8181a703          	lw	a4,-2024(gp) # 200000a0 <sys_clk>
    3132:	007a17b7          	lui	a5,0x7a1
    3136:	20078793          	addi	a5,a5,512 # 7a1200 <_data_lma+0x79bd48>
    313a:	02f757b3          	divu	a5,a4,a5
    313e:	fdc42703          	lw	a4,-36(s0)
    3142:	02f707b3          	mul	a5,a4,a5
    3146:	fef42623          	sw	a5,-20(s0)
D:\WCH\代码\3-PIT%20Demo\obj/../Libraries/seekfree_libraries/zf_systick.c:35

    SysTick->CNTL0 = 0;
    314a:	e000f7b7          	lui	a5,0xe000f
    314e:	00078223          	sb	zero,4(a5) # e000f004 <_eusrstack+0xc000a004>
D:\WCH\代码\3-PIT%20Demo\obj/../Libraries/seekfree_libraries/zf_systick.c:36
    SysTick->CNTL1 = 0;
    3152:	e000f7b7          	lui	a5,0xe000f
    3156:	000782a3          	sb	zero,5(a5) # e000f005 <_eusrstack+0xc000a005>
D:\WCH\代码\3-PIT%20Demo\obj/../Libraries/seekfree_libraries/zf_systick.c:37
    SysTick->CNTL2 = 0;
    315a:	e000f7b7          	lui	a5,0xe000f
    315e:	00078323          	sb	zero,6(a5) # e000f006 <_eusrstack+0xc000a006>
D:\WCH\代码\3-PIT%20Demo\obj/../Libraries/seekfree_libraries/zf_systick.c:38
    SysTick->CNTL3 = 0;
    3162:	e000f7b7          	lui	a5,0xe000f
    3166:	000783a3          	sb	zero,7(a5) # e000f007 <_eusrstack+0xc000a007>
D:\WCH\代码\3-PIT%20Demo\obj/../Libraries/seekfree_libraries/zf_systick.c:39
    SysTick->CTLR = 1;          //启动系统计数器 systick（HCLK/8 时基） us
    316a:	e000f7b7          	lui	a5,0xe000f
    316e:	4705                	li	a4,1
    3170:	c398                	sw	a4,0(a5)
D:\WCH\代码\3-PIT%20Demo\obj/../Libraries/seekfree_libraries/zf_systick.c:41

    while((*(volatile uint32*)0xE000F004) <= i);
    3172:	0001                	nop
D:\WCH\代码\3-PIT%20Demo\obj/../Libraries/seekfree_libraries/zf_systick.c:41 (discriminator 1)
    3174:	e000f7b7          	lui	a5,0xe000f
    3178:	0791                	addi	a5,a5,4
    317a:	439c                	lw	a5,0(a5)
    317c:	fec42703          	lw	a4,-20(s0)
    3180:	fef77ae3          	bgeu	a4,a5,3174 <systick_delay+0x58>
D:\WCH\代码\3-PIT%20Demo\obj/../Libraries/seekfree_libraries/zf_systick.c:43

}
    3184:	0001                	nop
    3186:	5432                	lw	s0,44(sp)
    3188:	6145                	addi	sp,sp,48
    318a:	8082                	ret

0000318c <uart_gpio_init>:
uart_gpio_init():
D:\WCH\代码\3-PIT%20Demo\obj/../Libraries/seekfree_libraries/zf_uart.c:38
//  @param      rx_pin      串口接收引脚号
//  @return     void
//  Sample usage:           内部使用，用户无需关心
//-------------------------------------------------------------------------------------------------------------------
void uart_gpio_init(UARTPIN_enum tx_pin, UARTPIN_enum rx_pin)
{
    318c:	1101                	addi	sp,sp,-32
    318e:	ce06                	sw	ra,28(sp)
    3190:	cc22                	sw	s0,24(sp)
    3192:	1000                	addi	s0,sp,32
    3194:	fea42623          	sw	a0,-20(s0)
    3198:	feb42423          	sw	a1,-24(s0)
D:\WCH\代码\3-PIT%20Demo\obj/../Libraries/seekfree_libraries/zf_uart.c:39
    if(tx_pin == UART1_TX_A9 && rx_pin == UART1_RX_A10)
    319c:	fec42783          	lw	a5,-20(s0)
    31a0:	e785                	bnez	a5,31c8 <uart_gpio_init+0x3c>
D:\WCH\代码\3-PIT%20Demo\obj/../Libraries/seekfree_libraries/zf_uart.c:39 (discriminator 1)
    31a2:	fe842703          	lw	a4,-24(s0)
    31a6:	4785                	li	a5,1
    31a8:	02f71063          	bne	a4,a5,31c8 <uart_gpio_init+0x3c>
D:\WCH\代码\3-PIT%20Demo\obj/../Libraries/seekfree_libraries/zf_uart.c:41
    {
        gpio_init(A9, GPO, 0, SPEED_50MHZ|OUT_AF_PP);
    31ac:	31800693          	li	a3,792
    31b0:	4601                	li	a2,0
    31b2:	4585                	li	a1,1
    31b4:	4525                	li	a0,9
    31b6:	afcff0ef          	jal	ra,24b2 <gpio_init>
D:\WCH\代码\3-PIT%20Demo\obj/../Libraries/seekfree_libraries/zf_uart.c:42
        gpio_init(A10, GPI, 0, IN_FLOAT);
    31ba:	4691                	li	a3,4
    31bc:	4601                	li	a2,0
    31be:	4581                	li	a1,0
    31c0:	4529                	li	a0,10
    31c2:	af0ff0ef          	jal	ra,24b2 <gpio_init>
D:\WCH\代码\3-PIT%20Demo\obj/../Libraries/seekfree_libraries/zf_uart.c:67
    else if(tx_pin == UART3_TX_C10)
    {
        gpio_init(C10, GPO, 0, SPEED_50MHZ|OUT_PP);
        gpio_init(C11, GPI, 0, IN_FLOAT);
    }
}
    31c6:	a065                	j	326e <uart_gpio_init+0xe2>
D:\WCH\代码\3-PIT%20Demo\obj/../Libraries/seekfree_libraries/zf_uart.c:44
    else if(tx_pin == UART1_TX_B6)
    31c8:	fec42703          	lw	a4,-20(s0)
    31cc:	4789                	li	a5,2
    31ce:	02f71263          	bne	a4,a5,31f2 <uart_gpio_init+0x66>
D:\WCH\代码\3-PIT%20Demo\obj/../Libraries/seekfree_libraries/zf_uart.c:46
        gpio_init(B6, GPO, 0, SPEED_50MHZ|OUT_AF_PP);
    31d2:	31800693          	li	a3,792
    31d6:	4601                	li	a2,0
    31d8:	4585                	li	a1,1
    31da:	02600513          	li	a0,38
    31de:	ad4ff0ef          	jal	ra,24b2 <gpio_init>
D:\WCH\代码\3-PIT%20Demo\obj/../Libraries/seekfree_libraries/zf_uart.c:47
        gpio_init(B7, GPI, 0, IN_FLOAT);
    31e2:	4691                	li	a3,4
    31e4:	4601                	li	a2,0
    31e6:	4581                	li	a1,0
    31e8:	02700513          	li	a0,39
    31ec:	ac6ff0ef          	jal	ra,24b2 <gpio_init>
D:\WCH\代码\3-PIT%20Demo\obj/../Libraries/seekfree_libraries/zf_uart.c:67
}
    31f0:	a8bd                	j	326e <uart_gpio_init+0xe2>
D:\WCH\代码\3-PIT%20Demo\obj/../Libraries/seekfree_libraries/zf_uart.c:50
    else if(tx_pin == UART2_TX_A2)
    31f2:	fec42703          	lw	a4,-20(s0)
    31f6:	47c1                	li	a5,16
    31f8:	02f71063          	bne	a4,a5,3218 <uart_gpio_init+0x8c>
D:\WCH\代码\3-PIT%20Demo\obj/../Libraries/seekfree_libraries/zf_uart.c:52
        gpio_init(A2, GPO, 0, SPEED_50MHZ|OUT_AF_PP);
    31fc:	31800693          	li	a3,792
    3200:	4601                	li	a2,0
    3202:	4585                	li	a1,1
    3204:	4509                	li	a0,2
    3206:	aacff0ef          	jal	ra,24b2 <gpio_init>
D:\WCH\代码\3-PIT%20Demo\obj/../Libraries/seekfree_libraries/zf_uart.c:53
        gpio_init(A3, GPI, 0, IN_FLOAT);
    320a:	4691                	li	a3,4
    320c:	4601                	li	a2,0
    320e:	4581                	li	a1,0
    3210:	450d                	li	a0,3
    3212:	aa0ff0ef          	jal	ra,24b2 <gpio_init>
D:\WCH\代码\3-PIT%20Demo\obj/../Libraries/seekfree_libraries/zf_uart.c:67
}
    3216:	a8a1                	j	326e <uart_gpio_init+0xe2>
D:\WCH\代码\3-PIT%20Demo\obj/../Libraries/seekfree_libraries/zf_uart.c:56
    else if(tx_pin == UART3_TX_B10)
    3218:	fec42703          	lw	a4,-20(s0)
    321c:	02000793          	li	a5,32
    3220:	02f71263          	bne	a4,a5,3244 <uart_gpio_init+0xb8>
D:\WCH\代码\3-PIT%20Demo\obj/../Libraries/seekfree_libraries/zf_uart.c:58
        gpio_init(B10, GPO, 0, SPEED_50MHZ|OUT_AF_PP);
    3224:	31800693          	li	a3,792
    3228:	4601                	li	a2,0
    322a:	4585                	li	a1,1
    322c:	02a00513          	li	a0,42
    3230:	a82ff0ef          	jal	ra,24b2 <gpio_init>
D:\WCH\代码\3-PIT%20Demo\obj/../Libraries/seekfree_libraries/zf_uart.c:59
        gpio_init(B11, GPI, 0, IN_FLOAT);
    3234:	4691                	li	a3,4
    3236:	4601                	li	a2,0
    3238:	4581                	li	a1,0
    323a:	02b00513          	li	a0,43
    323e:	a74ff0ef          	jal	ra,24b2 <gpio_init>
D:\WCH\代码\3-PIT%20Demo\obj/../Libraries/seekfree_libraries/zf_uart.c:67
}
    3242:	a035                	j	326e <uart_gpio_init+0xe2>
D:\WCH\代码\3-PIT%20Demo\obj/../Libraries/seekfree_libraries/zf_uart.c:62
    else if(tx_pin == UART3_TX_C10)
    3244:	fec42703          	lw	a4,-20(s0)
    3248:	02200793          	li	a5,34
    324c:	02f71163          	bne	a4,a5,326e <uart_gpio_init+0xe2>
D:\WCH\代码\3-PIT%20Demo\obj/../Libraries/seekfree_libraries/zf_uart.c:64
        gpio_init(C10, GPO, 0, SPEED_50MHZ|OUT_PP);
    3250:	31000693          	li	a3,784
    3254:	4601                	li	a2,0
    3256:	4585                	li	a1,1
    3258:	04a00513          	li	a0,74
    325c:	a56ff0ef          	jal	ra,24b2 <gpio_init>
D:\WCH\代码\3-PIT%20Demo\obj/../Libraries/seekfree_libraries/zf_uart.c:65
        gpio_init(C11, GPI, 0, IN_FLOAT);
    3260:	4691                	li	a3,4
    3262:	4601                	li	a2,0
    3264:	4581                	li	a1,0
    3266:	04b00513          	li	a0,75
    326a:	a48ff0ef          	jal	ra,24b2 <gpio_init>
D:\WCH\代码\3-PIT%20Demo\obj/../Libraries/seekfree_libraries/zf_uart.c:67
}
    326e:	0001                	nop
    3270:	40f2                	lw	ra,28(sp)
    3272:	4462                	lw	s0,24(sp)
    3274:	6105                	addi	sp,sp,32
    3276:	8082                	ret

00003278 <uart_init>:
uart_init():
D:\WCH\代码\3-PIT%20Demo\obj/../Libraries/seekfree_libraries/zf_uart.c:79
//  @param      rx_pin      串口接收引脚号
//  @return     void
//  Sample usage:           uart_init(UART_1, 115200, UART1_TX_A9, UART1_RX_A10); //串口1初始化引脚号,TX为A9,RX为A10
//-------------------------------------------------------------------------------------------------------------------
void uart_init(UARTN_enum uartn, uint32 baud, UARTPIN_enum tx_pin, UARTPIN_enum rx_pin)
{
    3278:	7179                	addi	sp,sp,-48
    327a:	d606                	sw	ra,44(sp)
    327c:	d422                	sw	s0,40(sp)
    327e:	1800                	addi	s0,sp,48
    3280:	fca42e23          	sw	a0,-36(s0)
    3284:	fcb42c23          	sw	a1,-40(s0)
    3288:	fcc42a23          	sw	a2,-44(s0)
    328c:	fcd42823          	sw	a3,-48(s0)
D:\WCH\代码\3-PIT%20Demo\obj/../Libraries/seekfree_libraries/zf_uart.c:83
    USART_InitTypeDef USART_InitStructure;

    //串口总线使能
    if(UART_1 == uartn) RCC_APB2PeriphClockCmd(RCC_APB2Periph_USART1, ENABLE);
    3290:	fdc42783          	lw	a5,-36(s0)
    3294:	e791                	bnez	a5,32a0 <uart_init+0x28>
D:\WCH\代码\3-PIT%20Demo\obj/../Libraries/seekfree_libraries/zf_uart.c:83 (discriminator 1)
    3296:	4585                	li	a1,1
    3298:	6511                	lui	a0,0x4
    329a:	b63fd0ef          	jal	ra,dfc <RCC_APB2PeriphClockCmd>
    329e:	a035                	j	32ca <uart_init+0x52>
D:\WCH\代码\3-PIT%20Demo\obj/../Libraries/seekfree_libraries/zf_uart.c:84
    else if(UART_2 == uartn) RCC_APB1PeriphClockCmd(RCC_APB1Periph_USART2, ENABLE);
    32a0:	fdc42703          	lw	a4,-36(s0)
    32a4:	4785                	li	a5,1
    32a6:	00f71863          	bne	a4,a5,32b6 <uart_init+0x3e>
D:\WCH\代码\3-PIT%20Demo\obj/../Libraries/seekfree_libraries/zf_uart.c:84 (discriminator 1)
    32aa:	4585                	li	a1,1
    32ac:	00020537          	lui	a0,0x20
    32b0:	b93fd0ef          	jal	ra,e42 <RCC_APB1PeriphClockCmd>
    32b4:	a819                	j	32ca <uart_init+0x52>
D:\WCH\代码\3-PIT%20Demo\obj/../Libraries/seekfree_libraries/zf_uart.c:85
    else if(UART_3 == uartn) RCC_APB1PeriphClockCmd(RCC_APB1Periph_USART3, ENABLE);
    32b6:	fdc42703          	lw	a4,-36(s0)
    32ba:	4789                	li	a5,2
    32bc:	00f71763          	bne	a4,a5,32ca <uart_init+0x52>
D:\WCH\代码\3-PIT%20Demo\obj/../Libraries/seekfree_libraries/zf_uart.c:85 (discriminator 1)
    32c0:	4585                	li	a1,1
    32c2:	00040537          	lui	a0,0x40
    32c6:	b7dfd0ef          	jal	ra,e42 <RCC_APB1PeriphClockCmd>
D:\WCH\代码\3-PIT%20Demo\obj/../Libraries/seekfree_libraries/zf_uart.c:88

    //引脚初始化
    uart_gpio_init(tx_pin, rx_pin);
    32ca:	fd042583          	lw	a1,-48(s0)
    32ce:	fd442503          	lw	a0,-44(s0)
    32d2:	3d6d                	jal	318c <uart_gpio_init>
D:\WCH\代码\3-PIT%20Demo\obj/../Libraries/seekfree_libraries/zf_uart.c:91

    //串口参数配置
    USART_InitStructure.USART_BaudRate = baud;
    32d4:	fd842783          	lw	a5,-40(s0)
    32d8:	fef42023          	sw	a5,-32(s0)
D:\WCH\代码\3-PIT%20Demo\obj/../Libraries/seekfree_libraries/zf_uart.c:92
    USART_InitStructure.USART_WordLength = USART_WordLength_8b;
    32dc:	fe041223          	sh	zero,-28(s0)
D:\WCH\代码\3-PIT%20Demo\obj/../Libraries/seekfree_libraries/zf_uart.c:93
    USART_InitStructure.USART_StopBits = USART_StopBits_1;
    32e0:	fe041323          	sh	zero,-26(s0)
D:\WCH\代码\3-PIT%20Demo\obj/../Libraries/seekfree_libraries/zf_uart.c:94
    USART_InitStructure.USART_Parity = USART_Parity_No;
    32e4:	fe041423          	sh	zero,-24(s0)
D:\WCH\代码\3-PIT%20Demo\obj/../Libraries/seekfree_libraries/zf_uart.c:95
    USART_InitStructure.USART_HardwareFlowControl = USART_HardwareFlowControl_None;
    32e8:	fe041623          	sh	zero,-20(s0)
D:\WCH\代码\3-PIT%20Demo\obj/../Libraries/seekfree_libraries/zf_uart.c:96
    USART_InitStructure.USART_Mode = USART_Mode_Tx | USART_Mode_Rx;
    32ec:	47b1                	li	a5,12
    32ee:	fef41523          	sh	a5,-22(s0)
D:\WCH\代码\3-PIT%20Demo\obj/../Libraries/seekfree_libraries/zf_uart.c:99

    //使能串口
    USART_Init((USART_TypeDef*)UARTN[uartn], &USART_InitStructure);
    32f2:	6795                	lui	a5,0x5
    32f4:	fdc42703          	lw	a4,-36(s0)
    32f8:	070a                	slli	a4,a4,0x2
    32fa:	3cc78793          	addi	a5,a5,972 # 53cc <UARTN>
    32fe:	97ba                	add	a5,a5,a4
    3300:	439c                	lw	a5,0(a5)
    3302:	873e                	mv	a4,a5
    3304:	fe040793          	addi	a5,s0,-32
    3308:	85be                	mv	a1,a5
    330a:	853a                	mv	a0,a4
    330c:	eecfe0ef          	jal	ra,19f8 <USART_Init>
D:\WCH\代码\3-PIT%20Demo\obj/../Libraries/seekfree_libraries/zf_uart.c:100
    USART_Cmd((USART_TypeDef*)UARTN[uartn], ENABLE);
    3310:	6795                	lui	a5,0x5
    3312:	fdc42703          	lw	a4,-36(s0)
    3316:	070a                	slli	a4,a4,0x2
    3318:	3cc78793          	addi	a5,a5,972 # 53cc <UARTN>
    331c:	97ba                	add	a5,a5,a4
    331e:	439c                	lw	a5,0(a5)
    3320:	4585                	li	a1,1
    3322:	853e                	mv	a0,a5
    3324:	909fe0ef          	jal	ra,1c2c <USART_Cmd>
D:\WCH\代码\3-PIT%20Demo\obj/../Libraries/seekfree_libraries/zf_uart.c:102

}
    3328:	0001                	nop
    332a:	50b2                	lw	ra,44(sp)
    332c:	5422                	lw	s0,40(sp)
    332e:	6145                	addi	sp,sp,48
    3330:	8082                	ret

00003332 <uart_rx_irq>:
uart_rx_irq():
D:\WCH\代码\3-PIT%20Demo\obj/../Libraries/seekfree_libraries/zf_uart.c:156
//  @param      status      使能或者失能
//  @return     void
//  Sample usage:           uart_rx_irq(UART_1, ENABLE);        //打开串口1接收中断
//-------------------------------------------------------------------------------------------------------------------
void uart_rx_irq(UARTN_enum uartn,uint8 status)
{
    3332:	1101                	addi	sp,sp,-32
    3334:	ce06                	sw	ra,28(sp)
    3336:	cc22                	sw	s0,24(sp)
    3338:	1000                	addi	s0,sp,32
    333a:	fea42623          	sw	a0,-20(s0)
    333e:	87ae                	mv	a5,a1
    3340:	fef405a3          	sb	a5,-21(s0)
D:\WCH\代码\3-PIT%20Demo\obj/../Libraries/seekfree_libraries/zf_uart.c:157
    USART_ITConfig(((USART_TypeDef*)UARTN[uartn]), USART_IT_RXNE, ENABLE);
    3344:	6795                	lui	a5,0x5
    3346:	fec42703          	lw	a4,-20(s0)
    334a:	070a                	slli	a4,a4,0x2
    334c:	3cc78793          	addi	a5,a5,972 # 53cc <UARTN>
    3350:	97ba                	add	a5,a5,a4
    3352:	439c                	lw	a5,0(a5)
    3354:	4605                	li	a2,1
    3356:	52500593          	li	a1,1317
    335a:	853e                	mv	a0,a5
    335c:	931fe0ef          	jal	ra,1c8c <USART_ITConfig>
D:\WCH\代码\3-PIT%20Demo\obj/../Libraries/seekfree_libraries/zf_uart.c:158
    nvic_init(USART1_IRQn + uartn, 0, 0, status);
    3360:	fec42783          	lw	a5,-20(s0)
    3364:	03578793          	addi	a5,a5,53
    3368:	feb44703          	lbu	a4,-21(s0)
    336c:	86ba                	mv	a3,a4
    336e:	4601                	li	a2,0
    3370:	4581                	li	a1,0
    3372:	853e                	mv	a0,a5
    3374:	c1eff0ef          	jal	ra,2792 <nvic_init>
D:\WCH\代码\3-PIT%20Demo\obj/../Libraries/seekfree_libraries/zf_uart.c:159
}
    3378:	0001                	nop
    337a:	40f2                	lw	ra,28(sp)
    337c:	4462                	lw	s0,24(sp)
    337e:	6105                	addi	sp,sp,32
    3380:	8082                	ret

00003382 <board_init>:
board_init():
D:\WCH\代码\3-PIT%20Demo\obj/../Libraries/board/board.c:9




void board_init(void)
{
    3382:	1141                	addi	sp,sp,-16
    3384:	c606                	sw	ra,12(sp)
    3386:	c422                	sw	s0,8(sp)
    3388:	0800                	addi	s0,sp,16
D:\WCH\代码\3-PIT%20Demo\obj/../Libraries/board/board.c:11
    //获取系统主频
    sys_clk = 8000000 * (((RCC->CFGR0 >> 18)&0x0F) + 2);
    338a:	400217b7          	lui	a5,0x40021
    338e:	43dc                	lw	a5,4(a5)
    3390:	83c9                	srli	a5,a5,0x12
    3392:	00f7f713          	andi	a4,a5,15
    3396:	007a17b7          	lui	a5,0x7a1
    339a:	20078793          	addi	a5,a5,512 # 7a1200 <_data_lma+0x79bd48>
    339e:	02f70733          	mul	a4,a4,a5
    33a2:	00f427b7          	lui	a5,0xf42
    33a6:	40078793          	addi	a5,a5,1024 # f42400 <_data_lma+0xf3cf48>
    33aa:	973e                	add	a4,a4,a5
    33ac:	80e1ac23          	sw	a4,-2024(gp) # 200000a0 <sys_clk>
D:\WCH\代码\3-PIT%20Demo\obj/../Libraries/board/board.c:13
    //初始化DEBUG串口
    uart_init(DEBUG_UART, DEBUG_UART_BAUD, DEBUG_UART_TX_PIN, DEBUG_UART_RX_PIN);
    33b0:	4685                	li	a3,1
    33b2:	4601                	li	a2,0
    33b4:	67f1                	lui	a5,0x1c
    33b6:	20078593          	addi	a1,a5,512 # 1c200 <_data_lma+0x16d48>
    33ba:	4501                	li	a0,0
    33bc:	3d75                	jal	3278 <uart_init>
D:\WCH\代码\3-PIT%20Demo\obj/../Libraries/board/board.c:14
}
    33be:	0001                	nop
    33c0:	40b2                	lw	ra,12(sp)
    33c2:	4422                	lw	s0,8(sp)
    33c4:	0141                	addi	sp,sp,16
    33c6:	8082                	ret

000033c8 <_write>:
_write():
D:\WCH\代码\3-PIT%20Demo\obj/../Libraries/board/board.c:25
//  @since      v1.0
//  Sample usage:              重定向printf到DEBUG串口上
//-------------------------------------------------------------------------------------------------------------------
#if (1 == PRINTF_ENABLE)
int _write(int fd, char *buf, int size)
{
    33c8:	7179                	addi	sp,sp,-48
    33ca:	d606                	sw	ra,44(sp)
    33cc:	d422                	sw	s0,40(sp)
    33ce:	1800                	addi	s0,sp,48
    33d0:	fca42e23          	sw	a0,-36(s0)
    33d4:	fcb42c23          	sw	a1,-40(s0)
    33d8:	fcc42a23          	sw	a2,-44(s0)
D:\WCH\代码\3-PIT%20Demo\obj/../Libraries/board/board.c:27
    int i;
    for(i=0; i<size; i++)
    33dc:	fe042623          	sw	zero,-20(s0)
    33e0:	a099                	j	3426 <_write+0x5e>
D:\WCH\代码\3-PIT%20Demo\obj/../Libraries/board/board.c:29
    {
        while (USART_GetFlagStatus((USART_TypeDef*)UARTN[DEBUG_UART], USART_FLAG_TC) == RESET);
    33e2:	0001                	nop
D:\WCH\代码\3-PIT%20Demo\obj/../Libraries/board/board.c:29 (discriminator 1)
    33e4:	6795                	lui	a5,0x5
    33e6:	3cc7a783          	lw	a5,972(a5) # 53cc <UARTN>
    33ea:	04000593          	li	a1,64
    33ee:	853e                	mv	a0,a5
    33f0:	9b5fe0ef          	jal	ra,1da4 <USART_GetFlagStatus>
    33f4:	87aa                	mv	a5,a0
    33f6:	d7fd                	beqz	a5,33e4 <_write+0x1c>
D:\WCH\代码\3-PIT%20Demo\obj/../Libraries/board/board.c:30 (discriminator 2)
        USART_SendData((USART_TypeDef*)UARTN[DEBUG_UART], *buf++);
    33f8:	6795                	lui	a5,0x5
    33fa:	3cc7a783          	lw	a5,972(a5) # 53cc <UARTN>
    33fe:	86be                	mv	a3,a5
    3400:	fd842783          	lw	a5,-40(s0)
    3404:	00178713          	addi	a4,a5,1
    3408:	fce42c23          	sw	a4,-40(s0)
    340c:	00078783          	lb	a5,0(a5)
    3410:	07c2                	slli	a5,a5,0x10
    3412:	83c1                	srli	a5,a5,0x10
    3414:	85be                	mv	a1,a5
    3416:	8536                	mv	a0,a3
    3418:	939fe0ef          	jal	ra,1d50 <USART_SendData>
D:\WCH\代码\3-PIT%20Demo\obj/../Libraries/board/board.c:27 (discriminator 2)
    for(i=0; i<size; i++)
    341c:	fec42783          	lw	a5,-20(s0)
    3420:	0785                	addi	a5,a5,1
    3422:	fef42623          	sw	a5,-20(s0)
D:\WCH\代码\3-PIT%20Demo\obj/../Libraries/board/board.c:27 (discriminator 1)
    3426:	fec42703          	lw	a4,-20(s0)
    342a:	fd442783          	lw	a5,-44(s0)
    342e:	faf74ae3          	blt	a4,a5,33e2 <_write+0x1a>
D:\WCH\代码\3-PIT%20Demo\obj/../Libraries/board/board.c:32
    }
    return size;
    3432:	fd442783          	lw	a5,-44(s0)
D:\WCH\代码\3-PIT%20Demo\obj/../Libraries/board/board.c:33
}
    3436:	853e                	mv	a0,a5
    3438:	50b2                	lw	ra,44(sp)
    343a:	5422                	lw	s0,40(sp)
    343c:	6145                	addi	sp,sp,48
    343e:	8082                	ret

00003440 <SetSysClock>:
SetSysClock():
D:\WCH\代码\3-PIT%20Demo\obj/../Libraries/board/clock_config.c:11
* Description    : Sets System clock frequency to 72MHz and configure HCLK, PCLK2 and PCLK1 prescalers.
* Input          : None
* Return         : None
*******************************************************************************************/
static void SetSysClock(void)
{
    3440:	1101                	addi	sp,sp,-32
    3442:	ce22                	sw	s0,28(sp)
    3444:	1000                	addi	s0,sp,32
D:\WCH\代码\3-PIT%20Demo\obj/../Libraries/board/clock_config.c:12
    __IO uint32_t StartUpCounter = 0, HSEStatus = 0;
    3446:	fe042623          	sw	zero,-20(s0)
    344a:	fe042423          	sw	zero,-24(s0)
D:\WCH\代码\3-PIT%20Demo\obj/../Libraries/board/clock_config.c:14

    RCC->CTLR |= ((uint32_t)RCC_HSEON);
    344e:	400217b7          	lui	a5,0x40021
    3452:	4394                	lw	a3,0(a5)
    3454:	400217b7          	lui	a5,0x40021
    3458:	6741                	lui	a4,0x10
    345a:	8f55                	or	a4,a4,a3
    345c:	c398                	sw	a4,0(a5)
D:\WCH\代码\3-PIT%20Demo\obj/../Libraries/board/clock_config.c:19 (discriminator 2)

    /* Wait till HSE is ready and if Time out is reached exit */
    do
    {
        HSEStatus = RCC->CTLR & RCC_HSERDY;
    345e:	400217b7          	lui	a5,0x40021
    3462:	4398                	lw	a4,0(a5)
    3464:	000207b7          	lui	a5,0x20
    3468:	8ff9                	and	a5,a5,a4
    346a:	fef42423          	sw	a5,-24(s0)
D:\WCH\代码\3-PIT%20Demo\obj/../Libraries/board/clock_config.c:20 (discriminator 2)
        StartUpCounter++;
    346e:	fec42783          	lw	a5,-20(s0)
    3472:	0785                	addi	a5,a5,1
    3474:	fef42623          	sw	a5,-20(s0)
D:\WCH\代码\3-PIT%20Demo\obj/../Libraries/board/clock_config.c:21 (discriminator 2)
    } while((HSEStatus == 0) && (StartUpCounter != HSE_STARTUP_TIMEOUT));
    3478:	fe842783          	lw	a5,-24(s0)
    347c:	e799                	bnez	a5,348a <SetSysClock+0x4a>
D:\WCH\代码\3-PIT%20Demo\obj/../Libraries/board/clock_config.c:21 (discriminator 1)
    347e:	fec42703          	lw	a4,-20(s0)
    3482:	50000793          	li	a5,1280
    3486:	fcf71ce3          	bne	a4,a5,345e <SetSysClock+0x1e>
D:\WCH\代码\3-PIT%20Demo\obj/../Libraries/board/clock_config.c:23

    if ((RCC->CTLR & RCC_HSERDY) != RESET)
    348a:	400217b7          	lui	a5,0x40021
    348e:	4398                	lw	a4,0(a5)
    3490:	000207b7          	lui	a5,0x20
    3494:	8ff9                	and	a5,a5,a4
    3496:	c789                	beqz	a5,34a0 <SetSysClock+0x60>
D:\WCH\代码\3-PIT%20Demo\obj/../Libraries/board/clock_config.c:25
    {
        HSEStatus = (uint32_t)0x01;
    3498:	4785                	li	a5,1
    349a:	fef42423          	sw	a5,-24(s0)
    349e:	a019                	j	34a4 <SetSysClock+0x64>
D:\WCH\代码\3-PIT%20Demo\obj/../Libraries/board/clock_config.c:29
    }
    else
    {
        HSEStatus = (uint32_t)0x00;
    34a0:	fe042423          	sw	zero,-24(s0)
D:\WCH\代码\3-PIT%20Demo\obj/../Libraries/board/clock_config.c:32
    }

    if (HSEStatus == (uint32_t)0x01)
    34a4:	fe842703          	lw	a4,-24(s0)
    34a8:	4785                	li	a5,1
    34aa:	0cf71763          	bne	a4,a5,3578 <SetSysClock+0x138>
D:\WCH\代码\3-PIT%20Demo\obj/../Libraries/board/clock_config.c:35
    {
        /* Enable Prefetch Buffer */
        FLASH->ACTLR |= FLASH_ACTLR_PRFTBE;
    34ae:	400227b7          	lui	a5,0x40022
    34b2:	4398                	lw	a4,0(a5)
    34b4:	400227b7          	lui	a5,0x40022
    34b8:	01076713          	ori	a4,a4,16
    34bc:	c398                	sw	a4,0(a5)
D:\WCH\代码\3-PIT%20Demo\obj/../Libraries/board/clock_config.c:38

        /* Flash 2 wait state */
        FLASH->ACTLR &= (uint32_t)((uint32_t)~FLASH_ACTLR_LATENCY);
    34be:	400227b7          	lui	a5,0x40022
    34c2:	4398                	lw	a4,0(a5)
    34c4:	400227b7          	lui	a5,0x40022
    34c8:	9b71                	andi	a4,a4,-4
    34ca:	c398                	sw	a4,0(a5)
D:\WCH\代码\3-PIT%20Demo\obj/../Libraries/board/clock_config.c:39
        FLASH->ACTLR |= (uint32_t)FLASH_ACTLR_LATENCY_2;
    34cc:	400227b7          	lui	a5,0x40022
    34d0:	4398                	lw	a4,0(a5)
    34d2:	400227b7          	lui	a5,0x40022
    34d6:	00276713          	ori	a4,a4,2
    34da:	c398                	sw	a4,0(a5)
D:\WCH\代码\3-PIT%20Demo\obj/../Libraries/board/clock_config.c:42

        /* HCLK = SYSCLK */
        RCC->CFGR0 |= (uint32_t)RCC_HPRE_DIV1;
    34dc:	40021737          	lui	a4,0x40021
    34e0:	400217b7          	lui	a5,0x40021
    34e4:	4358                	lw	a4,4(a4)
    34e6:	c3d8                	sw	a4,4(a5)
D:\WCH\代码\3-PIT%20Demo\obj/../Libraries/board/clock_config.c:44
        /* PCLK2 = HCLK */
        RCC->CFGR0 |= (uint32_t)RCC_PPRE2_DIV1;
    34e8:	40021737          	lui	a4,0x40021
    34ec:	400217b7          	lui	a5,0x40021
    34f0:	4358                	lw	a4,4(a4)
    34f2:	c3d8                	sw	a4,4(a5)
D:\WCH\代码\3-PIT%20Demo\obj/../Libraries/board/clock_config.c:46
        /* PCLK1 = HCLK */
        RCC->CFGR0 |= (uint32_t)RCC_PPRE1_DIV1;
    34f4:	40021737          	lui	a4,0x40021
    34f8:	400217b7          	lui	a5,0x40021
    34fc:	4358                	lw	a4,4(a4)
    34fe:	c3d8                	sw	a4,4(a5)
D:\WCH\代码\3-PIT%20Demo\obj/../Libraries/board/clock_config.c:49


        RCC->CFGR0 &= (uint32_t)((uint32_t)~(RCC_PLLSRC | RCC_PLLXTPRE |
    3500:	400217b7          	lui	a5,0x40021
    3504:	43d4                	lw	a3,4(a5)
    3506:	400217b7          	lui	a5,0x40021
    350a:	ffc10737          	lui	a4,0xffc10
    350e:	177d                	addi	a4,a4,-1
    3510:	8f75                	and	a4,a4,a3
    3512:	c3d8                	sw	a4,4(a5)
D:\WCH\代码\3-PIT%20Demo\obj/../Libraries/board/clock_config.c:52
                                            RCC_PLLMULL));
        /*  PLL configuration: PLLCLK = HSE * ?  */
        RCC->CFGR0 |= (uint32_t)(RCC_PLLSRC_HSE | RCC_PLLMULL11);
    3514:	400217b7          	lui	a5,0x40021
    3518:	43d4                	lw	a3,4(a5)
    351a:	400217b7          	lui	a5,0x40021
    351e:	00250737          	lui	a4,0x250
    3522:	8f55                	or	a4,a4,a3
    3524:	c3d8                	sw	a4,4(a5)
D:\WCH\代码\3-PIT%20Demo\obj/../Libraries/board/clock_config.c:54
        /* Enable PLL */
        RCC->CTLR |= RCC_PLLON;
    3526:	400217b7          	lui	a5,0x40021
    352a:	4394                	lw	a3,0(a5)
    352c:	400217b7          	lui	a5,0x40021
    3530:	01000737          	lui	a4,0x1000
    3534:	8f55                	or	a4,a4,a3
    3536:	c398                	sw	a4,0(a5)
D:\WCH\代码\3-PIT%20Demo\obj/../Libraries/board/clock_config.c:56
        /* Wait till PLL is ready */
        while((RCC->CTLR & RCC_PLLRDY) == 0)
    3538:	0001                	nop
D:\WCH\代码\3-PIT%20Demo\obj/../Libraries/board/clock_config.c:56 (discriminator 1)
    353a:	400217b7          	lui	a5,0x40021
    353e:	4398                	lw	a4,0(a5)
    3540:	020007b7          	lui	a5,0x2000
    3544:	8ff9                	and	a5,a5,a4
    3546:	dbf5                	beqz	a5,353a <SetSysClock+0xfa>
D:\WCH\代码\3-PIT%20Demo\obj/../Libraries/board/clock_config.c:60
        {
        }
        /* Select PLL as system clock source */
        RCC->CFGR0 &= (uint32_t)((uint32_t)~(RCC_SW));
    3548:	400217b7          	lui	a5,0x40021
    354c:	43d8                	lw	a4,4(a5)
    354e:	400217b7          	lui	a5,0x40021
    3552:	9b71                	andi	a4,a4,-4
    3554:	c3d8                	sw	a4,4(a5)
D:\WCH\代码\3-PIT%20Demo\obj/../Libraries/board/clock_config.c:61
        RCC->CFGR0 |= (uint32_t)RCC_SW_PLL;
    3556:	400217b7          	lui	a5,0x40021
    355a:	43d8                	lw	a4,4(a5)
    355c:	400217b7          	lui	a5,0x40021
    3560:	00276713          	ori	a4,a4,2
    3564:	c3d8                	sw	a4,4(a5)
D:\WCH\代码\3-PIT%20Demo\obj/../Libraries/board/clock_config.c:63
        /* Wait till PLL is used as system clock source */
        while ((RCC->CFGR0 & (uint32_t)RCC_SWS) != (uint32_t)0x08)
    3566:	0001                	nop
D:\WCH\代码\3-PIT%20Demo\obj/../Libraries/board/clock_config.c:63 (discriminator 1)
    3568:	400217b7          	lui	a5,0x40021
    356c:	43dc                	lw	a5,4(a5)
    356e:	00c7f713          	andi	a4,a5,12
    3572:	47a1                	li	a5,8
    3574:	fef71ae3          	bne	a4,a5,3568 <SetSysClock+0x128>
D:\WCH\代码\3-PIT%20Demo\obj/../Libraries/board/clock_config.c:74
        /*
         * If HSE fails to start-up, the application will have wrong clock
     * configuration. User can add here some code to deal with this error
         */
    }
}
    3578:	0001                	nop
    357a:	4472                	lw	s0,28(sp)
    357c:	6105                	addi	sp,sp,32
    357e:	8082                	ret

00003580 <SystemInit>:
SystemInit():
D:\WCH\代码\3-PIT%20Demo\obj/../Libraries/board/clock_config.c:84
*                  the PLL and update the SystemCoreClock variable.
* Input          : None
* Return         : None
*******************************************************************************************/
void SystemInit (void)
{
    3580:	1141                	addi	sp,sp,-16
    3582:	c606                	sw	ra,12(sp)
    3584:	c422                	sw	s0,8(sp)
    3586:	0800                	addi	s0,sp,16
D:\WCH\代码\3-PIT%20Demo\obj/../Libraries/board/clock_config.c:85
    RCC->CTLR |= (uint32_t)0x00000001;
    3588:	400217b7          	lui	a5,0x40021
    358c:	4398                	lw	a4,0(a5)
    358e:	400217b7          	lui	a5,0x40021
    3592:	00176713          	ori	a4,a4,1
    3596:	c398                	sw	a4,0(a5)
D:\WCH\代码\3-PIT%20Demo\obj/../Libraries/board/clock_config.c:86
    RCC->CFGR0 &= (uint32_t)0xF8FF0000;
    3598:	400217b7          	lui	a5,0x40021
    359c:	43d4                	lw	a3,4(a5)
    359e:	400217b7          	lui	a5,0x40021
    35a2:	f8ff0737          	lui	a4,0xf8ff0
    35a6:	8f75                	and	a4,a4,a3
    35a8:	c3d8                	sw	a4,4(a5)
D:\WCH\代码\3-PIT%20Demo\obj/../Libraries/board/clock_config.c:87
    RCC->CTLR &= (uint32_t)0xFEF6FFFF;
    35aa:	400217b7          	lui	a5,0x40021
    35ae:	4394                	lw	a3,0(a5)
    35b0:	400217b7          	lui	a5,0x40021
    35b4:	fef70737          	lui	a4,0xfef70
    35b8:	177d                	addi	a4,a4,-1
    35ba:	8f75                	and	a4,a4,a3
    35bc:	c398                	sw	a4,0(a5)
D:\WCH\代码\3-PIT%20Demo\obj/../Libraries/board/clock_config.c:88
    RCC->CTLR &= (uint32_t)0xFFFBFFFF;
    35be:	400217b7          	lui	a5,0x40021
    35c2:	4394                	lw	a3,0(a5)
    35c4:	400217b7          	lui	a5,0x40021
    35c8:	fffc0737          	lui	a4,0xfffc0
    35cc:	177d                	addi	a4,a4,-1
    35ce:	8f75                	and	a4,a4,a3
    35d0:	c398                	sw	a4,0(a5)
D:\WCH\代码\3-PIT%20Demo\obj/../Libraries/board/clock_config.c:89
    RCC->CFGR0 &= (uint32_t)0xFF80FFFF;
    35d2:	400217b7          	lui	a5,0x40021
    35d6:	43d4                	lw	a3,4(a5)
    35d8:	400217b7          	lui	a5,0x40021
    35dc:	ff810737          	lui	a4,0xff810
    35e0:	177d                	addi	a4,a4,-1
    35e2:	8f75                	and	a4,a4,a3
    35e4:	c3d8                	sw	a4,4(a5)
D:\WCH\代码\3-PIT%20Demo\obj/../Libraries/board/clock_config.c:90
    RCC->INTR = 0x009F0000;
    35e6:	400217b7          	lui	a5,0x40021
    35ea:	009f0737          	lui	a4,0x9f0
    35ee:	c798                	sw	a4,8(a5)
D:\WCH\代码\3-PIT%20Demo\obj/../Libraries/board/clock_config.c:91
    SetSysClock();
    35f0:	3d81                	jal	3440 <SetSysClock>
D:\WCH\代码\3-PIT%20Demo\obj/../Libraries/board/clock_config.c:92
}
    35f2:	0001                	nop
    35f4:	40b2                	lw	ra,12(sp)
    35f6:	4422                	lw	s0,8(sp)
    35f8:	0141                	addi	sp,sp,16
    35fa:	8082                	ret

000035fc <main_control>:
main_control():
D:\WCH\代码\3-PIT%20Demo\obj/../CODE/Control.c:59
}



void main_control(void)
{
    35fc:	1141                	addi	sp,sp,-16
    35fe:	c622                	sw	s0,12(sp)
    3600:	0800                	addi	s0,sp,16
D:\WCH\代码\3-PIT%20Demo\obj/../CODE/Control.c:61

    if(show_flag)
    3602:	8581c783          	lbu	a5,-1960(gp) # 200000e0 <show_flag>
    3606:	c399                	beqz	a5,360c <main_control+0x10>
D:\WCH\代码\3-PIT%20Demo\obj/../CODE/Control.c:63
    {
        show_flag = 0;
    3608:	84018c23          	sb	zero,-1960(gp) # 200000e0 <show_flag>
D:\WCH\代码\3-PIT%20Demo\obj/../CODE/Control.c:68

    }


}
    360c:	0001                	nop
    360e:	4432                	lw	s0,12(sp)
    3610:	0141                	addi	sp,sp,16
    3612:	8082                	ret

00003614 <EXTI0_IRQHandler>:
EXTI0_IRQHandler():
D:\WCH\代码\3-PIT%20Demo\obj/../CODE/Get_deta.c:23
//  @since      v1.0
//  Sample usage:
//-------------------------------------------------------------------------------------------------------------------
void EXTI0_IRQHandler(void) __attribute__((interrupt("WCH-Interrupt-fast")));
void EXTI0_IRQHandler(void)
{
    3614:	1141                	addi	sp,sp,-16
    3616:	c622                	sw	s0,12(sp)
    3618:	0800                	addi	s0,sp,16
D:\WCH\代码\3-PIT%20Demo\obj/../CODE/Get_deta.c:24
    if(SET == EXTI_GetITStatus(EXTI_Line0))
    361a:	4505                	li	a0,1
    361c:	e5dfc0ef          	jal	ra,478 <EXTI_GetITStatus>
    3620:	872a                	mv	a4,a0
    3622:	4785                	li	a5,1
    3624:	02f71363          	bne	a4,a5,364a <EXTI0_IRQHandler+0x36>
D:\WCH\代码\3-PIT%20Demo\obj/../CODE/Get_deta.c:26
    {
        EXTI_ClearITPendingBit(EXTI_Line0);
    3628:	4505                	li	a0,1
    362a:	ea5fc0ef          	jal	ra,4ce <EXTI_ClearITPendingBit>
D:\WCH\代码\3-PIT%20Demo\obj/../CODE/Get_deta.c:27
        while(uart_flag != E_OK);                       //等待接收数据
    362e:	0001                	nop
D:\WCH\代码\3-PIT%20Demo\obj/../CODE/Get_deta.c:27 (discriminator 1)
    3630:	8571c703          	lbu	a4,-1961(gp) # 200000df <uart_flag>
    3634:	4785                	li	a5,1
    3636:	fef71de3          	bne	a4,a5,3630 <EXTI0_IRQHandler+0x1c>
D:\WCH\代码\3-PIT%20Demo\obj/../CODE/Get_deta.c:28
        uart_flag = E_START;                            //清空标志位
    363a:	84018ba3          	sb	zero,-1961(gp) # 200000df <uart_flag>
D:\WCH\代码\3-PIT%20Demo\obj/../CODE/Get_deta.c:29
        data_analysis(temp_buff);                       //数据解析
    363e:	84c18513          	addi	a0,gp,-1972 # 200000d4 <temp_buff>
    3642:	2861                	jal	36da <data_analysis>
D:\WCH\代码\3-PIT%20Demo\obj/../CODE/Get_deta.c:31

        show_flag = 1;                                  //屏幕显示标志位
    3644:	4705                	li	a4,1
    3646:	84e18c23          	sb	a4,-1960(gp) # 200000e0 <show_flag>
D:\WCH\代码\3-PIT%20Demo\obj/../CODE/Get_deta.c:33
    }
}
    364a:	0001                	nop
    364c:	4432                	lw	s0,12(sp)
    364e:	0141                	addi	sp,sp,16
    3650:	30200073          	mret

00003654 <get_slave_data>:
get_slave_data():
D:\WCH\代码\3-PIT%20Demo\obj/../CODE/Get_deta.c:48
//  @return     void
//  @since      v1.0
//  Sample usage:
//-------------------------------------------------------------------------------------------------------------------
void get_slave_data(uint8 data)
{
    3654:	1101                	addi	sp,sp,-32
    3656:	ce22                	sw	s0,28(sp)
    3658:	1000                	addi	s0,sp,32
    365a:	87aa                	mv	a5,a0
    365c:	fef407a3          	sb	a5,-17(s0)
D:\WCH\代码\3-PIT%20Demo\obj/../CODE/Get_deta.c:50
    static uint8 uart_num = 0;
    temp_buff[uart_num++] = data;
    3660:	81c1c783          	lbu	a5,-2020(gp) # 200000a4 <uart_num.6308>
    3664:	00178713          	addi	a4,a5,1 # 40021001 <_eusrstack+0x2001c001>
    3668:	0ff77693          	andi	a3,a4,255
    366c:	80d18e23          	sb	a3,-2020(gp) # 200000a4 <uart_num.6308>
    3670:	873e                	mv	a4,a5
    3672:	84c18793          	addi	a5,gp,-1972 # 200000d4 <temp_buff>
    3676:	97ba                	add	a5,a5,a4
    3678:	fef44703          	lbu	a4,-17(s0)
    367c:	00e78023          	sb	a4,0(a5)
D:\WCH\代码\3-PIT%20Demo\obj/../CODE/Get_deta.c:52

    if(1 == uart_num)
    3680:	81c1c703          	lbu	a4,-2020(gp) # 200000a4 <uart_num.6308>
    3684:	4785                	li	a5,1
    3686:	00f71d63          	bne	a4,a5,36a0 <get_slave_data+0x4c>
D:\WCH\代码\3-PIT%20Demo\obj/../CODE/Get_deta.c:55
    {
        //接收到的第一个字符不为0xD8，帧头错误
        if(0xD8 != temp_buff[0])
    368a:	84c1c703          	lbu	a4,-1972(gp) # 200000d4 <temp_buff>
    368e:	0d800793          	li	a5,216
    3692:	00f70763          	beq	a4,a5,36a0 <get_slave_data+0x4c>
D:\WCH\代码\3-PIT%20Demo\obj/../CODE/Get_deta.c:57
        {
            uart_num = 0;
    3696:	80018e23          	sb	zero,-2020(gp) # 200000a4 <uart_num.6308>
D:\WCH\代码\3-PIT%20Demo\obj/../CODE/Get_deta.c:58
            uart_flag = E_FRAME_HEADER_ERROR;
    369a:	4709                	li	a4,2
    369c:	84e18ba3          	sb	a4,-1961(gp) # 200000df <uart_flag>
D:\WCH\代码\3-PIT%20Demo\obj/../CODE/Get_deta.c:62
        }
    }

    if(LINE_LEN == uart_num)
    36a0:	81c1c703          	lbu	a4,-2020(gp) # 200000a4 <uart_num.6308>
    36a4:	47ad                	li	a5,11
    36a6:	02f71663          	bne	a4,a5,36d2 <get_slave_data+0x7e>
D:\WCH\代码\3-PIT%20Demo\obj/../CODE/Get_deta.c:64
    {
        uart_flag = E_OK;
    36aa:	4705                	li	a4,1
    36ac:	84e18ba3          	sb	a4,-1961(gp) # 200000df <uart_flag>
D:\WCH\代码\3-PIT%20Demo\obj/../CODE/Get_deta.c:66
        //接收到最后一个字节为0xEE
        if(0xEE == temp_buff[LINE_LEN - 1])
    36b0:	84c18793          	addi	a5,gp,-1972 # 200000d4 <temp_buff>
    36b4:	00a7c703          	lbu	a4,10(a5)
    36b8:	0ee00793          	li	a5,238
    36bc:	00f71663          	bne	a4,a5,36c8 <get_slave_data+0x74>
D:\WCH\代码\3-PIT%20Demo\obj/../CODE/Get_deta.c:68
        {
            uart_flag = E_OK;
    36c0:	4705                	li	a4,1
    36c2:	84e18ba3          	sb	a4,-1961(gp) # 200000df <uart_flag>
    36c6:	a021                	j	36ce <get_slave_data+0x7a>
D:\WCH\代码\3-PIT%20Demo\obj/../CODE/Get_deta.c:72
        }
        else    //接收到最后一个字节不是0xEE，帧尾错误
        {
            uart_flag = E_FRAME_RTAIL_ERROR;
    36c8:	470d                	li	a4,3
    36ca:	84e18ba3          	sb	a4,-1961(gp) # 200000df <uart_flag>
D:\WCH\代码\3-PIT%20Demo\obj/../CODE/Get_deta.c:74
        }
        uart_num = 0;
    36ce:	80018e23          	sb	zero,-2020(gp) # 200000a4 <uart_num.6308>
D:\WCH\代码\3-PIT%20Demo\obj/../CODE/Get_deta.c:76
    }
}
    36d2:	0001                	nop
    36d4:	4472                	lw	s0,28(sp)
    36d6:	6105                	addi	sp,sp,32
    36d8:	8082                	ret

000036da <data_analysis>:
data_analysis():
D:\WCH\代码\3-PIT%20Demo\obj/../CODE/Get_deta.c:86
//  @return     void
//  @since      v1.0
//  Sample usage:
//-------------------------------------------------------------------------------------------------------------------
void data_analysis(uint8 *line)
{
    36da:	1101                	addi	sp,sp,-32
    36dc:	ce22                	sw	s0,28(sp)
    36de:	1000                	addi	s0,sp,32
    36e0:	fea42623          	sw	a0,-20(s0)
D:\WCH\代码\3-PIT%20Demo\obj/../CODE/Get_deta.c:87
    if(line[1] == 0xB0)    slave_a  = ((int16)line[2] << 8) | line[3];
    36e4:	fec42783          	lw	a5,-20(s0)
    36e8:	0785                	addi	a5,a5,1
    36ea:	0007c703          	lbu	a4,0(a5)
    36ee:	0b000793          	li	a5,176
    36f2:	02f71863          	bne	a4,a5,3722 <data_analysis+0x48>
D:\WCH\代码\3-PIT%20Demo\obj/../CODE/Get_deta.c:87 (discriminator 1)
    36f6:	fec42783          	lw	a5,-20(s0)
    36fa:	0789                	addi	a5,a5,2
    36fc:	0007c783          	lbu	a5,0(a5)
    3700:	07a2                	slli	a5,a5,0x8
    3702:	01079713          	slli	a4,a5,0x10
    3706:	8741                	srai	a4,a4,0x10
    3708:	fec42783          	lw	a5,-20(s0)
    370c:	078d                	addi	a5,a5,3
    370e:	0007c783          	lbu	a5,0(a5)
    3712:	07c2                	slli	a5,a5,0x10
    3714:	87c1                	srai	a5,a5,0x10
    3716:	8fd9                	or	a5,a5,a4
    3718:	01079713          	slli	a4,a5,0x10
    371c:	8741                	srai	a4,a4,0x10
    371e:	84e19d23          	sh	a4,-1958(gp) # 200000e2 <slave_a>
D:\WCH\代码\3-PIT%20Demo\obj/../CODE/Get_deta.c:88
    if(line[4] == 0xB1)    slave_b = ((int16)line[5] << 8) | line[6];
    3722:	fec42783          	lw	a5,-20(s0)
    3726:	0791                	addi	a5,a5,4
    3728:	0007c703          	lbu	a4,0(a5)
    372c:	0b100793          	li	a5,177
    3730:	02f71863          	bne	a4,a5,3760 <data_analysis+0x86>
D:\WCH\代码\3-PIT%20Demo\obj/../CODE/Get_deta.c:88 (discriminator 1)
    3734:	fec42783          	lw	a5,-20(s0)
    3738:	0795                	addi	a5,a5,5
    373a:	0007c783          	lbu	a5,0(a5)
    373e:	07a2                	slli	a5,a5,0x8
    3740:	01079713          	slli	a4,a5,0x10
    3744:	8741                	srai	a4,a4,0x10
    3746:	fec42783          	lw	a5,-20(s0)
    374a:	0799                	addi	a5,a5,6
    374c:	0007c783          	lbu	a5,0(a5)
    3750:	07c2                	slli	a5,a5,0x10
    3752:	87c1                	srai	a5,a5,0x10
    3754:	8fd9                	or	a5,a5,a4
    3756:	01079713          	slli	a4,a5,0x10
    375a:	8741                	srai	a4,a4,0x10
    375c:	84e19423          	sh	a4,-1976(gp) # 200000d0 <slave_b>
D:\WCH\代码\3-PIT%20Demo\obj/../CODE/Get_deta.c:89
    if(line[7] == 0xB2)    slave_c      = ((int16)line[8] << 8) | line[9];
    3760:	fec42783          	lw	a5,-20(s0)
    3764:	079d                	addi	a5,a5,7
    3766:	0007c703          	lbu	a4,0(a5)
    376a:	0b200793          	li	a5,178
    376e:	02f71863          	bne	a4,a5,379e <data_analysis+0xc4>
D:\WCH\代码\3-PIT%20Demo\obj/../CODE/Get_deta.c:89 (discriminator 1)
    3772:	fec42783          	lw	a5,-20(s0)
    3776:	07a1                	addi	a5,a5,8
    3778:	0007c783          	lbu	a5,0(a5)
    377c:	07a2                	slli	a5,a5,0x8
    377e:	01079713          	slli	a4,a5,0x10
    3782:	8741                	srai	a4,a4,0x10
    3784:	fec42783          	lw	a5,-20(s0)
    3788:	07a5                	addi	a5,a5,9
    378a:	0007c783          	lbu	a5,0(a5)
    378e:	07c2                	slli	a5,a5,0x10
    3790:	87c1                	srai	a5,a5,0x10
    3792:	8fd9                	or	a5,a5,a4
    3794:	01079713          	slli	a4,a5,0x10
    3798:	8741                	srai	a4,a4,0x10
    379a:	84e19523          	sh	a4,-1974(gp) # 200000d2 <slave_c>
D:\WCH\代码\3-PIT%20Demo\obj/../CODE/Get_deta.c:90
}
    379e:	0001                	nop
    37a0:	4472                	lw	s0,28(sp)
    37a2:	6105                	addi	sp,sp,32
    37a4:	8082                	ret

000037a6 <Init_ALL>:
Init_ALL():
D:\WCH\代码\3-PIT%20Demo\obj/../CODE/Init.c:4
#include "FIRELOCK.h"

void Init_ALL()
{
    37a6:	1141                	addi	sp,sp,-16
    37a8:	c606                	sw	ra,12(sp)
    37aa:	c422                	sw	s0,8(sp)
    37ac:	0800                	addi	s0,sp,16
D:\WCH\代码\3-PIT%20Demo\obj/../CODE/Init.c:6
//    DisableGlobalIRQ();
        board_init();           //务必保留，本函数用于初始化MPU 时钟 调试串口
    37ae:	bd5ff0ef          	jal	ra,3382 <board_init>
D:\WCH\代码\3-PIT%20Demo\obj/../CODE/Init.c:9


        key_init(KEY_MAX);
    37b2:	4519                	li	a0,6
    37b4:	2205                	jal	38d4 <key_init>
D:\WCH\代码\3-PIT%20Demo\obj/../CODE/Init.c:11

        gpio_init(A4, GPO, 1, GPIO_PIN_CONFIG);
    37b6:	31000693          	li	a3,784
    37ba:	4605                	li	a2,1
    37bc:	4585                	li	a1,1
    37be:	4511                	li	a0,4
    37c0:	cf3fe0ef          	jal	ra,24b2 <gpio_init>
D:\WCH\代码\3-PIT%20Demo\obj/../CODE/Init.c:12
        gpio_init(B2, GPO, 1, GPIO_PIN_CONFIG);
    37c4:	31000693          	li	a3,784
    37c8:	4605                	li	a2,1
    37ca:	4585                	li	a1,1
    37cc:	02200513          	li	a0,34
    37d0:	ce3fe0ef          	jal	ra,24b2 <gpio_init>
D:\WCH\代码\3-PIT%20Demo\obj/../CODE/Init.c:13
        gpio_init(A9, GPO, 1, GPIO_PIN_CONFIG);
    37d4:	31000693          	li	a3,784
    37d8:	4605                	li	a2,1
    37da:	4585                	li	a1,1
    37dc:	4525                	li	a0,9
    37de:	cd5fe0ef          	jal	ra,24b2 <gpio_init>
D:\WCH\代码\3-PIT%20Demo\obj/../CODE/Init.c:15

       timer_pit_interrupt_ms(TIMER_3, 600); //主中断  600ms
    37e2:	25800593          	li	a1,600
    37e6:	4509                	li	a0,2
    37e8:	8b0ff0ef          	jal	ra,2898 <timer_pit_interrupt_ms>
D:\WCH\代码\3-PIT%20Demo\obj/../CODE/Init.c:17

        pwm_init(PWM2_CH2_B3,  18000, 0);      //RB  前
    37ec:	4601                	li	a2,0
    37ee:	6791                	lui	a5,0x4
    37f0:	65078593          	addi	a1,a5,1616 # 4650 <__swbuf_r+0xaa>
    37f4:	11100513          	li	a0,273
    37f8:	d62ff0ef          	jal	ra,2d5a <pwm_init>
D:\WCH\代码\3-PIT%20Demo\obj/../CODE/Init.c:18
        pwm_init(PWM2_CH1_A15, 18000, 0);      //RB  后
    37fc:	4601                	li	a2,0
    37fe:	6791                	lui	a5,0x4
    3800:	65078593          	addi	a1,a5,1616 # 4650 <__swbuf_r+0xaa>
    3804:	11000513          	li	a0,272
    3808:	d52ff0ef          	jal	ra,2d5a <pwm_init>
D:\WCH\代码\3-PIT%20Demo\obj/../CODE/Init.c:19
        pwm_init(PWM2_CH3_B10, 18000, 0);      //LB  前
    380c:	4601                	li	a2,0
    380e:	6791                	lui	a5,0x4
    3810:	65078593          	addi	a1,a5,1616 # 4650 <__swbuf_r+0xaa>
    3814:	11200513          	li	a0,274
    3818:	d42ff0ef          	jal	ra,2d5a <pwm_init>
D:\WCH\代码\3-PIT%20Demo\obj/../CODE/Init.c:20
        pwm_init(PWM2_CH4_B11, 18000, 0);     //LB  后
    381c:	4601                	li	a2,0
    381e:	6791                	lui	a5,0x4
    3820:	65078593          	addi	a1,a5,1616 # 4650 <__swbuf_r+0xaa>
    3824:	11300513          	li	a0,275
    3828:	d32ff0ef          	jal	ra,2d5a <pwm_init>
D:\WCH\代码\3-PIT%20Demo\obj/../CODE/Init.c:21
        pwm_init(PWM4_CH1_B6,  18000, 0);     //RF  前
    382c:	4601                	li	a2,0
    382e:	6791                	lui	a5,0x4
    3830:	65078593          	addi	a1,a5,1616 # 4650 <__swbuf_r+0xaa>
    3834:	30000513          	li	a0,768
    3838:	d22ff0ef          	jal	ra,2d5a <pwm_init>
D:\WCH\代码\3-PIT%20Demo\obj/../CODE/Init.c:22
        pwm_init(PWM4_CH2_B7,  18000, 0);     //RF  后
    383c:	4601                	li	a2,0
    383e:	6791                	lui	a5,0x4
    3840:	65078593          	addi	a1,a5,1616 # 4650 <__swbuf_r+0xaa>
    3844:	30100513          	li	a0,769
    3848:	d12ff0ef          	jal	ra,2d5a <pwm_init>
D:\WCH\代码\3-PIT%20Demo\obj/../CODE/Init.c:23
        pwm_init(PWM4_CH3_B8,  18000, 0);     //LF  前
    384c:	4601                	li	a2,0
    384e:	6791                	lui	a5,0x4
    3850:	65078593          	addi	a1,a5,1616 # 4650 <__swbuf_r+0xaa>
    3854:	30200513          	li	a0,770
    3858:	d02ff0ef          	jal	ra,2d5a <pwm_init>
D:\WCH\代码\3-PIT%20Demo\obj/../CODE/Init.c:24
        pwm_init(PWM4_CH4_B9,  18000, 0);     //LF  后
    385c:	4601                	li	a2,0
    385e:	6791                	lui	a5,0x4
    3860:	65078593          	addi	a1,a5,1616 # 4650 <__swbuf_r+0xaa>
    3864:	30300513          	li	a0,771
    3868:	cf2ff0ef          	jal	ra,2d5a <pwm_init>
D:\WCH\代码\3-PIT%20Demo\obj/../CODE/Init.c:25
        pwm_init(PWM1_CH3_A10, 333,0); //舵机
    386c:	4601                	li	a2,0
    386e:	14d00593          	li	a1,333
    3872:	4509                	li	a0,2
    3874:	ce6ff0ef          	jal	ra,2d5a <pwm_init>
D:\WCH\代码\3-PIT%20Demo\obj/../CODE/Init.c:28

        //串口的抢占优先级一定要比外部中断的抢占优先级高，这样才能实时接收从机数据
        uart_init(UART_2, 460800, UART2_TX_A2, UART2_RX_A3);  //串口3初始化，波特率460800
    3878:	46c5                	li	a3,17
    387a:	4641                	li	a2,16
    387c:	000717b7          	lui	a5,0x71
    3880:	80078593          	addi	a1,a5,-2048 # 70800 <_data_lma+0x6b348>
    3884:	4505                	li	a0,1
    3886:	9f3ff0ef          	jal	ra,3278 <uart_init>
D:\WCH\代码\3-PIT%20Demo\obj/../CODE/Init.c:29
        uart_rx_irq(UART_2, ENABLE);                            //默认抢占优先级0 次优先级0。
    388a:	4585                	li	a1,1
    388c:	4505                	li	a0,1
    388e:	aa5ff0ef          	jal	ra,3332 <uart_rx_irq>
D:\WCH\代码\3-PIT%20Demo\obj/../CODE/Init.c:32


        gpio_interrupt_init(A0, RISING, GPIO_INT_CONFIG);       //A0初始化为GPIO 上升沿触发
    3892:	04800613          	li	a2,72
    3896:	45a1                	li	a1,8
    3898:	4501                	li	a0,0
    389a:	e79fe0ef          	jal	ra,2712 <gpio_interrupt_init>
D:\WCH\代码\3-PIT%20Demo\obj/../CODE/Init.c:33
        nvic_init(EXTI0_IRQn, 1, 1, ENABLE);                    //EXTI0优先级配置，抢占优先级1，次优先级1
    389e:	4685                	li	a3,1
    38a0:	4605                	li	a2,1
    38a2:	4585                	li	a1,1
    38a4:	4559                	li	a0,22
    38a6:	eedfe0ef          	jal	ra,2792 <nvic_init>
D:\WCH\代码\3-PIT%20Demo\obj/../CODE/Init.c:38




        oled_init();
    38aa:	86bfe0ef          	jal	ra,2114 <oled_init>
D:\WCH\代码\3-PIT%20Demo\obj/../CODE/Init.c:40

        EnableGlobalIRQ(0);
    38ae:	4501                	li	a0,0
    38b0:	fc5fe0ef          	jal	ra,2874 <EnableGlobalIRQ>
D:\WCH\代码\3-PIT%20Demo\obj/../CODE/Init.c:42

}
    38b4:	0001                	nop
    38b6:	40b2                	lw	ra,12(sp)
    38b8:	4422                	lw	s0,8(sp)
    38ba:	0141                	addi	sp,sp,16
    38bc:	8082                	ret

000038be <running>:
running():
D:\WCH\代码\3-PIT%20Demo\obj/../CODE/Init.c:46


void running(void)
{
    38be:	1141                	addi	sp,sp,-16
    38c0:	c606                	sw	ra,12(sp)
    38c2:	c422                	sw	s0,8(sp)
    38c4:	0800                	addi	s0,sp,16
D:\WCH\代码\3-PIT%20Demo\obj/../CODE/Init.c:47
    Menu_player();
    38c6:	26b9                	jal	3c14 <Menu_player>
D:\WCH\代码\3-PIT%20Demo\obj/../CODE/Init.c:51

//  if(Skey_flag)
//  {
      main_control();                                            //主控
    38c8:	3b15                	jal	35fc <main_control>
D:\WCH\代码\3-PIT%20Demo\obj/../CODE/Init.c:64
//     PID_MotorClear(&motor_4);
//     PID_PositionClear(&pid_position);
//     PID_TurnClear(&pid_turn);
//     Speed_caculation(&wheels,0,0,0);
//  }
}
    38ca:	0001                	nop
    38cc:	40b2                	lw	ra,12(sp)
    38ce:	4422                	lw	s0,8(sp)
    38d0:	0141                	addi	sp,sp,16
    38d2:	8082                	ret

000038d4 <key_init>:
key_init():
D:\WCH\代码\3-PIT%20Demo\obj/../CODE/Key.c:7


PIN_enum KEY_PTxn[KEY_MAX] = { A12,B4,C12,B5,D2,C7};//

void    key_init(KEY_e key)
{
    38d4:	1101                	addi	sp,sp,-32
    38d6:	ce06                	sw	ra,28(sp)
    38d8:	cc22                	sw	s0,24(sp)
    38da:	1000                	addi	s0,sp,32
    38dc:	fea42623          	sw	a0,-20(s0)
D:\WCH\代码\3-PIT%20Demo\obj/../CODE/Key.c:8
    if(key < KEY_MAX)
    38e0:	fec42703          	lw	a4,-20(s0)
    38e4:	4795                	li	a5,5
    38e6:	02e7e363          	bltu	a5,a4,390c <key_init+0x38>
D:\WCH\代码\3-PIT%20Demo\obj/../CODE/Key.c:10
    {
        gpio_init(KEY_PTxn[key], GPI, 0, GPIO_INT_CONFIG);
    38ea:	200007b7          	lui	a5,0x20000
    38ee:	fec42703          	lw	a4,-20(s0)
    38f2:	070a                	slli	a4,a4,0x2
    38f4:	01078793          	addi	a5,a5,16 # 20000010 <KEY_PTxn>
    38f8:	97ba                	add	a5,a5,a4
    38fa:	439c                	lw	a5,0(a5)
    38fc:	04800693          	li	a3,72
    3900:	4601                	li	a2,0
    3902:	4581                	li	a1,0
    3904:	853e                	mv	a0,a5
    3906:	badfe0ef          	jal	ra,24b2 <gpio_init>
D:\WCH\代码\3-PIT%20Demo\obj/../CODE/Key.c:24
            gpio_init(KEY_PTxn[key], GPI, 0, GPIO_INT_CONFIG);

        }

    }
}
    390a:	a825                	j	3942 <key_init+0x6e>
D:\WCH\代码\3-PIT%20Demo\obj/../CODE/Key.c:14
        key = KEY_MAX;
    390c:	4799                	li	a5,6
    390e:	fef42623          	sw	a5,-20(s0)
D:\WCH\代码\3-PIT%20Demo\obj/../CODE/Key.c:17
        while(key--)
    3912:	a00d                	j	3934 <key_init+0x60>
D:\WCH\代码\3-PIT%20Demo\obj/../CODE/Key.c:19
            gpio_init(KEY_PTxn[key], GPI, 0, GPIO_INT_CONFIG);
    3914:	200007b7          	lui	a5,0x20000
    3918:	fec42703          	lw	a4,-20(s0)
    391c:	070a                	slli	a4,a4,0x2
    391e:	01078793          	addi	a5,a5,16 # 20000010 <KEY_PTxn>
    3922:	97ba                	add	a5,a5,a4
    3924:	439c                	lw	a5,0(a5)
    3926:	04800693          	li	a3,72
    392a:	4601                	li	a2,0
    392c:	4581                	li	a1,0
    392e:	853e                	mv	a0,a5
    3930:	b83fe0ef          	jal	ra,24b2 <gpio_init>
D:\WCH\代码\3-PIT%20Demo\obj/../CODE/Key.c:17
        while(key--)
    3934:	fec42783          	lw	a5,-20(s0)
    3938:	fff78713          	addi	a4,a5,-1
    393c:	fee42623          	sw	a4,-20(s0)
    3940:	fbf1                	bnez	a5,3914 <key_init+0x40>
D:\WCH\代码\3-PIT%20Demo\obj/../CODE/Key.c:24
}
    3942:	0001                	nop
    3944:	40f2                	lw	ra,28(sp)
    3946:	4462                	lw	s0,24(sp)
    3948:	6105                	addi	sp,sp,32
    394a:	8082                	ret

0000394c <key_get>:
key_get():
D:\WCH\代码\3-PIT%20Demo\obj/../CODE/Key.c:38
                    {
                        printf("\n按键按下")
                    }
 */
KEY_STATUS_e key_get(KEY_e key)
{
    394c:	1101                	addi	sp,sp,-32
    394e:	ce06                	sw	ra,28(sp)
    3950:	cc22                	sw	s0,24(sp)
    3952:	1000                	addi	s0,sp,32
    3954:	fea42623          	sw	a0,-20(s0)
D:\WCH\代码\3-PIT%20Demo\obj/../CODE/Key.c:39
    if(gpio_get(KEY_PTxn[key]) == KEY_DOWN)
    3958:	200007b7          	lui	a5,0x20000
    395c:	fec42703          	lw	a4,-20(s0)
    3960:	070a                	slli	a4,a4,0x2
    3962:	01078793          	addi	a5,a5,16 # 20000010 <KEY_PTxn>
    3966:	97ba                	add	a5,a5,a4
    3968:	439c                	lw	a5,0(a5)
    396a:	853e                	mv	a0,a5
    396c:	cebfe0ef          	jal	ra,2656 <gpio_get>
    3970:	87aa                	mv	a5,a0
    3972:	e399                	bnez	a5,3978 <key_get+0x2c>
D:\WCH\代码\3-PIT%20Demo\obj/../CODE/Key.c:41
    {
        return KEY_DOWN;
    3974:	4781                	li	a5,0
    3976:	a011                	j	397a <key_get+0x2e>
D:\WCH\代码\3-PIT%20Demo\obj/../CODE/Key.c:43
    }
    return KEY_UP;
    3978:	4785                	li	a5,1
D:\WCH\代码\3-PIT%20Demo\obj/../CODE/Key.c:44
}
    397a:	853e                	mv	a0,a5
    397c:	40f2                	lw	ra,28(sp)
    397e:	4462                	lw	s0,24(sp)
    3980:	6105                	addi	sp,sp,32
    3982:	8082                	ret

00003984 <send_key_msg>:
send_key_msg():
D:\WCH\代码\3-PIT%20Demo\obj/../CODE/Key.c:103
                    keymsg.key      = KEY_U;
                    keymsg.status   = KEY_HOLD;
                    send_key_msg(keymsg);                   //发送
 */
void send_key_msg(KEY_MSG_t keymsg)
{
    3984:	7179                	addi	sp,sp,-48
    3986:	d622                	sw	s0,44(sp)
    3988:	1800                	addi	s0,sp,48
    398a:	fca42c23          	sw	a0,-40(s0)
    398e:	fcb42e23          	sw	a1,-36(s0)
D:\WCH\代码\3-PIT%20Demo\obj/../CODE/Key.c:106
    uint8 tmp;
    //保存在FIFO里
    if(key_msg_flag == KEY_MSG_FULL)
    3992:	81f1c783          	lbu	a5,-2017(gp) # 200000a7 <key_msg_flag>
    3996:	0ff7f713          	andi	a4,a5,255
    399a:	4789                	li	a5,2
    399c:	08f70563          	beq	a4,a5,3a26 <send_key_msg+0xa2>
D:\WCH\代码\3-PIT%20Demo\obj/../CODE/Key.c:111
    {
        //满了直接不处理
        return ;
    }
    key_msg[key_msg_rear].key = keymsg.key;
    39a0:	81e1c783          	lbu	a5,-2018(gp) # 200000a6 <key_msg_rear>
    39a4:	0ff7f793          	andi	a5,a5,255
    39a8:	86be                	mv	a3,a5
    39aa:	fd842703          	lw	a4,-40(s0)
    39ae:	200007b7          	lui	a5,0x20000
    39b2:	068e                	slli	a3,a3,0x3
    39b4:	0e478793          	addi	a5,a5,228 # 200000e4 <key_msg>
    39b8:	97b6                	add	a5,a5,a3
    39ba:	c398                	sw	a4,0(a5)
D:\WCH\代码\3-PIT%20Demo\obj/../CODE/Key.c:112
    key_msg[key_msg_rear].status = keymsg.status;
    39bc:	81e1c783          	lbu	a5,-2018(gp) # 200000a6 <key_msg_rear>
    39c0:	0ff7f793          	andi	a5,a5,255
    39c4:	863e                	mv	a2,a5
    39c6:	fdc42703          	lw	a4,-36(s0)
    39ca:	200007b7          	lui	a5,0x20000
    39ce:	0e478693          	addi	a3,a5,228 # 200000e4 <key_msg>
    39d2:	00361793          	slli	a5,a2,0x3
    39d6:	97b6                	add	a5,a5,a3
    39d8:	c3d8                	sw	a4,4(a5)
D:\WCH\代码\3-PIT%20Demo\obj/../CODE/Key.c:114

    key_msg_rear++;
    39da:	81e1c783          	lbu	a5,-2018(gp) # 200000a6 <key_msg_rear>
    39de:	0ff7f793          	andi	a5,a5,255
    39e2:	0785                	addi	a5,a5,1
    39e4:	0ff7f713          	andi	a4,a5,255
    39e8:	80e18f23          	sb	a4,-2018(gp) # 200000a6 <key_msg_rear>
D:\WCH\代码\3-PIT%20Demo\obj/../CODE/Key.c:116

    if(key_msg_rear >= KEY_MSG_FIFO_SIZE)
    39ec:	81e1c783          	lbu	a5,-2018(gp) # 200000a6 <key_msg_rear>
    39f0:	0ff7f713          	andi	a4,a5,255
    39f4:	47cd                	li	a5,19
    39f6:	00e7f463          	bgeu	a5,a4,39fe <send_key_msg+0x7a>
D:\WCH\代码\3-PIT%20Demo\obj/../CODE/Key.c:118
    {
        key_msg_rear = 0;                       //重头开始
    39fa:	80018f23          	sb	zero,-2018(gp) # 200000a6 <key_msg_rear>
D:\WCH\代码\3-PIT%20Demo\obj/../CODE/Key.c:121
    }

    tmp = key_msg_rear;
    39fe:	81e1c783          	lbu	a5,-2018(gp) # 200000a6 <key_msg_rear>
    3a02:	fef407a3          	sb	a5,-17(s0)
D:\WCH\代码\3-PIT%20Demo\obj/../CODE/Key.c:122
    if(tmp == key_msg_front)                   //追到屁股了，满了
    3a06:	81d1c783          	lbu	a5,-2019(gp) # 200000a5 <key_msg_front>
    3a0a:	0ff7f793          	andi	a5,a5,255
    3a0e:	fef44703          	lbu	a4,-17(s0)
    3a12:	00f71663          	bne	a4,a5,3a1e <send_key_msg+0x9a>
D:\WCH\代码\3-PIT%20Demo\obj/../CODE/Key.c:124
    {
        key_msg_flag = KEY_MSG_FULL;
    3a16:	4709                	li	a4,2
    3a18:	80e18fa3          	sb	a4,-2017(gp) # 200000a7 <key_msg_flag>
    3a1c:	a031                	j	3a28 <send_key_msg+0xa4>
D:\WCH\代码\3-PIT%20Demo\obj/../CODE/Key.c:128
    }
    else
    {
        key_msg_flag = KEY_MSG_NORMAL;
    3a1e:	4705                	li	a4,1
    3a20:	80e18fa3          	sb	a4,-2017(gp) # 200000a7 <key_msg_flag>
    3a24:	a011                	j	3a28 <send_key_msg+0xa4>
D:\WCH\代码\3-PIT%20Demo\obj/../CODE/Key.c:109
        return ;
    3a26:	0001                	nop
D:\WCH\代码\3-PIT%20Demo\obj/../CODE/Key.c:130
    }
}
    3a28:	5432                	lw	s0,44(sp)
    3a2a:	6145                	addi	sp,sp,48
    3a2c:	8082                	ret

00003a2e <get_key_msg>:
get_key_msg():
D:\WCH\代码\3-PIT%20Demo\obj/../CODE/Key.c:146
                    {
                        printf("\n按下按键KEY%d,类型为%d（0为按下，1为弹起，2为长按）",keymsg.key,keymsg.status);
                    }
 */
uint8 get_key_msg(KEY_MSG_t *keymsg)
{
    3a2e:	7179                	addi	sp,sp,-48
    3a30:	d622                	sw	s0,44(sp)
    3a32:	1800                	addi	s0,sp,48
    3a34:	fca42e23          	sw	a0,-36(s0)
D:\WCH\代码\3-PIT%20Demo\obj/../CODE/Key.c:149
    uint8 tmp;

    if(key_msg_flag == KEY_MSG_EMPTY)               //按键消息FIFO为空，直接返回0
    3a38:	81f1c783          	lbu	a5,-2017(gp) # 200000a7 <key_msg_flag>
    3a3c:	0ff7f793          	andi	a5,a5,255
    3a40:	e399                	bnez	a5,3a46 <get_key_msg+0x18>
D:\WCH\代码\3-PIT%20Demo\obj/../CODE/Key.c:151
    {
        return 0;
    3a42:	4781                	li	a5,0
    3a44:	a069                	j	3ace <get_key_msg+0xa0>
D:\WCH\代码\3-PIT%20Demo\obj/../CODE/Key.c:154
    }

    keymsg->key = key_msg[key_msg_front].key;       //从FIFO队首中获取按键值
    3a46:	81d1c783          	lbu	a5,-2019(gp) # 200000a5 <key_msg_front>
    3a4a:	0ff7f793          	andi	a5,a5,255
    3a4e:	873e                	mv	a4,a5
    3a50:	200007b7          	lui	a5,0x20000
    3a54:	070e                	slli	a4,a4,0x3
    3a56:	0e478793          	addi	a5,a5,228 # 200000e4 <key_msg>
    3a5a:	97ba                	add	a5,a5,a4
    3a5c:	4398                	lw	a4,0(a5)
    3a5e:	fdc42783          	lw	a5,-36(s0)
    3a62:	c398                	sw	a4,0(a5)
D:\WCH\代码\3-PIT%20Demo\obj/../CODE/Key.c:155
    keymsg->status = key_msg[key_msg_front].status; //从FIFO队首中获取按键类型
    3a64:	81d1c783          	lbu	a5,-2019(gp) # 200000a5 <key_msg_front>
    3a68:	0ff7f793          	andi	a5,a5,255
    3a6c:	86be                	mv	a3,a5
    3a6e:	200007b7          	lui	a5,0x20000
    3a72:	0e478713          	addi	a4,a5,228 # 200000e4 <key_msg>
    3a76:	00369793          	slli	a5,a3,0x3
    3a7a:	97ba                	add	a5,a5,a4
    3a7c:	43d8                	lw	a4,4(a5)
    3a7e:	fdc42783          	lw	a5,-36(s0)
    3a82:	c3d8                	sw	a4,4(a5)
D:\WCH\代码\3-PIT%20Demo\obj/../CODE/Key.c:157

    key_msg_front++;                                //FIFO队首指针加1，指向下一个消息
    3a84:	81d1c783          	lbu	a5,-2019(gp) # 200000a5 <key_msg_front>
    3a88:	0ff7f793          	andi	a5,a5,255
    3a8c:	0785                	addi	a5,a5,1
    3a8e:	0ff7f713          	andi	a4,a5,255
    3a92:	80e18ea3          	sb	a4,-2019(gp) # 200000a5 <key_msg_front>
D:\WCH\代码\3-PIT%20Demo\obj/../CODE/Key.c:159

    if(key_msg_front >= KEY_MSG_FIFO_SIZE)          //FIFO指针队首溢出则从0开始计数
    3a96:	81d1c783          	lbu	a5,-2019(gp) # 200000a5 <key_msg_front>
    3a9a:	0ff7f713          	andi	a4,a5,255
    3a9e:	47cd                	li	a5,19
    3aa0:	00e7f463          	bgeu	a5,a4,3aa8 <get_key_msg+0x7a>
D:\WCH\代码\3-PIT%20Demo\obj/../CODE/Key.c:161
    {
        key_msg_front = 0;                          //重头开始计数（循环利用数组）
    3aa4:	80018ea3          	sb	zero,-2019(gp) # 200000a5 <key_msg_front>
D:\WCH\代码\3-PIT%20Demo\obj/../CODE/Key.c:164
    }

    tmp = key_msg_rear;
    3aa8:	81e1c783          	lbu	a5,-2018(gp) # 200000a6 <key_msg_rear>
    3aac:	fef407a3          	sb	a5,-17(s0)
D:\WCH\代码\3-PIT%20Demo\obj/../CODE/Key.c:165
    if(key_msg_front == tmp)                        //比较队首和队尾是否一样，一样则表示FIFO已空了
    3ab0:	81d1c783          	lbu	a5,-2019(gp) # 200000a5 <key_msg_front>
    3ab4:	0ff7f793          	andi	a5,a5,255
    3ab8:	fef44703          	lbu	a4,-17(s0)
    3abc:	00f71563          	bne	a4,a5,3ac6 <get_key_msg+0x98>
D:\WCH\代码\3-PIT%20Demo\obj/../CODE/Key.c:167
    {
        key_msg_flag = KEY_MSG_EMPTY;
    3ac0:	80018fa3          	sb	zero,-2017(gp) # 200000a7 <key_msg_flag>
    3ac4:	a021                	j	3acc <get_key_msg+0x9e>
D:\WCH\代码\3-PIT%20Demo\obj/../CODE/Key.c:171
    }
    else
    {
        key_msg_flag = KEY_MSG_NORMAL;
    3ac6:	4705                	li	a4,1
    3ac8:	80e18fa3          	sb	a4,-2017(gp) # 200000a7 <key_msg_flag>
D:\WCH\代码\3-PIT%20Demo\obj/../CODE/Key.c:174
    }

    return 1;
    3acc:	4785                	li	a5,1
D:\WCH\代码\3-PIT%20Demo\obj/../CODE/Key.c:175
}
    3ace:	853e                	mv	a0,a5
    3ad0:	5432                	lw	s0,44(sp)
    3ad2:	6145                	addi	sp,sp,48
    3ad4:	8082                	ret

00003ad6 <key_IRQHandler>:
key_IRQHandler():
D:\WCH\代码\3-PIT%20Demo\obj/../CODE/Key.c:183
 *  @brief      定时检测key状态
 *  @since      v5.0
 *  @note       此函数需要放入 定时中断服务函数里，定时10ms执行一次
 */
void key_IRQHandler(void)
{
    3ad6:	1101                	addi	sp,sp,-32
    3ad8:	ce06                	sw	ra,28(sp)
    3ada:	cc22                	sw	s0,24(sp)
    3adc:	1000                	addi	s0,sp,32
D:\WCH\代码\3-PIT%20Demo\obj/../CODE/Key.c:190
    KEY_e   keynum;
    static uint8 keytime[KEY_MAX];                          //静态数组，保存各数组按下时间

    KEY_MSG_t keymsg;                                       //按键消息

    for(keynum = (KEY_e)0 ; keynum < KEY_MAX; keynum ++)    //每个按键轮询
    3ade:	fe042623          	sw	zero,-20(s0)
    3ae2:	aa39                	j	3c00 <key_IRQHandler+0x12a>
D:\WCH\代码\3-PIT%20Demo\obj/../CODE/Key.c:192
    {
        if(key_get(keynum) == KEY_DOWN)                     //判断按键是否按下
    3ae4:	fec42503          	lw	a0,-20(s0)
    3ae8:	3595                	jal	394c <key_get>
    3aea:	87aa                	mv	a5,a0
    3aec:	e7e1                	bnez	a5,3bb4 <key_IRQHandler+0xde>
D:\WCH\代码\3-PIT%20Demo\obj/../CODE/Key.c:194
        {
            keytime[keynum]++;                              //按下时间累加
    3aee:	82018713          	addi	a4,gp,-2016 # 200000a8 <keytime.6328>
    3af2:	fec42783          	lw	a5,-20(s0)
    3af6:	97ba                	add	a5,a5,a4
    3af8:	0007c783          	lbu	a5,0(a5)
    3afc:	0785                	addi	a5,a5,1
    3afe:	0ff7f713          	andi	a4,a5,255
    3b02:	82018693          	addi	a3,gp,-2016 # 200000a8 <keytime.6328>
    3b06:	fec42783          	lw	a5,-20(s0)
    3b0a:	97b6                	add	a5,a5,a3
    3b0c:	00e78023          	sb	a4,0(a5)
D:\WCH\代码\3-PIT%20Demo\obj/../CODE/Key.c:196

            if(keytime[keynum] <= KEY_DOWN_TIME)            //判断时间是否没超过消抖确认按下时间
    3b10:	82018713          	addi	a4,gp,-2016 # 200000a8 <keytime.6328>
    3b14:	fec42783          	lw	a5,-20(s0)
    3b18:	97ba                	add	a5,a5,a4
    3b1a:	0007c703          	lbu	a4,0(a5)
    3b1e:	4785                	li	a5,1
    3b20:	0ce7f863          	bgeu	a5,a4,3bf0 <key_IRQHandler+0x11a>
D:\WCH\代码\3-PIT%20Demo\obj/../CODE/Key.c:200
            {
                continue;                                   //没达到，则继续等待
            }
            else if(keytime[keynum] == KEY_DOWN_TIME + 1 )  //判断时间是否为消抖确认按下时间
    3b24:	82018713          	addi	a4,gp,-2016 # 200000a8 <keytime.6328>
    3b28:	fec42783          	lw	a5,-20(s0)
    3b2c:	97ba                	add	a5,a5,a4
    3b2e:	0007c703          	lbu	a4,0(a5)
    3b32:	4789                	li	a5,2
    3b34:	00f71e63          	bne	a4,a5,3b50 <key_IRQHandler+0x7a>
D:\WCH\代码\3-PIT%20Demo\obj/../CODE/Key.c:203
            {
                //确认按键按下
                keymsg.key = keynum;
    3b38:	fec42783          	lw	a5,-20(s0)
    3b3c:	fef42223          	sw	a5,-28(s0)
D:\WCH\代码\3-PIT%20Demo\obj/../CODE/Key.c:204
                keymsg.status = KEY_DOWN;
    3b40:	fe042423          	sw	zero,-24(s0)
D:\WCH\代码\3-PIT%20Demo\obj/../CODE/Key.c:205
                send_key_msg(keymsg);                       //把按键值和按键类型发送消息到FIFO
    3b44:	fe442503          	lw	a0,-28(s0)
    3b48:	fe842583          	lw	a1,-24(s0)
    3b4c:	3d25                	jal	3984 <send_key_msg>
    3b4e:	a065                	j	3bf6 <key_IRQHandler+0x120>
D:\WCH\代码\3-PIT%20Demo\obj/../CODE/Key.c:207
            }
            else if(keytime[keynum] <= KEY_HOLD_TIME)       //是否没超过长按HOLD按键确认时间
    3b50:	82018713          	addi	a4,gp,-2016 # 200000a8 <keytime.6328>
    3b54:	fec42783          	lw	a5,-20(s0)
    3b58:	97ba                	add	a5,a5,a4
    3b5a:	0007c703          	lbu	a4,0(a5)
    3b5e:	47a5                	li	a5,9
    3b60:	08e7fa63          	bgeu	a5,a4,3bf4 <key_IRQHandler+0x11e>
D:\WCH\代码\3-PIT%20Demo\obj/../CODE/Key.c:211
            {
                continue;                                   //没超过，则继续等待
            }
            else if(keytime[keynum]  == KEY_HOLD_TIME + 1)  //是否为长按hold确认时间
    3b64:	82018713          	addi	a4,gp,-2016 # 200000a8 <keytime.6328>
    3b68:	fec42783          	lw	a5,-20(s0)
    3b6c:	97ba                	add	a5,a5,a4
    3b6e:	0007c703          	lbu	a4,0(a5)
    3b72:	47a9                	li	a5,10
    3b74:	02f71763          	bne	a4,a5,3ba2 <key_IRQHandler+0xcc>
D:\WCH\代码\3-PIT%20Demo\obj/../CODE/Key.c:214
            {
                //确认长按HOLD
                keymsg.key = keynum;
    3b78:	fec42783          	lw	a5,-20(s0)
    3b7c:	fef42223          	sw	a5,-28(s0)
D:\WCH\代码\3-PIT%20Demo\obj/../CODE/Key.c:215
                keymsg.status = KEY_HOLD;
    3b80:	4789                	li	a5,2
    3b82:	fef42423          	sw	a5,-24(s0)
D:\WCH\代码\3-PIT%20Demo\obj/../CODE/Key.c:216
                send_key_msg(keymsg);                       //发送
    3b86:	fe442503          	lw	a0,-28(s0)
    3b8a:	fe842583          	lw	a1,-24(s0)
    3b8e:	3bdd                	jal	3984 <send_key_msg>
D:\WCH\代码\3-PIT%20Demo\obj/../CODE/Key.c:217
                keytime[keynum] = KEY_DOWN_TIME + 1;
    3b90:	82018713          	addi	a4,gp,-2016 # 200000a8 <keytime.6328>
    3b94:	fec42783          	lw	a5,-20(s0)
    3b98:	97ba                	add	a5,a5,a4
    3b9a:	4709                	li	a4,2
    3b9c:	00e78023          	sb	a4,0(a5)
    3ba0:	a899                	j	3bf6 <key_IRQHandler+0x120>
D:\WCH\代码\3-PIT%20Demo\obj/../CODE/Key.c:221
            }
            else
            {
                keytime[keynum] = KEY_DOWN_TIME + 1;        //继续重复检测 hold 状态
    3ba2:	82018713          	addi	a4,gp,-2016 # 200000a8 <keytime.6328>
    3ba6:	fec42783          	lw	a5,-20(s0)
    3baa:	97ba                	add	a5,a5,a4
    3bac:	4709                	li	a4,2
    3bae:	00e78023          	sb	a4,0(a5)
    3bb2:	a091                	j	3bf6 <key_IRQHandler+0x120>
D:\WCH\代码\3-PIT%20Demo\obj/../CODE/Key.c:226
            }
        }
        else
        {
            if(keytime[keynum] > KEY_DOWN_TIME)             //如果确认过按下按键
    3bb4:	82018713          	addi	a4,gp,-2016 # 200000a8 <keytime.6328>
    3bb8:	fec42783          	lw	a5,-20(s0)
    3bbc:	97ba                	add	a5,a5,a4
    3bbe:	0007c703          	lbu	a4,0(a5)
    3bc2:	4785                	li	a5,1
    3bc4:	00e7fe63          	bgeu	a5,a4,3be0 <key_IRQHandler+0x10a>
D:\WCH\代码\3-PIT%20Demo\obj/../CODE/Key.c:228
            {
                keymsg.key = keynum;
    3bc8:	fec42783          	lw	a5,-20(s0)
    3bcc:	fef42223          	sw	a5,-28(s0)
D:\WCH\代码\3-PIT%20Demo\obj/../CODE/Key.c:229
                keymsg.status = KEY_UP;
    3bd0:	4785                	li	a5,1
    3bd2:	fef42423          	sw	a5,-24(s0)
D:\WCH\代码\3-PIT%20Demo\obj/../CODE/Key.c:230
                send_key_msg(keymsg);                       //发送按键弹起消息
    3bd6:	fe442503          	lw	a0,-28(s0)
    3bda:	fe842583          	lw	a1,-24(s0)
    3bde:	335d                	jal	3984 <send_key_msg>
D:\WCH\代码\3-PIT%20Demo\obj/../CODE/Key.c:233
            }

            keytime[keynum] = 0;                            //时间累计清0
    3be0:	82018713          	addi	a4,gp,-2016 # 200000a8 <keytime.6328>
    3be4:	fec42783          	lw	a5,-20(s0)
    3be8:	97ba                	add	a5,a5,a4
    3bea:	00078023          	sb	zero,0(a5)
    3bee:	a021                	j	3bf6 <key_IRQHandler+0x120>
D:\WCH\代码\3-PIT%20Demo\obj/../CODE/Key.c:198
                continue;                                   //没达到，则继续等待
    3bf0:	0001                	nop
    3bf2:	a011                	j	3bf6 <key_IRQHandler+0x120>
D:\WCH\代码\3-PIT%20Demo\obj/../CODE/Key.c:209
                continue;                                   //没超过，则继续等待
    3bf4:	0001                	nop
D:\WCH\代码\3-PIT%20Demo\obj/../CODE/Key.c:190 (discriminator 2)
    for(keynum = (KEY_e)0 ; keynum < KEY_MAX; keynum ++)    //每个按键轮询
    3bf6:	fec42783          	lw	a5,-20(s0)
    3bfa:	0785                	addi	a5,a5,1
    3bfc:	fef42623          	sw	a5,-20(s0)
D:\WCH\代码\3-PIT%20Demo\obj/../CODE/Key.c:190 (discriminator 1)
    3c00:	fec42703          	lw	a4,-20(s0)
    3c04:	4795                	li	a5,5
    3c06:	ece7ffe3          	bgeu	a5,a4,3ae4 <key_IRQHandler+0xe>
D:\WCH\代码\3-PIT%20Demo\obj/../CODE/Key.c:236
        }
    }
}
    3c0a:	0001                	nop
    3c0c:	40f2                	lw	ra,28(sp)
    3c0e:	4462                	lw	s0,24(sp)
    3c10:	6105                	addi	sp,sp,32
    3c12:	8082                	ret

00003c14 <Menu_player>:
Menu_player():
D:\WCH\代码\3-PIT%20Demo\obj/../CODE/menu.c:9
uint8 cwheels=0;
enum key_sign interact_signal = nosign;
enum page_def interact_page = main_page;

void Menu_player()
{
    3c14:	1141                	addi	sp,sp,-16
    3c16:	c606                	sw	ra,12(sp)
    3c18:	c422                	sw	s0,8(sp)
    3c1a:	0800                	addi	s0,sp,16
D:\WCH\代码\3-PIT%20Demo\obj/../CODE/menu.c:10
    Menu_Getsign();
    3c1c:	2801                	jal	3c2c <Menu_Getsign>
D:\WCH\代码\3-PIT%20Demo\obj/../CODE/menu.c:11
    Menu_Key_Page_Handle();
    3c1e:	28c1                	jal	3cee <Menu_Key_Page_Handle>
D:\WCH\代码\3-PIT%20Demo\obj/../CODE/menu.c:12
    Menu_Display();
    3c20:	2ab9                	jal	3d7e <Menu_Display>
D:\WCH\代码\3-PIT%20Demo\obj/../CODE/menu.c:13
}
    3c22:	0001                	nop
    3c24:	40b2                	lw	ra,12(sp)
    3c26:	4422                	lw	s0,8(sp)
    3c28:	0141                	addi	sp,sp,16
    3c2a:	8082                	ret

00003c2c <Menu_Getsign>:
Menu_Getsign():
D:\WCH\代码\3-PIT%20Demo\obj/../CODE/menu.c:16

enum key_sign Menu_Getsign()  //返回按键消息，更改interact_signal
{
    3c2c:	1101                	addi	sp,sp,-32
    3c2e:	ce06                	sw	ra,28(sp)
    3c30:	cc22                	sw	s0,24(sp)
    3c32:	1000                	addi	s0,sp,32
D:\WCH\代码\3-PIT%20Demo\obj/../CODE/menu.c:17
    enum key_sign signflag = nosign;
    3c34:	fe042623          	sw	zero,-20(s0)
D:\WCH\代码\3-PIT%20Demo\obj/../CODE/menu.c:19
    KEY_MSG_t keymsg;
    uint8 key_flag = 0;
    3c38:	fe0405a3          	sb	zero,-21(s0)
D:\WCH\代码\3-PIT%20Demo\obj/../CODE/menu.c:21

    key_IRQHandler();
    3c3c:	3d69                	jal	3ad6 <key_IRQHandler>
D:\WCH\代码\3-PIT%20Demo\obj/../CODE/menu.c:23

    key_flag=get_key_msg(&keymsg);
    3c3e:	fe040793          	addi	a5,s0,-32
    3c42:	853e                	mv	a0,a5
    3c44:	33ed                	jal	3a2e <get_key_msg>
    3c46:	87aa                	mv	a5,a0
    3c48:	fef405a3          	sb	a5,-21(s0)
D:\WCH\代码\3-PIT%20Demo\obj/../CODE/menu.c:25

    if (key_flag)
    3c4c:	feb44783          	lbu	a5,-21(s0)
    3c50:	c7c1                	beqz	a5,3cd8 <Menu_Getsign+0xac>
D:\WCH\代码\3-PIT%20Demo\obj/../CODE/menu.c:27
    {
        if (keymsg.key == KEY_U && keymsg.status == KEY_DOWN )
    3c52:	fe042783          	lw	a5,-32(s0)
    3c56:	e799                	bnez	a5,3c64 <Menu_Getsign+0x38>
D:\WCH\代码\3-PIT%20Demo\obj/../CODE/menu.c:27 (discriminator 1)
    3c58:	fe442783          	lw	a5,-28(s0)
    3c5c:	e781                	bnez	a5,3c64 <Menu_Getsign+0x38>
D:\WCH\代码\3-PIT%20Demo\obj/../CODE/menu.c:29
        {
            signflag = upsign;
    3c5e:	4785                	li	a5,1
    3c60:	fef42623          	sw	a5,-20(s0)
D:\WCH\代码\3-PIT%20Demo\obj/../CODE/menu.c:31
        }
        if (keymsg.key == KEY_D && keymsg.status == KEY_DOWN )
    3c64:	fe042703          	lw	a4,-32(s0)
    3c68:	4785                	li	a5,1
    3c6a:	00f71863          	bne	a4,a5,3c7a <Menu_Getsign+0x4e>
D:\WCH\代码\3-PIT%20Demo\obj/../CODE/menu.c:31 (discriminator 1)
    3c6e:	fe442783          	lw	a5,-28(s0)
    3c72:	e781                	bnez	a5,3c7a <Menu_Getsign+0x4e>
D:\WCH\代码\3-PIT%20Demo\obj/../CODE/menu.c:33
        {
            signflag = downsign;
    3c74:	4789                	li	a5,2
    3c76:	fef42623          	sw	a5,-20(s0)
D:\WCH\代码\3-PIT%20Demo\obj/../CODE/menu.c:35
        }
        if (keymsg.key == KEY_L && keymsg.status == KEY_DOWN )
    3c7a:	fe042703          	lw	a4,-32(s0)
    3c7e:	4789                	li	a5,2
    3c80:	00f71963          	bne	a4,a5,3c92 <Menu_Getsign+0x66>
D:\WCH\代码\3-PIT%20Demo\obj/../CODE/menu.c:35 (discriminator 1)
    3c84:	fe442783          	lw	a5,-28(s0)
    3c88:	e789                	bnez	a5,3c92 <Menu_Getsign+0x66>
D:\WCH\代码\3-PIT%20Demo\obj/../CODE/menu.c:37
        {
            signflag = leftsign;
    3c8a:	478d                	li	a5,3
    3c8c:	fef42623          	sw	a5,-20(s0)
    3c90:	a0a1                	j	3cd8 <Menu_Getsign+0xac>
D:\WCH\代码\3-PIT%20Demo\obj/../CODE/menu.c:39
        }
        else if (keymsg.key == KEY_R && keymsg.status == KEY_DOWN )
    3c92:	fe042703          	lw	a4,-32(s0)
    3c96:	478d                	li	a5,3
    3c98:	00f71963          	bne	a4,a5,3caa <Menu_Getsign+0x7e>
D:\WCH\代码\3-PIT%20Demo\obj/../CODE/menu.c:39 (discriminator 1)
    3c9c:	fe442783          	lw	a5,-28(s0)
    3ca0:	e789                	bnez	a5,3caa <Menu_Getsign+0x7e>
D:\WCH\代码\3-PIT%20Demo\obj/../CODE/menu.c:41
        {
            signflag = rightsign;
    3ca2:	4791                	li	a5,4
    3ca4:	fef42623          	sw	a5,-20(s0)
    3ca8:	a805                	j	3cd8 <Menu_Getsign+0xac>
D:\WCH\代码\3-PIT%20Demo\obj/../CODE/menu.c:43
        }
        else if (keymsg.key == KEY_P && keymsg.status == KEY_DOWN)
    3caa:	fe042703          	lw	a4,-32(s0)
    3cae:	4791                	li	a5,4
    3cb0:	00f71963          	bne	a4,a5,3cc2 <Menu_Getsign+0x96>
D:\WCH\代码\3-PIT%20Demo\obj/../CODE/menu.c:43 (discriminator 1)
    3cb4:	fe442783          	lw	a5,-28(s0)
    3cb8:	e789                	bnez	a5,3cc2 <Menu_Getsign+0x96>
D:\WCH\代码\3-PIT%20Demo\obj/../CODE/menu.c:45
        {
            signflag = insign;
    3cba:	4795                	li	a5,5
    3cbc:	fef42623          	sw	a5,-20(s0)
    3cc0:	a821                	j	3cd8 <Menu_Getsign+0xac>
D:\WCH\代码\3-PIT%20Demo\obj/../CODE/menu.c:47
        }
        else if (keymsg.key == KEY_1 && keymsg.status == KEY_DOWN)
    3cc2:	fe042703          	lw	a4,-32(s0)
    3cc6:	4795                	li	a5,5
    3cc8:	00f71863          	bne	a4,a5,3cd8 <Menu_Getsign+0xac>
D:\WCH\代码\3-PIT%20Demo\obj/../CODE/menu.c:47 (discriminator 1)
    3ccc:	fe442783          	lw	a5,-28(s0)
    3cd0:	e781                	bnez	a5,3cd8 <Menu_Getsign+0xac>
D:\WCH\代码\3-PIT%20Demo\obj/../CODE/menu.c:49
        {
            signflag = outsign;
    3cd2:	4799                	li	a5,6
    3cd4:	fef42623          	sw	a5,-20(s0)
D:\WCH\代码\3-PIT%20Demo\obj/../CODE/menu.c:52
        }
    }
    interact_signal = signflag;
    3cd8:	fec42703          	lw	a4,-20(s0)
    3cdc:	82e1a423          	sw	a4,-2008(gp) # 200000b0 <interact_signal>
D:\WCH\代码\3-PIT%20Demo\obj/../CODE/menu.c:53
    return signflag;
    3ce0:	fec42783          	lw	a5,-20(s0)
D:\WCH\代码\3-PIT%20Demo\obj/../CODE/menu.c:54
}
    3ce4:	853e                	mv	a0,a5
    3ce6:	40f2                	lw	ra,28(sp)
    3ce8:	4462                	lw	s0,24(sp)
    3cea:	6105                	addi	sp,sp,32
    3cec:	8082                	ret

00003cee <Menu_Key_Page_Handle>:
Menu_Key_Page_Handle():
D:\WCH\代码\3-PIT%20Demo\obj/../CODE/menu.c:57

void Menu_Key_Page_Handle()
{
    3cee:	1141                	addi	sp,sp,-16
    3cf0:	c606                	sw	ra,12(sp)
    3cf2:	c422                	sw	s0,8(sp)
    3cf4:	0800                	addi	s0,sp,16
D:\WCH\代码\3-PIT%20Demo\obj/../CODE/menu.c:58
    if (interact_signal == insign)
    3cf6:	8281a703          	lw	a4,-2008(gp) # 200000b0 <interact_signal>
    3cfa:	4795                	li	a5,5
    3cfc:	00f71c63          	bne	a4,a5,3d14 <Menu_Key_Page_Handle+0x26>
D:\WCH\代码\3-PIT%20Demo\obj/../CODE/menu.c:60
    {
        change_enable = !change_enable;
    3d00:	8261c783          	lbu	a5,-2010(gp) # 200000ae <change_enable>
    3d04:	0017b793          	seqz	a5,a5
    3d08:	0ff7f793          	andi	a5,a5,255
    3d0c:	873e                	mv	a4,a5
    3d0e:	82e18323          	sb	a4,-2010(gp) # 200000ae <change_enable>
D:\WCH\代码\3-PIT%20Demo\obj/../CODE/menu.c:78
        if (interact_page == (enum page_def)(max_page-1))
            interact_page = main_page;
        else    interact_page++;
        change_enable = 0;
    }
}
    3d12:	a08d                	j	3d74 <Menu_Key_Page_Handle+0x86>
D:\WCH\代码\3-PIT%20Demo\obj/../CODE/menu.c:62
    else if (interact_signal == leftsign)
    3d14:	8281a703          	lw	a4,-2008(gp) # 200000b0 <interact_signal>
    3d18:	478d                	li	a5,3
    3d1a:	02f71563          	bne	a4,a5,3d44 <Menu_Key_Page_Handle+0x56>
D:\WCH\代码\3-PIT%20Demo\obj/../CODE/menu.c:64
        oled_fill(0);
    3d1e:	4501                	li	a0,0
    3d20:	dbcfe0ef          	jal	ra,22dc <oled_fill>
D:\WCH\代码\3-PIT%20Demo\obj/../CODE/menu.c:65
        if (interact_page == main_page)
    3d24:	82c1a783          	lw	a5,-2004(gp) # 200000b4 <interact_page>
    3d28:	e789                	bnez	a5,3d32 <Menu_Key_Page_Handle+0x44>
D:\WCH\代码\3-PIT%20Demo\obj/../CODE/menu.c:66
            interact_page = (enum page_def)(max_page-1);
    3d2a:	4709                	li	a4,2
    3d2c:	82e1a623          	sw	a4,-2004(gp) # 200000b4 <interact_page>
    3d30:	a039                	j	3d3e <Menu_Key_Page_Handle+0x50>
D:\WCH\代码\3-PIT%20Demo\obj/../CODE/menu.c:67
        else    interact_page--;
    3d32:	82c1a783          	lw	a5,-2004(gp) # 200000b4 <interact_page>
    3d36:	fff78713          	addi	a4,a5,-1
    3d3a:	82e1a623          	sw	a4,-2004(gp) # 200000b4 <interact_page>
D:\WCH\代码\3-PIT%20Demo\obj/../CODE/menu.c:68
        change_enable = 0;
    3d3e:	82018323          	sb	zero,-2010(gp) # 200000ae <change_enable>
D:\WCH\代码\3-PIT%20Demo\obj/../CODE/menu.c:78
}
    3d42:	a80d                	j	3d74 <Menu_Key_Page_Handle+0x86>
D:\WCH\代码\3-PIT%20Demo\obj/../CODE/menu.c:70
    else if (interact_signal == rightsign)
    3d44:	8281a703          	lw	a4,-2008(gp) # 200000b0 <interact_signal>
    3d48:	4791                	li	a5,4
    3d4a:	02f71563          	bne	a4,a5,3d74 <Menu_Key_Page_Handle+0x86>
D:\WCH\代码\3-PIT%20Demo\obj/../CODE/menu.c:72
        oled_fill(0);
    3d4e:	4501                	li	a0,0
    3d50:	d8cfe0ef          	jal	ra,22dc <oled_fill>
D:\WCH\代码\3-PIT%20Demo\obj/../CODE/menu.c:73
        if (interact_page == (enum page_def)(max_page-1))
    3d54:	82c1a703          	lw	a4,-2004(gp) # 200000b4 <interact_page>
    3d58:	4789                	li	a5,2
    3d5a:	00f71563          	bne	a4,a5,3d64 <Menu_Key_Page_Handle+0x76>
D:\WCH\代码\3-PIT%20Demo\obj/../CODE/menu.c:74
            interact_page = main_page;
    3d5e:	8201a623          	sw	zero,-2004(gp) # 200000b4 <interact_page>
    3d62:	a039                	j	3d70 <Menu_Key_Page_Handle+0x82>
D:\WCH\代码\3-PIT%20Demo\obj/../CODE/menu.c:75
        else    interact_page++;
    3d64:	82c1a783          	lw	a5,-2004(gp) # 200000b4 <interact_page>
    3d68:	00178713          	addi	a4,a5,1
    3d6c:	82e1a623          	sw	a4,-2004(gp) # 200000b4 <interact_page>
D:\WCH\代码\3-PIT%20Demo\obj/../CODE/menu.c:76
        change_enable = 0;
    3d70:	82018323          	sb	zero,-2010(gp) # 200000ae <change_enable>
D:\WCH\代码\3-PIT%20Demo\obj/../CODE/menu.c:78
}
    3d74:	0001                	nop
    3d76:	40b2                	lw	ra,12(sp)
    3d78:	4422                	lw	s0,8(sp)
    3d7a:	0141                	addi	sp,sp,16
    3d7c:	8082                	ret

00003d7e <Menu_Display>:
Menu_Display():
D:\WCH\代码\3-PIT%20Demo\obj/../CODE/menu.c:81

void Menu_Display()
{
    3d7e:	1141                	addi	sp,sp,-16
    3d80:	c606                	sw	ra,12(sp)
    3d82:	c422                	sw	s0,8(sp)
    3d84:	0800                	addi	s0,sp,16
D:\WCH\代码\3-PIT%20Demo\obj/../CODE/menu.c:82
    switch (interact_page)
    3d86:	82c1a783          	lw	a5,-2004(gp) # 200000b4 <interact_page>
    3d8a:	4705                	li	a4,1
    3d8c:	00e78963          	beq	a5,a4,3d9e <Menu_Display+0x20>
    3d90:	c789                	beqz	a5,3d9a <Menu_Display+0x1c>
    3d92:	4709                	li	a4,2
    3d94:	00e78763          	beq	a5,a4,3da2 <Menu_Display+0x24>
    3d98:	a039                	j	3da6 <Menu_Display+0x28>
D:\WCH\代码\3-PIT%20Demo\obj/../CODE/menu.c:84
    {
        case main_page:  Menu_Main();       break;
    3d9a:	2829                	jal	3db4 <Menu_Main>
    3d9c:	a039                	j	3daa <Menu_Display+0x2c>
D:\WCH\代码\3-PIT%20Demo\obj/../CODE/menu.c:85
        case Image_page: Menu_Image();      break;
    3d9e:	2869                	jal	3e38 <Menu_Image>
    3da0:	a029                	j	3daa <Menu_Display+0x2c>
D:\WCH\代码\3-PIT%20Demo\obj/../CODE/menu.c:86
        case Line_page:   Menu_Line();      break;
    3da2:	28c1                	jal	3e72 <Menu_Line>
    3da4:	a019                	j	3daa <Menu_Display+0x2c>
D:\WCH\代码\3-PIT%20Demo\obj/../CODE/menu.c:87
       default :        Menu_Main();        break;
    3da6:	2039                	jal	3db4 <Menu_Main>
    3da8:	0001                	nop
D:\WCH\代码\3-PIT%20Demo\obj/../CODE/menu.c:89
    }
}
    3daa:	0001                	nop
    3dac:	40b2                	lw	ra,12(sp)
    3dae:	4422                	lw	s0,8(sp)
    3db0:	0141                	addi	sp,sp,16
    3db2:	8082                	ret

00003db4 <Menu_Main>:
Menu_Main():
D:\WCH\代码\3-PIT%20Demo\obj/../CODE/menu.c:93


void Menu_Main()
{
    3db4:	1141                	addi	sp,sp,-16
    3db6:	c606                	sw	ra,12(sp)
    3db8:	c422                	sw	s0,8(sp)
    3dba:	0800                	addi	s0,sp,16
D:\WCH\代码\3-PIT%20Demo\obj/../CODE/menu.c:94
    oled_int16(70, 1, 01);
    3dbc:	4605                	li	a2,1
    3dbe:	4585                	li	a1,1
    3dc0:	04600513          	li	a0,70
    3dc4:	e54fe0ef          	jal	ra,2418 <oled_int16>
D:\WCH\代码\3-PIT%20Demo\obj/../CODE/menu.c:95
    if (interact_signal == outsign)
    3dc8:	8281a703          	lw	a4,-2008(gp) # 200000b0 <interact_signal>
    3dcc:	4799                	li	a5,6
    3dce:	00f71663          	bne	a4,a5,3dda <Menu_Main+0x26>
D:\WCH\代码\3-PIT%20Demo\obj/../CODE/menu.c:97
    {
        gpio_toggle(A4);
    3dd2:	4511                	li	a0,4
    3dd4:	8d9fe0ef          	jal	ra,26ac <gpio_toggle>
    3dd8:	a081                	j	3e18 <Menu_Main+0x64>
D:\WCH\代码\3-PIT%20Demo\obj/../CODE/menu.c:99
    }
    else if (interact_signal == downsign)
    3dda:	8281a703          	lw	a4,-2008(gp) # 200000b0 <interact_signal>
    3dde:	4789                	li	a5,2
    3de0:	00f71d63          	bne	a4,a5,3dfa <Menu_Main+0x46>
D:\WCH\代码\3-PIT%20Demo\obj/../CODE/menu.c:101
    {
        flash_a_test--;
    3de4:	200007b7          	lui	a5,0x20000
    3de8:	08c7a783          	lw	a5,140(a5) # 2000008c <flash_a_test>
    3dec:	fff78713          	addi	a4,a5,-1
    3df0:	200007b7          	lui	a5,0x20000
    3df4:	08e7a623          	sw	a4,140(a5) # 2000008c <flash_a_test>
    3df8:	a005                	j	3e18 <Menu_Main+0x64>
D:\WCH\代码\3-PIT%20Demo\obj/../CODE/menu.c:103
    }
    else if (interact_signal == outsign)
    3dfa:	8281a703          	lw	a4,-2008(gp) # 200000b0 <interact_signal>
    3dfe:	4799                	li	a5,6
    3e00:	00f71c63          	bne	a4,a5,3e18 <Menu_Main+0x64>
D:\WCH\代码\3-PIT%20Demo\obj/../CODE/menu.c:108
    {
//        write_buff[Flash_flash_a_test]=flash_a_test;
//        flash_page_program(FLASH_SECTION_15, FLASH_PAGE_0, write_buff, Flash_Max);

        flash_a_test++;
    3e04:	200007b7          	lui	a5,0x20000
    3e08:	08c7a783          	lw	a5,140(a5) # 2000008c <flash_a_test>
    3e0c:	00178713          	addi	a4,a5,1
    3e10:	200007b7          	lui	a5,0x20000
    3e14:	08e7a623          	sw	a4,140(a5) # 2000008c <flash_a_test>
D:\WCH\代码\3-PIT%20Demo\obj/../CODE/menu.c:110
    }
    oled_int16(1,3,flash_a_test);
    3e18:	200007b7          	lui	a5,0x20000
    3e1c:	08c7a783          	lw	a5,140(a5) # 2000008c <flash_a_test>
    3e20:	07c2                	slli	a5,a5,0x10
    3e22:	87c1                	srai	a5,a5,0x10
    3e24:	863e                	mv	a2,a5
    3e26:	458d                	li	a1,3
    3e28:	4505                	li	a0,1
    3e2a:	deefe0ef          	jal	ra,2418 <oled_int16>
D:\WCH\代码\3-PIT%20Demo\obj/../CODE/menu.c:114



}
    3e2e:	0001                	nop
    3e30:	40b2                	lw	ra,12(sp)
    3e32:	4422                	lw	s0,8(sp)
    3e34:	0141                	addi	sp,sp,16
    3e36:	8082                	ret

00003e38 <Menu_Image>:
Menu_Image():
D:\WCH\代码\3-PIT%20Demo\obj/../CODE/menu.c:117

void Menu_Image()
{
    3e38:	1141                	addi	sp,sp,-16
    3e3a:	c606                	sw	ra,12(sp)
    3e3c:	c422                	sw	s0,8(sp)
    3e3e:	0800                	addi	s0,sp,16
D:\WCH\代码\3-PIT%20Demo\obj/../CODE/menu.c:120

        //将接收到的从机数据显示到屏幕上。
        oled_int16(1, 1, slave_a);
    3e40:	85a19783          	lh	a5,-1958(gp) # 200000e2 <slave_a>
    3e44:	863e                	mv	a2,a5
    3e46:	4585                	li	a1,1
    3e48:	4505                	li	a0,1
    3e4a:	dcefe0ef          	jal	ra,2418 <oled_int16>
D:\WCH\代码\3-PIT%20Demo\obj/../CODE/menu.c:121
        oled_int16(1, 2, slave_b);
    3e4e:	84819783          	lh	a5,-1976(gp) # 200000d0 <slave_b>
    3e52:	863e                	mv	a2,a5
    3e54:	4589                	li	a1,2
    3e56:	4505                	li	a0,1
    3e58:	dc0fe0ef          	jal	ra,2418 <oled_int16>
D:\WCH\代码\3-PIT%20Demo\obj/../CODE/menu.c:123

    oled_int16(40, 2, 02);
    3e5c:	4609                	li	a2,2
    3e5e:	4589                	li	a1,2
    3e60:	02800513          	li	a0,40
    3e64:	db4fe0ef          	jal	ra,2418 <oled_int16>
D:\WCH\代码\3-PIT%20Demo\obj/../CODE/menu.c:125

}
    3e68:	0001                	nop
    3e6a:	40b2                	lw	ra,12(sp)
    3e6c:	4422                	lw	s0,8(sp)
    3e6e:	0141                	addi	sp,sp,16
    3e70:	8082                	ret

00003e72 <Menu_Line>:
Menu_Line():
D:\WCH\代码\3-PIT%20Demo\obj/../CODE/menu.c:127
void Menu_Line()
{
    3e72:	1141                	addi	sp,sp,-16
    3e74:	c606                	sw	ra,12(sp)
    3e76:	c422                	sw	s0,8(sp)
    3e78:	0800                	addi	s0,sp,16
D:\WCH\代码\3-PIT%20Demo\obj/../CODE/menu.c:128
    oled_int16(1, 1, 03);
    3e7a:	460d                	li	a2,3
    3e7c:	4585                	li	a1,1
    3e7e:	4505                	li	a0,1
    3e80:	d98fe0ef          	jal	ra,2418 <oled_int16>
D:\WCH\代码\3-PIT%20Demo\obj/../CODE/menu.c:129
}
    3e84:	0001                	nop
    3e86:	40b2                	lw	ra,12(sp)
    3e88:	4422                	lw	s0,8(sp)
    3e8a:	0141                	addi	sp,sp,16
    3e8c:	8082                	ret

00003e8e <__assert_func>:
__assert_func():
    3e8e:	80818793          	addi	a5,gp,-2040 # 20000090 <_impure_ptr>
    3e92:	439c                	lw	a5,0(a5)
    3e94:	1141                	addi	sp,sp,-16
    3e96:	8832                	mv	a6,a2
    3e98:	c606                	sw	ra,12(sp)
    3e9a:	88aa                	mv	a7,a0
    3e9c:	872e                	mv	a4,a1
    3e9e:	47c8                	lw	a0,12(a5)
    3ea0:	8636                	mv	a2,a3
    3ea2:	00001797          	auipc	a5,0x1
    3ea6:	53a78793          	addi	a5,a5,1338 # 53dc <UARTN+0x10>
    3eaa:	00081763          	bnez	a6,3eb8 <__assert_func+0x2a>
    3eae:	00001797          	auipc	a5,0x1
    3eb2:	53a78793          	addi	a5,a5,1338 # 53e8 <UARTN+0x1c>
    3eb6:	883e                	mv	a6,a5
    3eb8:	86c6                	mv	a3,a7
    3eba:	00001597          	auipc	a1,0x1
    3ebe:	53258593          	addi	a1,a1,1330 # 53ec <UARTN+0x20>
    3ec2:	2019                	jal	3ec8 <fiprintf>
    3ec4:	0af000ef          	jal	ra,4772 <abort>

00003ec8 <fiprintf>:
fprintf():
    3ec8:	7139                	addi	sp,sp,-64
    3eca:	d432                	sw	a2,40(sp)
    3ecc:	d636                	sw	a3,44(sp)
    3ece:	da3e                	sw	a5,52(sp)
    3ed0:	d83a                	sw	a4,48(sp)
    3ed2:	dc42                	sw	a6,56(sp)
    3ed4:	de46                	sw	a7,60(sp)
    3ed6:	80818793          	addi	a5,gp,-2040 # 20000090 <_impure_ptr>
    3eda:	862e                	mv	a2,a1
    3edc:	85aa                	mv	a1,a0
    3ede:	4388                	lw	a0,0(a5)
    3ee0:	1034                	addi	a3,sp,40
    3ee2:	ce06                	sw	ra,28(sp)
    3ee4:	c636                	sw	a3,12(sp)
    3ee6:	288d                	jal	3f58 <_vfiprintf_r>
    3ee8:	40f2                	lw	ra,28(sp)
    3eea:	6121                	addi	sp,sp,64
    3eec:	8082                	ret

00003eee <__sfputc_r>:
__sfputc_r():
    3eee:	461c                	lw	a5,8(a2)
    3ef0:	17fd                	addi	a5,a5,-1
    3ef2:	c61c                	sw	a5,8(a2)
    3ef4:	0007d963          	bgez	a5,3f06 <__sfputc_r+0x18>
    3ef8:	4e18                	lw	a4,24(a2)
    3efa:	00e7c563          	blt	a5,a4,3f04 <__sfputc_r+0x16>
    3efe:	47a9                	li	a5,10
    3f00:	00f59363          	bne	a1,a5,3f06 <__sfputc_r+0x18>
    3f04:	a54d                	j	45a6 <__swbuf_r>
    3f06:	421c                	lw	a5,0(a2)
    3f08:	852e                	mv	a0,a1
    3f0a:	00178713          	addi	a4,a5,1
    3f0e:	c218                	sw	a4,0(a2)
    3f10:	00b78023          	sb	a1,0(a5)
    3f14:	8082                	ret

00003f16 <__sfputs_r>:
__sfputs_r():
    3f16:	1101                	addi	sp,sp,-32
    3f18:	cc22                	sw	s0,24(sp)
    3f1a:	ca26                	sw	s1,20(sp)
    3f1c:	c84a                	sw	s2,16(sp)
    3f1e:	c64e                	sw	s3,12(sp)
    3f20:	c452                	sw	s4,8(sp)
    3f22:	ce06                	sw	ra,28(sp)
    3f24:	892a                	mv	s2,a0
    3f26:	89ae                	mv	s3,a1
    3f28:	8432                	mv	s0,a2
    3f2a:	00d604b3          	add	s1,a2,a3
    3f2e:	5a7d                	li	s4,-1
    3f30:	00941463          	bne	s0,s1,3f38 <__sfputs_r+0x22>
    3f34:	4501                	li	a0,0
    3f36:	a809                	j	3f48 <__sfputs_r+0x32>
    3f38:	00044583          	lbu	a1,0(s0)
    3f3c:	864e                	mv	a2,s3
    3f3e:	854a                	mv	a0,s2
    3f40:	377d                	jal	3eee <__sfputc_r>
    3f42:	0405                	addi	s0,s0,1
    3f44:	ff4516e3          	bne	a0,s4,3f30 <__sfputs_r+0x1a>
    3f48:	40f2                	lw	ra,28(sp)
    3f4a:	4462                	lw	s0,24(sp)
    3f4c:	44d2                	lw	s1,20(sp)
    3f4e:	4942                	lw	s2,16(sp)
    3f50:	49b2                	lw	s3,12(sp)
    3f52:	4a22                	lw	s4,8(sp)
    3f54:	6105                	addi	sp,sp,32
    3f56:	8082                	ret

00003f58 <_vfiprintf_r>:
_vfiprintf_r():
    3f58:	7135                	addi	sp,sp,-160
    3f5a:	cd22                	sw	s0,152(sp)
    3f5c:	cb26                	sw	s1,148(sp)
    3f5e:	c94a                	sw	s2,144(sp)
    3f60:	c74e                	sw	s3,140(sp)
    3f62:	cf06                	sw	ra,156(sp)
    3f64:	c552                	sw	s4,136(sp)
    3f66:	c356                	sw	s5,132(sp)
    3f68:	c15a                	sw	s6,128(sp)
    3f6a:	dede                	sw	s7,124(sp)
    3f6c:	dce2                	sw	s8,120(sp)
    3f6e:	dae6                	sw	s9,116(sp)
    3f70:	89aa                	mv	s3,a0
    3f72:	84ae                	mv	s1,a1
    3f74:	8932                	mv	s2,a2
    3f76:	8436                	mv	s0,a3
    3f78:	c509                	beqz	a0,3f82 <_vfiprintf_r+0x2a>
    3f7a:	4d1c                	lw	a5,24(a0)
    3f7c:	e399                	bnez	a5,3f82 <_vfiprintf_r+0x2a>
    3f7e:	25f000ef          	jal	ra,49dc <__sinit>
    3f82:	00001797          	auipc	a5,0x1
    3f86:	4f678793          	addi	a5,a5,1270 # 5478 <__sf_fake_stdin>
    3f8a:	0cf49c63          	bne	s1,a5,4062 <_vfiprintf_r+0x10a>
    3f8e:	0049a483          	lw	s1,4(s3)
    3f92:	00c4d783          	lhu	a5,12(s1)
    3f96:	8ba1                	andi	a5,a5,8
    3f98:	c7fd                	beqz	a5,4086 <_vfiprintf_r+0x12e>
    3f9a:	489c                	lw	a5,16(s1)
    3f9c:	c7ed                	beqz	a5,4086 <_vfiprintf_r+0x12e>
    3f9e:	02000793          	li	a5,32
    3fa2:	02f104a3          	sb	a5,41(sp)
    3fa6:	03000793          	li	a5,48
    3faa:	d202                	sw	zero,36(sp)
    3fac:	02f10523          	sb	a5,42(sp)
    3fb0:	c622                	sw	s0,12(sp)
    3fb2:	02500b93          	li	s7,37
    3fb6:	00001a97          	auipc	s5,0x1
    3fba:	466a8a93          	addi	s5,s5,1126 # 541c <UARTN+0x50>
    3fbe:	4c05                	li	s8,1
    3fc0:	4b29                	li	s6,10
    3fc2:	844a                	mv	s0,s2
    3fc4:	00044783          	lbu	a5,0(s0)
    3fc8:	c399                	beqz	a5,3fce <_vfiprintf_r+0x76>
    3fca:	0f779063          	bne	a5,s7,40aa <_vfiprintf_r+0x152>
    3fce:	41240cb3          	sub	s9,s0,s2
    3fd2:	000c8d63          	beqz	s9,3fec <_vfiprintf_r+0x94>
    3fd6:	86e6                	mv	a3,s9
    3fd8:	864a                	mv	a2,s2
    3fda:	85a6                	mv	a1,s1
    3fdc:	854e                	mv	a0,s3
    3fde:	3f25                	jal	3f16 <__sfputs_r>
    3fe0:	57fd                	li	a5,-1
    3fe2:	1ef50863          	beq	a0,a5,41d2 <_vfiprintf_r+0x27a>
    3fe6:	5692                	lw	a3,36(sp)
    3fe8:	96e6                	add	a3,a3,s9
    3fea:	d236                	sw	a3,36(sp)
    3fec:	00044783          	lbu	a5,0(s0)
    3ff0:	1e078163          	beqz	a5,41d2 <_vfiprintf_r+0x27a>
    3ff4:	57fd                	li	a5,-1
    3ff6:	00140913          	addi	s2,s0,1
    3ffa:	c802                	sw	zero,16(sp)
    3ffc:	ce02                	sw	zero,28(sp)
    3ffe:	ca3e                	sw	a5,20(sp)
    4000:	cc02                	sw	zero,24(sp)
    4002:	040109a3          	sb	zero,83(sp)
    4006:	d482                	sw	zero,104(sp)
    4008:	00094583          	lbu	a1,0(s2)
    400c:	4615                	li	a2,5
    400e:	8556                	mv	a0,s5
    4010:	431000ef          	jal	ra,4c40 <memchr>
    4014:	00190413          	addi	s0,s2,1
    4018:	47c2                	lw	a5,16(sp)
    401a:	e951                	bnez	a0,40ae <_vfiprintf_r+0x156>
    401c:	0107f713          	andi	a4,a5,16
    4020:	c709                	beqz	a4,402a <_vfiprintf_r+0xd2>
    4022:	02000713          	li	a4,32
    4026:	04e109a3          	sb	a4,83(sp)
    402a:	0087f713          	andi	a4,a5,8
    402e:	c709                	beqz	a4,4038 <_vfiprintf_r+0xe0>
    4030:	02b00713          	li	a4,43
    4034:	04e109a3          	sb	a4,83(sp)
    4038:	00094683          	lbu	a3,0(s2)
    403c:	02a00713          	li	a4,42
    4040:	06e68f63          	beq	a3,a4,40be <_vfiprintf_r+0x166>
    4044:	47f2                	lw	a5,28(sp)
    4046:	844a                	mv	s0,s2
    4048:	4681                	li	a3,0
    404a:	4625                	li	a2,9
    404c:	00044703          	lbu	a4,0(s0)
    4050:	00140593          	addi	a1,s0,1
    4054:	fd070713          	addi	a4,a4,-48 # 9effd0 <_data_lma+0x9eab18>
    4058:	0ae67863          	bgeu	a2,a4,4108 <_vfiprintf_r+0x1b0>
    405c:	caad                	beqz	a3,40ce <_vfiprintf_r+0x176>
    405e:	ce3e                	sw	a5,28(sp)
    4060:	a0bd                	j	40ce <_vfiprintf_r+0x176>
    4062:	00001797          	auipc	a5,0x1
    4066:	43678793          	addi	a5,a5,1078 # 5498 <__sf_fake_stdout>
    406a:	00f49563          	bne	s1,a5,4074 <_vfiprintf_r+0x11c>
    406e:	0089a483          	lw	s1,8(s3)
    4072:	b705                	j	3f92 <_vfiprintf_r+0x3a>
    4074:	00001797          	auipc	a5,0x1
    4078:	3e478793          	addi	a5,a5,996 # 5458 <__sf_fake_stderr>
    407c:	f0f49be3          	bne	s1,a5,3f92 <_vfiprintf_r+0x3a>
    4080:	00c9a483          	lw	s1,12(s3)
    4084:	b739                	j	3f92 <_vfiprintf_r+0x3a>
    4086:	85a6                	mv	a1,s1
    4088:	854e                	mv	a0,s3
    408a:	2bf1                	jal	4666 <__swsetup_r>
    408c:	d909                	beqz	a0,3f9e <_vfiprintf_r+0x46>
    408e:	557d                	li	a0,-1
    4090:	40fa                	lw	ra,156(sp)
    4092:	446a                	lw	s0,152(sp)
    4094:	44da                	lw	s1,148(sp)
    4096:	494a                	lw	s2,144(sp)
    4098:	49ba                	lw	s3,140(sp)
    409a:	4a2a                	lw	s4,136(sp)
    409c:	4a9a                	lw	s5,132(sp)
    409e:	4b0a                	lw	s6,128(sp)
    40a0:	5bf6                	lw	s7,124(sp)
    40a2:	5c66                	lw	s8,120(sp)
    40a4:	5cd6                	lw	s9,116(sp)
    40a6:	610d                	addi	sp,sp,160
    40a8:	8082                	ret
    40aa:	0405                	addi	s0,s0,1
    40ac:	bf21                	j	3fc4 <_vfiprintf_r+0x6c>
    40ae:	41550533          	sub	a0,a0,s5
    40b2:	00ac1533          	sll	a0,s8,a0
    40b6:	8fc9                	or	a5,a5,a0
    40b8:	c83e                	sw	a5,16(sp)
    40ba:	8922                	mv	s2,s0
    40bc:	b7b1                	j	4008 <_vfiprintf_r+0xb0>
    40be:	4732                	lw	a4,12(sp)
    40c0:	00470693          	addi	a3,a4,4
    40c4:	4318                	lw	a4,0(a4)
    40c6:	c636                	sw	a3,12(sp)
    40c8:	02074963          	bltz	a4,40fa <_vfiprintf_r+0x1a2>
    40cc:	ce3a                	sw	a4,28(sp)
    40ce:	00044703          	lbu	a4,0(s0)
    40d2:	02e00793          	li	a5,46
    40d6:	04f71f63          	bne	a4,a5,4134 <_vfiprintf_r+0x1dc>
    40da:	00144703          	lbu	a4,1(s0)
    40de:	02a00793          	li	a5,42
    40e2:	02f71b63          	bne	a4,a5,4118 <_vfiprintf_r+0x1c0>
    40e6:	47b2                	lw	a5,12(sp)
    40e8:	0409                	addi	s0,s0,2
    40ea:	00478713          	addi	a4,a5,4
    40ee:	439c                	lw	a5,0(a5)
    40f0:	c63a                	sw	a4,12(sp)
    40f2:	0207c163          	bltz	a5,4114 <_vfiprintf_r+0x1bc>
    40f6:	ca3e                	sw	a5,20(sp)
    40f8:	a835                	j	4134 <_vfiprintf_r+0x1dc>
    40fa:	40e00733          	neg	a4,a4
    40fe:	0027e793          	ori	a5,a5,2
    4102:	ce3a                	sw	a4,28(sp)
    4104:	c83e                	sw	a5,16(sp)
    4106:	b7e1                	j	40ce <_vfiprintf_r+0x176>
    4108:	036787b3          	mul	a5,a5,s6
    410c:	4685                	li	a3,1
    410e:	842e                	mv	s0,a1
    4110:	97ba                	add	a5,a5,a4
    4112:	bf2d                	j	404c <_vfiprintf_r+0xf4>
    4114:	57fd                	li	a5,-1
    4116:	b7c5                	j	40f6 <_vfiprintf_r+0x19e>
    4118:	0405                	addi	s0,s0,1
    411a:	ca02                	sw	zero,20(sp)
    411c:	4681                	li	a3,0
    411e:	4781                	li	a5,0
    4120:	4625                	li	a2,9
    4122:	00044703          	lbu	a4,0(s0)
    4126:	00140593          	addi	a1,s0,1
    412a:	fd070713          	addi	a4,a4,-48
    412e:	06e67863          	bgeu	a2,a4,419e <_vfiprintf_r+0x246>
    4132:	f2f1                	bnez	a3,40f6 <_vfiprintf_r+0x19e>
    4134:	00044583          	lbu	a1,0(s0)
    4138:	460d                	li	a2,3
    413a:	00001517          	auipc	a0,0x1
    413e:	2ea50513          	addi	a0,a0,746 # 5424 <UARTN+0x58>
    4142:	2ff000ef          	jal	ra,4c40 <memchr>
    4146:	cd11                	beqz	a0,4162 <_vfiprintf_r+0x20a>
    4148:	00001797          	auipc	a5,0x1
    414c:	2dc78793          	addi	a5,a5,732 # 5424 <UARTN+0x58>
    4150:	8d1d                	sub	a0,a0,a5
    4152:	04000793          	li	a5,64
    4156:	00a797b3          	sll	a5,a5,a0
    415a:	4542                	lw	a0,16(sp)
    415c:	0405                	addi	s0,s0,1
    415e:	8d5d                	or	a0,a0,a5
    4160:	c82a                	sw	a0,16(sp)
    4162:	00044583          	lbu	a1,0(s0)
    4166:	4619                	li	a2,6
    4168:	00001517          	auipc	a0,0x1
    416c:	2c050513          	addi	a0,a0,704 # 5428 <UARTN+0x5c>
    4170:	00140913          	addi	s2,s0,1
    4174:	02b10423          	sb	a1,40(sp)
    4178:	2c9000ef          	jal	ra,4c40 <memchr>
    417c:	c13d                	beqz	a0,41e2 <_vfiprintf_r+0x28a>
    417e:	ffffc797          	auipc	a5,0xffffc
    4182:	e8278793          	addi	a5,a5,-382 # 0 <_sinit>
    4186:	e795                	bnez	a5,41b2 <_vfiprintf_r+0x25a>
    4188:	4742                	lw	a4,16(sp)
    418a:	47b2                	lw	a5,12(sp)
    418c:	10077713          	andi	a4,a4,256
    4190:	cf09                	beqz	a4,41aa <_vfiprintf_r+0x252>
    4192:	0791                	addi	a5,a5,4
    4194:	c63e                	sw	a5,12(sp)
    4196:	5792                	lw	a5,36(sp)
    4198:	97d2                	add	a5,a5,s4
    419a:	d23e                	sw	a5,36(sp)
    419c:	b51d                	j	3fc2 <_vfiprintf_r+0x6a>
    419e:	036787b3          	mul	a5,a5,s6
    41a2:	4685                	li	a3,1
    41a4:	842e                	mv	s0,a1
    41a6:	97ba                	add	a5,a5,a4
    41a8:	bfad                	j	4122 <_vfiprintf_r+0x1ca>
    41aa:	079d                	addi	a5,a5,7
    41ac:	9be1                	andi	a5,a5,-8
    41ae:	07a1                	addi	a5,a5,8
    41b0:	b7d5                	j	4194 <_vfiprintf_r+0x23c>
    41b2:	0078                	addi	a4,sp,12
    41b4:	00000697          	auipc	a3,0x0
    41b8:	d6268693          	addi	a3,a3,-670 # 3f16 <__sfputs_r>
    41bc:	8626                	mv	a2,s1
    41be:	080c                	addi	a1,sp,16
    41c0:	854e                	mv	a0,s3
    41c2:	00000097          	auipc	ra,0x0
    41c6:	000000e7          	jalr	zero # 0 <_sinit>
    41ca:	57fd                	li	a5,-1
    41cc:	8a2a                	mv	s4,a0
    41ce:	fcf514e3          	bne	a0,a5,4196 <_vfiprintf_r+0x23e>
    41d2:	00c4d783          	lhu	a5,12(s1)
    41d6:	0407f793          	andi	a5,a5,64
    41da:	ea079ae3          	bnez	a5,408e <_vfiprintf_r+0x136>
    41de:	5512                	lw	a0,36(sp)
    41e0:	bd45                	j	4090 <_vfiprintf_r+0x138>
    41e2:	0078                	addi	a4,sp,12
    41e4:	00000697          	auipc	a3,0x0
    41e8:	d3268693          	addi	a3,a3,-718 # 3f16 <__sfputs_r>
    41ec:	8626                	mv	a2,s1
    41ee:	080c                	addi	a1,sp,16
    41f0:	854e                	mv	a0,s3
    41f2:	2a01                	jal	4302 <_printf_i>
    41f4:	bfd9                	j	41ca <_vfiprintf_r+0x272>

000041f6 <_printf_common>:
_printf_common():
    41f6:	7179                	addi	sp,sp,-48
    41f8:	ca56                	sw	s5,20(sp)
    41fa:	499c                	lw	a5,16(a1)
    41fc:	8aba                	mv	s5,a4
    41fe:	4598                	lw	a4,8(a1)
    4200:	d422                	sw	s0,40(sp)
    4202:	d226                	sw	s1,36(sp)
    4204:	ce4e                	sw	s3,28(sp)
    4206:	cc52                	sw	s4,24(sp)
    4208:	d606                	sw	ra,44(sp)
    420a:	d04a                	sw	s2,32(sp)
    420c:	c85a                	sw	s6,16(sp)
    420e:	c65e                	sw	s7,12(sp)
    4210:	89aa                	mv	s3,a0
    4212:	842e                	mv	s0,a1
    4214:	84b2                	mv	s1,a2
    4216:	8a36                	mv	s4,a3
    4218:	00e7d363          	bge	a5,a4,421e <_printf_common+0x28>
    421c:	87ba                	mv	a5,a4
    421e:	c09c                	sw	a5,0(s1)
    4220:	04344703          	lbu	a4,67(s0)
    4224:	c319                	beqz	a4,422a <_printf_common+0x34>
    4226:	0785                	addi	a5,a5,1
    4228:	c09c                	sw	a5,0(s1)
    422a:	401c                	lw	a5,0(s0)
    422c:	0207f793          	andi	a5,a5,32
    4230:	c781                	beqz	a5,4238 <_printf_common+0x42>
    4232:	409c                	lw	a5,0(s1)
    4234:	0789                	addi	a5,a5,2
    4236:	c09c                	sw	a5,0(s1)
    4238:	00042903          	lw	s2,0(s0)
    423c:	00697913          	andi	s2,s2,6
    4240:	00091a63          	bnez	s2,4254 <_printf_common+0x5e>
    4244:	01940b13          	addi	s6,s0,25
    4248:	5bfd                	li	s7,-1
    424a:	445c                	lw	a5,12(s0)
    424c:	4098                	lw	a4,0(s1)
    424e:	8f99                	sub	a5,a5,a4
    4250:	04f94c63          	blt	s2,a5,42a8 <_printf_common+0xb2>
    4254:	401c                	lw	a5,0(s0)
    4256:	04344683          	lbu	a3,67(s0)
    425a:	0207f793          	andi	a5,a5,32
    425e:	00d036b3          	snez	a3,a3
    4262:	eba5                	bnez	a5,42d2 <_printf_common+0xdc>
    4264:	04340613          	addi	a2,s0,67
    4268:	85d2                	mv	a1,s4
    426a:	854e                	mv	a0,s3
    426c:	9a82                	jalr	s5
    426e:	57fd                	li	a5,-1
    4270:	04f50363          	beq	a0,a5,42b6 <_printf_common+0xc0>
    4274:	401c                	lw	a5,0(s0)
    4276:	4611                	li	a2,4
    4278:	4098                	lw	a4,0(s1)
    427a:	8b99                	andi	a5,a5,6
    427c:	4454                	lw	a3,12(s0)
    427e:	4481                	li	s1,0
    4280:	00c79763          	bne	a5,a2,428e <_printf_common+0x98>
    4284:	40e684b3          	sub	s1,a3,a4
    4288:	0004d363          	bgez	s1,428e <_printf_common+0x98>
    428c:	4481                	li	s1,0
    428e:	441c                	lw	a5,8(s0)
    4290:	4818                	lw	a4,16(s0)
    4292:	00f75463          	bge	a4,a5,429a <_printf_common+0xa4>
    4296:	8f99                	sub	a5,a5,a4
    4298:	94be                	add	s1,s1,a5
    429a:	4901                	li	s2,0
    429c:	0469                	addi	s0,s0,26
    429e:	5b7d                	li	s6,-1
    42a0:	05249863          	bne	s1,s2,42f0 <_printf_common+0xfa>
    42a4:	4501                	li	a0,0
    42a6:	a809                	j	42b8 <_printf_common+0xc2>
    42a8:	4685                	li	a3,1
    42aa:	865a                	mv	a2,s6
    42ac:	85d2                	mv	a1,s4
    42ae:	854e                	mv	a0,s3
    42b0:	9a82                	jalr	s5
    42b2:	01751e63          	bne	a0,s7,42ce <_printf_common+0xd8>
    42b6:	557d                	li	a0,-1
    42b8:	50b2                	lw	ra,44(sp)
    42ba:	5422                	lw	s0,40(sp)
    42bc:	5492                	lw	s1,36(sp)
    42be:	5902                	lw	s2,32(sp)
    42c0:	49f2                	lw	s3,28(sp)
    42c2:	4a62                	lw	s4,24(sp)
    42c4:	4ad2                	lw	s5,20(sp)
    42c6:	4b42                	lw	s6,16(sp)
    42c8:	4bb2                	lw	s7,12(sp)
    42ca:	6145                	addi	sp,sp,48
    42cc:	8082                	ret
    42ce:	0905                	addi	s2,s2,1
    42d0:	bfad                	j	424a <_printf_common+0x54>
    42d2:	00d40733          	add	a4,s0,a3
    42d6:	03000613          	li	a2,48
    42da:	04c701a3          	sb	a2,67(a4)
    42de:	04544703          	lbu	a4,69(s0)
    42e2:	00168793          	addi	a5,a3,1
    42e6:	97a2                	add	a5,a5,s0
    42e8:	0689                	addi	a3,a3,2
    42ea:	04e781a3          	sb	a4,67(a5)
    42ee:	bf9d                	j	4264 <_printf_common+0x6e>
    42f0:	4685                	li	a3,1
    42f2:	8622                	mv	a2,s0
    42f4:	85d2                	mv	a1,s4
    42f6:	854e                	mv	a0,s3
    42f8:	9a82                	jalr	s5
    42fa:	fb650ee3          	beq	a0,s6,42b6 <_printf_common+0xc0>
    42fe:	0905                	addi	s2,s2,1
    4300:	b745                	j	42a0 <_printf_common+0xaa>

00004302 <_printf_i>:
_printf_i():
    4302:	7179                	addi	sp,sp,-48
    4304:	d422                	sw	s0,40(sp)
    4306:	d226                	sw	s1,36(sp)
    4308:	d04a                	sw	s2,32(sp)
    430a:	ce4e                	sw	s3,28(sp)
    430c:	d606                	sw	ra,44(sp)
    430e:	cc52                	sw	s4,24(sp)
    4310:	ca56                	sw	s5,20(sp)
    4312:	c85a                	sw	s6,16(sp)
    4314:	89b6                	mv	s3,a3
    4316:	0185c683          	lbu	a3,24(a1)
    431a:	06e00793          	li	a5,110
    431e:	8932                	mv	s2,a2
    4320:	84aa                	mv	s1,a0
    4322:	842e                	mv	s0,a1
    4324:	04358613          	addi	a2,a1,67
    4328:	1ef68163          	beq	a3,a5,450a <_printf_i+0x208>
    432c:	06d7e263          	bltu	a5,a3,4390 <_printf_i+0x8e>
    4330:	06300793          	li	a5,99
    4334:	0af68263          	beq	a3,a5,43d8 <_printf_i+0xd6>
    4338:	00d7ed63          	bltu	a5,a3,4352 <_printf_i+0x50>
    433c:	1e068b63          	beqz	a3,4532 <_printf_i+0x230>
    4340:	05800793          	li	a5,88
    4344:	16f68763          	beq	a3,a5,44b2 <_printf_i+0x1b0>
    4348:	04240a93          	addi	s5,s0,66
    434c:	04d40123          	sb	a3,66(s0)
    4350:	a869                	j	43ea <_printf_i+0xe8>
    4352:	06400793          	li	a5,100
    4356:	00f68663          	beq	a3,a5,4362 <_printf_i+0x60>
    435a:	06900793          	li	a5,105
    435e:	fef695e3          	bne	a3,a5,4348 <_printf_i+0x46>
    4362:	401c                	lw	a5,0(s0)
    4364:	4308                	lw	a0,0(a4)
    4366:	0807f693          	andi	a3,a5,128
    436a:	00450593          	addi	a1,a0,4
    436e:	c2c1                	beqz	a3,43ee <_printf_i+0xec>
    4370:	411c                	lw	a5,0(a0)
    4372:	c30c                	sw	a1,0(a4)
    4374:	0007d863          	bgez	a5,4384 <_printf_i+0x82>
    4378:	02d00713          	li	a4,45
    437c:	40f007b3          	neg	a5,a5
    4380:	04e401a3          	sb	a4,67(s0)
    4384:	00001697          	auipc	a3,0x1
    4388:	0ac68693          	addi	a3,a3,172 # 5430 <UARTN+0x64>
    438c:	4729                	li	a4,10
    438e:	a065                	j	4436 <_printf_i+0x134>
    4390:	07300793          	li	a5,115
    4394:	1af68363          	beq	a3,a5,453a <_printf_i+0x238>
    4398:	00d7ef63          	bltu	a5,a3,43b6 <_printf_i+0xb4>
    439c:	06f00793          	li	a5,111
    43a0:	04f68f63          	beq	a3,a5,43fe <_printf_i+0xfc>
    43a4:	07000793          	li	a5,112
    43a8:	faf690e3          	bne	a3,a5,4348 <_printf_i+0x46>
    43ac:	419c                	lw	a5,0(a1)
    43ae:	0207e793          	ori	a5,a5,32
    43b2:	c19c                	sw	a5,0(a1)
    43b4:	a809                	j	43c6 <_printf_i+0xc4>
    43b6:	07500793          	li	a5,117
    43ba:	04f68263          	beq	a3,a5,43fe <_printf_i+0xfc>
    43be:	07800793          	li	a5,120
    43c2:	f8f693e3          	bne	a3,a5,4348 <_printf_i+0x46>
    43c6:	07800793          	li	a5,120
    43ca:	04f402a3          	sb	a5,69(s0)
    43ce:	00001697          	auipc	a3,0x1
    43d2:	07668693          	addi	a3,a3,118 # 5444 <UARTN+0x78>
    43d6:	a0e5                	j	44be <_printf_i+0x1bc>
    43d8:	431c                	lw	a5,0(a4)
    43da:	04258a93          	addi	s5,a1,66
    43de:	00478693          	addi	a3,a5,4
    43e2:	439c                	lw	a5,0(a5)
    43e4:	c314                	sw	a3,0(a4)
    43e6:	04f58123          	sb	a5,66(a1)
    43ea:	4785                	li	a5,1
    43ec:	a2b5                	j	4558 <_printf_i+0x256>
    43ee:	0407f693          	andi	a3,a5,64
    43f2:	411c                	lw	a5,0(a0)
    43f4:	c30c                	sw	a1,0(a4)
    43f6:	debd                	beqz	a3,4374 <_printf_i+0x72>
    43f8:	07c2                	slli	a5,a5,0x10
    43fa:	87c1                	srai	a5,a5,0x10
    43fc:	bfa5                	j	4374 <_printf_i+0x72>
    43fe:	400c                	lw	a1,0(s0)
    4400:	431c                	lw	a5,0(a4)
    4402:	0805f813          	andi	a6,a1,128
    4406:	00478513          	addi	a0,a5,4
    440a:	00080563          	beqz	a6,4414 <_printf_i+0x112>
    440e:	c308                	sw	a0,0(a4)
    4410:	439c                	lw	a5,0(a5)
    4412:	a039                	j	4420 <_printf_i+0x11e>
    4414:	0405f593          	andi	a1,a1,64
    4418:	c308                	sw	a0,0(a4)
    441a:	d9fd                	beqz	a1,4410 <_printf_i+0x10e>
    441c:	0007d783          	lhu	a5,0(a5)
    4420:	06f00713          	li	a4,111
    4424:	0ce68b63          	beq	a3,a4,44fa <_printf_i+0x1f8>
    4428:	00001697          	auipc	a3,0x1
    442c:	00868693          	addi	a3,a3,8 # 5430 <UARTN+0x64>
    4430:	4729                	li	a4,10
    4432:	040401a3          	sb	zero,67(s0)
    4436:	404c                	lw	a1,4(s0)
    4438:	c40c                	sw	a1,8(s0)
    443a:	0005c563          	bltz	a1,4444 <_printf_i+0x142>
    443e:	4008                	lw	a0,0(s0)
    4440:	996d                	andi	a0,a0,-5
    4442:	c008                	sw	a0,0(s0)
    4444:	e399                	bnez	a5,444a <_printf_i+0x148>
    4446:	8ab2                	mv	s5,a2
    4448:	cd91                	beqz	a1,4464 <_printf_i+0x162>
    444a:	8ab2                	mv	s5,a2
    444c:	02e7f5b3          	remu	a1,a5,a4
    4450:	1afd                	addi	s5,s5,-1
    4452:	95b6                	add	a1,a1,a3
    4454:	0005c583          	lbu	a1,0(a1)
    4458:	00ba8023          	sb	a1,0(s5)
    445c:	02e7d5b3          	divu	a1,a5,a4
    4460:	0ae7f363          	bgeu	a5,a4,4506 <_printf_i+0x204>
    4464:	47a1                	li	a5,8
    4466:	00f71e63          	bne	a4,a5,4482 <_printf_i+0x180>
    446a:	401c                	lw	a5,0(s0)
    446c:	8b85                	andi	a5,a5,1
    446e:	cb91                	beqz	a5,4482 <_printf_i+0x180>
    4470:	4058                	lw	a4,4(s0)
    4472:	481c                	lw	a5,16(s0)
    4474:	00e7c763          	blt	a5,a4,4482 <_printf_i+0x180>
    4478:	03000793          	li	a5,48
    447c:	fefa8fa3          	sb	a5,-1(s5)
    4480:	1afd                	addi	s5,s5,-1
    4482:	41560633          	sub	a2,a2,s5
    4486:	c810                	sw	a2,16(s0)
    4488:	874e                	mv	a4,s3
    448a:	86ca                	mv	a3,s2
    448c:	0070                	addi	a2,sp,12
    448e:	85a2                	mv	a1,s0
    4490:	8526                	mv	a0,s1
    4492:	d65ff0ef          	jal	ra,41f6 <_printf_common>
    4496:	5a7d                	li	s4,-1
    4498:	0d451463          	bne	a0,s4,4560 <_printf_i+0x25e>
    449c:	557d                	li	a0,-1
    449e:	50b2                	lw	ra,44(sp)
    44a0:	5422                	lw	s0,40(sp)
    44a2:	5492                	lw	s1,36(sp)
    44a4:	5902                	lw	s2,32(sp)
    44a6:	49f2                	lw	s3,28(sp)
    44a8:	4a62                	lw	s4,24(sp)
    44aa:	4ad2                	lw	s5,20(sp)
    44ac:	4b42                	lw	s6,16(sp)
    44ae:	6145                	addi	sp,sp,48
    44b0:	8082                	ret
    44b2:	04d582a3          	sb	a3,69(a1)
    44b6:	00001697          	auipc	a3,0x1
    44ba:	f7a68693          	addi	a3,a3,-134 # 5430 <UARTN+0x64>
    44be:	400c                	lw	a1,0(s0)
    44c0:	4308                	lw	a0,0(a4)
    44c2:	0805f813          	andi	a6,a1,128
    44c6:	411c                	lw	a5,0(a0)
    44c8:	0511                	addi	a0,a0,4
    44ca:	02080063          	beqz	a6,44ea <_printf_i+0x1e8>
    44ce:	c308                	sw	a0,0(a4)
    44d0:	0015f713          	andi	a4,a1,1
    44d4:	c701                	beqz	a4,44dc <_printf_i+0x1da>
    44d6:	0205e593          	ori	a1,a1,32
    44da:	c00c                	sw	a1,0(s0)
    44dc:	4741                	li	a4,16
    44de:	fbb1                	bnez	a5,4432 <_printf_i+0x130>
    44e0:	400c                	lw	a1,0(s0)
    44e2:	fdf5f593          	andi	a1,a1,-33
    44e6:	c00c                	sw	a1,0(s0)
    44e8:	b7a9                	j	4432 <_printf_i+0x130>
    44ea:	0405f813          	andi	a6,a1,64
    44ee:	c308                	sw	a0,0(a4)
    44f0:	fe0800e3          	beqz	a6,44d0 <_printf_i+0x1ce>
    44f4:	07c2                	slli	a5,a5,0x10
    44f6:	83c1                	srli	a5,a5,0x10
    44f8:	bfe1                	j	44d0 <_printf_i+0x1ce>
    44fa:	00001697          	auipc	a3,0x1
    44fe:	f3668693          	addi	a3,a3,-202 # 5430 <UARTN+0x64>
    4502:	4721                	li	a4,8
    4504:	b73d                	j	4432 <_printf_i+0x130>
    4506:	87ae                	mv	a5,a1
    4508:	b791                	j	444c <_printf_i+0x14a>
    450a:	4194                	lw	a3,0(a1)
    450c:	431c                	lw	a5,0(a4)
    450e:	49cc                	lw	a1,20(a1)
    4510:	0806f813          	andi	a6,a3,128
    4514:	00478513          	addi	a0,a5,4
    4518:	00080663          	beqz	a6,4524 <_printf_i+0x222>
    451c:	c308                	sw	a0,0(a4)
    451e:	439c                	lw	a5,0(a5)
    4520:	c38c                	sw	a1,0(a5)
    4522:	a801                	j	4532 <_printf_i+0x230>
    4524:	c308                	sw	a0,0(a4)
    4526:	0406f693          	andi	a3,a3,64
    452a:	439c                	lw	a5,0(a5)
    452c:	daf5                	beqz	a3,4520 <_printf_i+0x21e>
    452e:	00b79023          	sh	a1,0(a5)
    4532:	00042823          	sw	zero,16(s0)
    4536:	8ab2                	mv	s5,a2
    4538:	bf81                	j	4488 <_printf_i+0x186>
    453a:	431c                	lw	a5,0(a4)
    453c:	41d0                	lw	a2,4(a1)
    453e:	4581                	li	a1,0
    4540:	00478693          	addi	a3,a5,4
    4544:	c314                	sw	a3,0(a4)
    4546:	0007aa83          	lw	s5,0(a5)
    454a:	8556                	mv	a0,s5
    454c:	2dd5                	jal	4c40 <memchr>
    454e:	c501                	beqz	a0,4556 <_printf_i+0x254>
    4550:	41550533          	sub	a0,a0,s5
    4554:	c048                	sw	a0,4(s0)
    4556:	405c                	lw	a5,4(s0)
    4558:	c81c                	sw	a5,16(s0)
    455a:	040401a3          	sb	zero,67(s0)
    455e:	b72d                	j	4488 <_printf_i+0x186>
    4560:	4814                	lw	a3,16(s0)
    4562:	8656                	mv	a2,s5
    4564:	85ca                	mv	a1,s2
    4566:	8526                	mv	a0,s1
    4568:	9982                	jalr	s3
    456a:	f34509e3          	beq	a0,s4,449c <_printf_i+0x19a>
    456e:	401c                	lw	a5,0(s0)
    4570:	8b89                	andi	a5,a5,2
    4572:	e78d                	bnez	a5,459c <_printf_i+0x29a>
    4574:	47b2                	lw	a5,12(sp)
    4576:	4448                	lw	a0,12(s0)
    4578:	f2f553e3          	bge	a0,a5,449e <_printf_i+0x19c>
    457c:	853e                	mv	a0,a5
    457e:	b705                	j	449e <_printf_i+0x19c>
    4580:	4685                	li	a3,1
    4582:	8656                	mv	a2,s5
    4584:	85ca                	mv	a1,s2
    4586:	8526                	mv	a0,s1
    4588:	9982                	jalr	s3
    458a:	f16509e3          	beq	a0,s6,449c <_printf_i+0x19a>
    458e:	0a05                	addi	s4,s4,1
    4590:	445c                	lw	a5,12(s0)
    4592:	4732                	lw	a4,12(sp)
    4594:	8f99                	sub	a5,a5,a4
    4596:	fefa45e3          	blt	s4,a5,4580 <_printf_i+0x27e>
    459a:	bfe9                	j	4574 <_printf_i+0x272>
    459c:	4a01                	li	s4,0
    459e:	01940a93          	addi	s5,s0,25
    45a2:	5b7d                	li	s6,-1
    45a4:	b7f5                	j	4590 <_printf_i+0x28e>

000045a6 <__swbuf_r>:
__swbuf_r():
    45a6:	1101                	addi	sp,sp,-32
    45a8:	cc22                	sw	s0,24(sp)
    45aa:	ca26                	sw	s1,20(sp)
    45ac:	c84a                	sw	s2,16(sp)
    45ae:	ce06                	sw	ra,28(sp)
    45b0:	c64e                	sw	s3,12(sp)
    45b2:	84aa                	mv	s1,a0
    45b4:	892e                	mv	s2,a1
    45b6:	8432                	mv	s0,a2
    45b8:	c501                	beqz	a0,45c0 <__swbuf_r+0x1a>
    45ba:	4d1c                	lw	a5,24(a0)
    45bc:	e391                	bnez	a5,45c0 <__swbuf_r+0x1a>
    45be:	2939                	jal	49dc <__sinit>
    45c0:	00001797          	auipc	a5,0x1
    45c4:	eb878793          	addi	a5,a5,-328 # 5478 <__sf_fake_stdin>
    45c8:	06f41963          	bne	s0,a5,463a <__swbuf_r+0x94>
    45cc:	40c0                	lw	s0,4(s1)
    45ce:	4c1c                	lw	a5,24(s0)
    45d0:	c41c                	sw	a5,8(s0)
    45d2:	00c45783          	lhu	a5,12(s0)
    45d6:	8ba1                	andi	a5,a5,8
    45d8:	c3c9                	beqz	a5,465a <__swbuf_r+0xb4>
    45da:	481c                	lw	a5,16(s0)
    45dc:	cfbd                	beqz	a5,465a <__swbuf_r+0xb4>
    45de:	481c                	lw	a5,16(s0)
    45e0:	4008                	lw	a0,0(s0)
    45e2:	0ff97993          	andi	s3,s2,255
    45e6:	0ff97913          	andi	s2,s2,255
    45ea:	8d1d                	sub	a0,a0,a5
    45ec:	485c                	lw	a5,20(s0)
    45ee:	00f54663          	blt	a0,a5,45fa <__swbuf_r+0x54>
    45f2:	85a2                	mv	a1,s0
    45f4:	8526                	mv	a0,s1
    45f6:	24d9                	jal	48bc <_fflush_r>
    45f8:	e52d                	bnez	a0,4662 <__swbuf_r+0xbc>
    45fa:	441c                	lw	a5,8(s0)
    45fc:	0505                	addi	a0,a0,1
    45fe:	17fd                	addi	a5,a5,-1
    4600:	c41c                	sw	a5,8(s0)
    4602:	401c                	lw	a5,0(s0)
    4604:	00178713          	addi	a4,a5,1
    4608:	c018                	sw	a4,0(s0)
    460a:	01378023          	sb	s3,0(a5)
    460e:	485c                	lw	a5,20(s0)
    4610:	00a78963          	beq	a5,a0,4622 <__swbuf_r+0x7c>
    4614:	00c45783          	lhu	a5,12(s0)
    4618:	8b85                	andi	a5,a5,1
    461a:	cb81                	beqz	a5,462a <__swbuf_r+0x84>
    461c:	47a9                	li	a5,10
    461e:	00f91663          	bne	s2,a5,462a <__swbuf_r+0x84>
    4622:	85a2                	mv	a1,s0
    4624:	8526                	mv	a0,s1
    4626:	2c59                	jal	48bc <_fflush_r>
    4628:	ed0d                	bnez	a0,4662 <__swbuf_r+0xbc>
    462a:	40f2                	lw	ra,28(sp)
    462c:	4462                	lw	s0,24(sp)
    462e:	854a                	mv	a0,s2
    4630:	44d2                	lw	s1,20(sp)
    4632:	4942                	lw	s2,16(sp)
    4634:	49b2                	lw	s3,12(sp)
    4636:	6105                	addi	sp,sp,32
    4638:	8082                	ret
    463a:	00001797          	auipc	a5,0x1
    463e:	e5e78793          	addi	a5,a5,-418 # 5498 <__sf_fake_stdout>
    4642:	00f41463          	bne	s0,a5,464a <__swbuf_r+0xa4>
    4646:	4480                	lw	s0,8(s1)
    4648:	b759                	j	45ce <__swbuf_r+0x28>
    464a:	00001797          	auipc	a5,0x1
    464e:	e0e78793          	addi	a5,a5,-498 # 5458 <__sf_fake_stderr>
    4652:	f6f41ee3          	bne	s0,a5,45ce <__swbuf_r+0x28>
    4656:	44c0                	lw	s0,12(s1)
    4658:	bf9d                	j	45ce <__swbuf_r+0x28>
    465a:	85a2                	mv	a1,s0
    465c:	8526                	mv	a0,s1
    465e:	2021                	jal	4666 <__swsetup_r>
    4660:	dd3d                	beqz	a0,45de <__swbuf_r+0x38>
    4662:	597d                	li	s2,-1
    4664:	b7d9                	j	462a <__swbuf_r+0x84>

00004666 <__swsetup_r>:
__swsetup_r():
    4666:	1141                	addi	sp,sp,-16
    4668:	80818793          	addi	a5,gp,-2040 # 20000090 <_impure_ptr>
    466c:	c226                	sw	s1,4(sp)
    466e:	4384                	lw	s1,0(a5)
    4670:	c422                	sw	s0,8(sp)
    4672:	c04a                	sw	s2,0(sp)
    4674:	c606                	sw	ra,12(sp)
    4676:	892a                	mv	s2,a0
    4678:	842e                	mv	s0,a1
    467a:	c489                	beqz	s1,4684 <__swsetup_r+0x1e>
    467c:	4c9c                	lw	a5,24(s1)
    467e:	e399                	bnez	a5,4684 <__swsetup_r+0x1e>
    4680:	8526                	mv	a0,s1
    4682:	2ea9                	jal	49dc <__sinit>
    4684:	00001797          	auipc	a5,0x1
    4688:	df478793          	addi	a5,a5,-524 # 5478 <__sf_fake_stdin>
    468c:	02f41c63          	bne	s0,a5,46c4 <__swsetup_r+0x5e>
    4690:	40c0                	lw	s0,4(s1)
    4692:	00c41703          	lh	a4,12(s0)
    4696:	01071793          	slli	a5,a4,0x10
    469a:	83c1                	srli	a5,a5,0x10
    469c:	0087f693          	andi	a3,a5,8
    46a0:	eeb5                	bnez	a3,471c <__swsetup_r+0xb6>
    46a2:	0107f693          	andi	a3,a5,16
    46a6:	ee9d                	bnez	a3,46e4 <__swsetup_r+0x7e>
    46a8:	47a5                	li	a5,9
    46aa:	00f92023          	sw	a5,0(s2)
    46ae:	04076713          	ori	a4,a4,64
    46b2:	00e41623          	sh	a4,12(s0)
    46b6:	557d                	li	a0,-1
    46b8:	40b2                	lw	ra,12(sp)
    46ba:	4422                	lw	s0,8(sp)
    46bc:	4492                	lw	s1,4(sp)
    46be:	4902                	lw	s2,0(sp)
    46c0:	0141                	addi	sp,sp,16
    46c2:	8082                	ret
    46c4:	00001797          	auipc	a5,0x1
    46c8:	dd478793          	addi	a5,a5,-556 # 5498 <__sf_fake_stdout>
    46cc:	00f41463          	bne	s0,a5,46d4 <__swsetup_r+0x6e>
    46d0:	4480                	lw	s0,8(s1)
    46d2:	b7c1                	j	4692 <__swsetup_r+0x2c>
    46d4:	00001797          	auipc	a5,0x1
    46d8:	d8478793          	addi	a5,a5,-636 # 5458 <__sf_fake_stderr>
    46dc:	faf41be3          	bne	s0,a5,4692 <__swsetup_r+0x2c>
    46e0:	44c0                	lw	s0,12(s1)
    46e2:	bf45                	j	4692 <__swsetup_r+0x2c>
    46e4:	8b91                	andi	a5,a5,4
    46e6:	c78d                	beqz	a5,4710 <__swsetup_r+0xaa>
    46e8:	584c                	lw	a1,52(s0)
    46ea:	c989                	beqz	a1,46fc <__swsetup_r+0x96>
    46ec:	04440793          	addi	a5,s0,68
    46f0:	00f58463          	beq	a1,a5,46f8 <__swsetup_r+0x92>
    46f4:	854a                	mv	a0,s2
    46f6:	2395                	jal	4c5a <_free_r>
    46f8:	02042a23          	sw	zero,52(s0)
    46fc:	00c45783          	lhu	a5,12(s0)
    4700:	00042223          	sw	zero,4(s0)
    4704:	fdb7f793          	andi	a5,a5,-37
    4708:	00f41623          	sh	a5,12(s0)
    470c:	481c                	lw	a5,16(s0)
    470e:	c01c                	sw	a5,0(s0)
    4710:	00c45783          	lhu	a5,12(s0)
    4714:	0087e793          	ori	a5,a5,8
    4718:	00f41623          	sh	a5,12(s0)
    471c:	481c                	lw	a5,16(s0)
    471e:	ef81                	bnez	a5,4736 <__swsetup_r+0xd0>
    4720:	00c45783          	lhu	a5,12(s0)
    4724:	20000713          	li	a4,512
    4728:	2807f793          	andi	a5,a5,640
    472c:	00e78563          	beq	a5,a4,4736 <__swsetup_r+0xd0>
    4730:	85a2                	mv	a1,s0
    4732:	854a                	mv	a0,s2
    4734:	2985                	jal	4ba4 <__smakebuf_r>
    4736:	00c45783          	lhu	a5,12(s0)
    473a:	0017f713          	andi	a4,a5,1
    473e:	c705                	beqz	a4,4766 <__swsetup_r+0x100>
    4740:	485c                	lw	a5,20(s0)
    4742:	00042423          	sw	zero,8(s0)
    4746:	40f007b3          	neg	a5,a5
    474a:	cc1c                	sw	a5,24(s0)
    474c:	481c                	lw	a5,16(s0)
    474e:	4501                	li	a0,0
    4750:	f7a5                	bnez	a5,46b8 <__swsetup_r+0x52>
    4752:	00c41783          	lh	a5,12(s0)
    4756:	0807f713          	andi	a4,a5,128
    475a:	df39                	beqz	a4,46b8 <__swsetup_r+0x52>
    475c:	0407e793          	ori	a5,a5,64
    4760:	00f41623          	sh	a5,12(s0)
    4764:	bf89                	j	46b6 <__swsetup_r+0x50>
    4766:	8b89                	andi	a5,a5,2
    4768:	4701                	li	a4,0
    476a:	e391                	bnez	a5,476e <__swsetup_r+0x108>
    476c:	4858                	lw	a4,20(s0)
    476e:	c418                	sw	a4,8(s0)
    4770:	bff1                	j	474c <__swsetup_r+0xe6>

00004772 <abort>:
abort():
    4772:	1141                	addi	sp,sp,-16
    4774:	4519                	li	a0,6
    4776:	c606                	sw	ra,12(sp)
    4778:	2df9                	jal	4e56 <raise>
    477a:	4505                	li	a0,1
    477c:	143000ef          	jal	ra,50be <_exit>

00004780 <__sflush_r>:
__sflush_r():
    4780:	00c5d783          	lhu	a5,12(a1)
    4784:	1101                	addi	sp,sp,-32
    4786:	cc22                	sw	s0,24(sp)
    4788:	ca26                	sw	s1,20(sp)
    478a:	ce06                	sw	ra,28(sp)
    478c:	c84a                	sw	s2,16(sp)
    478e:	c64e                	sw	s3,12(sp)
    4790:	0087f713          	andi	a4,a5,8
    4794:	84aa                	mv	s1,a0
    4796:	842e                	mv	s0,a1
    4798:	ef71                	bnez	a4,4874 <__sflush_r+0xf4>
    479a:	41d8                	lw	a4,4(a1)
    479c:	00e04d63          	bgtz	a4,47b6 <__sflush_r+0x36>
    47a0:	41b8                	lw	a4,64(a1)
    47a2:	00e04a63          	bgtz	a4,47b6 <__sflush_r+0x36>
    47a6:	4501                	li	a0,0
    47a8:	40f2                	lw	ra,28(sp)
    47aa:	4462                	lw	s0,24(sp)
    47ac:	44d2                	lw	s1,20(sp)
    47ae:	4942                	lw	s2,16(sp)
    47b0:	49b2                	lw	s3,12(sp)
    47b2:	6105                	addi	sp,sp,32
    47b4:	8082                	ret
    47b6:	5458                	lw	a4,44(s0)
    47b8:	d77d                	beqz	a4,47a6 <__sflush_r+0x26>
    47ba:	0004a903          	lw	s2,0(s1)
    47be:	01379693          	slli	a3,a5,0x13
    47c2:	0004a023          	sw	zero,0(s1)
    47c6:	0606dd63          	bgez	a3,4840 <__sflush_r+0xc0>
    47ca:	4870                	lw	a2,84(s0)
    47cc:	00c45783          	lhu	a5,12(s0)
    47d0:	8b91                	andi	a5,a5,4
    47d2:	c799                	beqz	a5,47e0 <__sflush_r+0x60>
    47d4:	405c                	lw	a5,4(s0)
    47d6:	8e1d                	sub	a2,a2,a5
    47d8:	585c                	lw	a5,52(s0)
    47da:	c399                	beqz	a5,47e0 <__sflush_r+0x60>
    47dc:	403c                	lw	a5,64(s0)
    47de:	8e1d                	sub	a2,a2,a5
    47e0:	545c                	lw	a5,44(s0)
    47e2:	500c                	lw	a1,32(s0)
    47e4:	4681                	li	a3,0
    47e6:	8526                	mv	a0,s1
    47e8:	9782                	jalr	a5
    47ea:	57fd                	li	a5,-1
    47ec:	00c45703          	lhu	a4,12(s0)
    47f0:	00f51d63          	bne	a0,a5,480a <__sflush_r+0x8a>
    47f4:	4094                	lw	a3,0(s1)
    47f6:	47f5                	li	a5,29
    47f8:	06d7e863          	bltu	a5,a3,4868 <__sflush_r+0xe8>
    47fc:	204007b7          	lui	a5,0x20400
    4800:	0785                	addi	a5,a5,1
    4802:	00d7d7b3          	srl	a5,a5,a3
    4806:	8b85                	andi	a5,a5,1
    4808:	c3a5                	beqz	a5,4868 <__sflush_r+0xe8>
    480a:	481c                	lw	a5,16(s0)
    480c:	00042223          	sw	zero,4(s0)
    4810:	c01c                	sw	a5,0(s0)
    4812:	01371793          	slli	a5,a4,0x13
    4816:	0007d863          	bgez	a5,4826 <__sflush_r+0xa6>
    481a:	57fd                	li	a5,-1
    481c:	00f51463          	bne	a0,a5,4824 <__sflush_r+0xa4>
    4820:	409c                	lw	a5,0(s1)
    4822:	e391                	bnez	a5,4826 <__sflush_r+0xa6>
    4824:	c868                	sw	a0,84(s0)
    4826:	584c                	lw	a1,52(s0)
    4828:	0124a023          	sw	s2,0(s1)
    482c:	ddad                	beqz	a1,47a6 <__sflush_r+0x26>
    482e:	04440793          	addi	a5,s0,68
    4832:	00f58463          	beq	a1,a5,483a <__sflush_r+0xba>
    4836:	8526                	mv	a0,s1
    4838:	210d                	jal	4c5a <_free_r>
    483a:	02042a23          	sw	zero,52(s0)
    483e:	b7a5                	j	47a6 <__sflush_r+0x26>
    4840:	500c                	lw	a1,32(s0)
    4842:	4601                	li	a2,0
    4844:	4685                	li	a3,1
    4846:	8526                	mv	a0,s1
    4848:	9702                	jalr	a4
    484a:	57fd                	li	a5,-1
    484c:	862a                	mv	a2,a0
    484e:	f6f51fe3          	bne	a0,a5,47cc <__sflush_r+0x4c>
    4852:	409c                	lw	a5,0(s1)
    4854:	dfa5                	beqz	a5,47cc <__sflush_r+0x4c>
    4856:	4775                	li	a4,29
    4858:	00e78563          	beq	a5,a4,4862 <__sflush_r+0xe2>
    485c:	4759                	li	a4,22
    485e:	04e79463          	bne	a5,a4,48a6 <__sflush_r+0x126>
    4862:	0124a023          	sw	s2,0(s1)
    4866:	b781                	j	47a6 <__sflush_r+0x26>
    4868:	04076713          	ori	a4,a4,64
    486c:	00e41623          	sh	a4,12(s0)
    4870:	557d                	li	a0,-1
    4872:	bf1d                	j	47a8 <__sflush_r+0x28>
    4874:	0105a983          	lw	s3,16(a1)
    4878:	f20987e3          	beqz	s3,47a6 <__sflush_r+0x26>
    487c:	0005a903          	lw	s2,0(a1)
    4880:	8b8d                	andi	a5,a5,3
    4882:	0135a023          	sw	s3,0(a1)
    4886:	41390933          	sub	s2,s2,s3
    488a:	4701                	li	a4,0
    488c:	e391                	bnez	a5,4890 <__sflush_r+0x110>
    488e:	49d8                	lw	a4,20(a1)
    4890:	c418                	sw	a4,8(s0)
    4892:	f1205ae3          	blez	s2,47a6 <__sflush_r+0x26>
    4896:	541c                	lw	a5,40(s0)
    4898:	500c                	lw	a1,32(s0)
    489a:	86ca                	mv	a3,s2
    489c:	864e                	mv	a2,s3
    489e:	8526                	mv	a0,s1
    48a0:	9782                	jalr	a5
    48a2:	00a04963          	bgtz	a0,48b4 <__sflush_r+0x134>
    48a6:	00c45783          	lhu	a5,12(s0)
    48aa:	0407e793          	ori	a5,a5,64
    48ae:	00f41623          	sh	a5,12(s0)
    48b2:	bf7d                	j	4870 <__sflush_r+0xf0>
    48b4:	99aa                	add	s3,s3,a0
    48b6:	40a90933          	sub	s2,s2,a0
    48ba:	bfe1                	j	4892 <__sflush_r+0x112>

000048bc <_fflush_r>:
_fflush_r():
    48bc:	499c                	lw	a5,16(a1)
    48be:	c3a5                	beqz	a5,491e <_fflush_r+0x62>
    48c0:	1101                	addi	sp,sp,-32
    48c2:	cc22                	sw	s0,24(sp)
    48c4:	ce06                	sw	ra,28(sp)
    48c6:	842a                	mv	s0,a0
    48c8:	c511                	beqz	a0,48d4 <_fflush_r+0x18>
    48ca:	4d1c                	lw	a5,24(a0)
    48cc:	e781                	bnez	a5,48d4 <_fflush_r+0x18>
    48ce:	c62e                	sw	a1,12(sp)
    48d0:	2231                	jal	49dc <__sinit>
    48d2:	45b2                	lw	a1,12(sp)
    48d4:	00001797          	auipc	a5,0x1
    48d8:	ba478793          	addi	a5,a5,-1116 # 5478 <__sf_fake_stdin>
    48dc:	00f59c63          	bne	a1,a5,48f4 <_fflush_r+0x38>
    48e0:	404c                	lw	a1,4(s0)
    48e2:	00c59783          	lh	a5,12(a1)
    48e6:	c79d                	beqz	a5,4914 <_fflush_r+0x58>
    48e8:	8522                	mv	a0,s0
    48ea:	4462                	lw	s0,24(sp)
    48ec:	40f2                	lw	ra,28(sp)
    48ee:	6105                	addi	sp,sp,32
    48f0:	e91ff06f          	j	4780 <__sflush_r>
    48f4:	00001797          	auipc	a5,0x1
    48f8:	ba478793          	addi	a5,a5,-1116 # 5498 <__sf_fake_stdout>
    48fc:	00f59463          	bne	a1,a5,4904 <_fflush_r+0x48>
    4900:	440c                	lw	a1,8(s0)
    4902:	b7c5                	j	48e2 <_fflush_r+0x26>
    4904:	00001797          	auipc	a5,0x1
    4908:	b5478793          	addi	a5,a5,-1196 # 5458 <__sf_fake_stderr>
    490c:	fcf59be3          	bne	a1,a5,48e2 <_fflush_r+0x26>
    4910:	444c                	lw	a1,12(s0)
    4912:	bfc1                	j	48e2 <_fflush_r+0x26>
    4914:	40f2                	lw	ra,28(sp)
    4916:	4462                	lw	s0,24(sp)
    4918:	4501                	li	a0,0
    491a:	6105                	addi	sp,sp,32
    491c:	8082                	ret
    491e:	4501                	li	a0,0
    4920:	8082                	ret

00004922 <std>:
std():
    4922:	1141                	addi	sp,sp,-16
    4924:	c422                	sw	s0,8(sp)
    4926:	c606                	sw	ra,12(sp)
    4928:	842a                	mv	s0,a0
    492a:	00b51623          	sh	a1,12(a0)
    492e:	00c51723          	sh	a2,14(a0)
    4932:	00052023          	sw	zero,0(a0)
    4936:	00052223          	sw	zero,4(a0)
    493a:	00052423          	sw	zero,8(a0)
    493e:	06052223          	sw	zero,100(a0)
    4942:	00052823          	sw	zero,16(a0)
    4946:	00052a23          	sw	zero,20(a0)
    494a:	00052c23          	sw	zero,24(a0)
    494e:	4621                	li	a2,8
    4950:	4581                	li	a1,0
    4952:	05c50513          	addi	a0,a0,92
    4956:	feafb0ef          	jal	ra,140 <memset>
    495a:	00000797          	auipc	a5,0x0
    495e:	53278793          	addi	a5,a5,1330 # 4e8c <__sread>
    4962:	d05c                	sw	a5,36(s0)
    4964:	00000797          	auipc	a5,0x0
    4968:	55878793          	addi	a5,a5,1368 # 4ebc <__swrite>
    496c:	d41c                	sw	a5,40(s0)
    496e:	00000797          	auipc	a5,0x0
    4972:	59c78793          	addi	a5,a5,1436 # 4f0a <__sseek>
    4976:	d45c                	sw	a5,44(s0)
    4978:	00000797          	auipc	a5,0x0
    497c:	5c878793          	addi	a5,a5,1480 # 4f40 <__sclose>
    4980:	d000                	sw	s0,32(s0)
    4982:	d81c                	sw	a5,48(s0)
    4984:	40b2                	lw	ra,12(sp)
    4986:	4422                	lw	s0,8(sp)
    4988:	0141                	addi	sp,sp,16
    498a:	8082                	ret

0000498c <_cleanup_r>:
_cleanup_r():
    498c:	00000597          	auipc	a1,0x0
    4990:	f3058593          	addi	a1,a1,-208 # 48bc <_fflush_r>
    4994:	a2b1                	j	4ae0 <_fwalk_reent>

00004996 <__sfmoreglue>:
__sfmoreglue():
    4996:	1141                	addi	sp,sp,-16
    4998:	c226                	sw	s1,4(sp)
    499a:	06800613          	li	a2,104
    499e:	fff58493          	addi	s1,a1,-1
    49a2:	02c484b3          	mul	s1,s1,a2
    49a6:	c04a                	sw	s2,0(sp)
    49a8:	892e                	mv	s2,a1
    49aa:	c422                	sw	s0,8(sp)
    49ac:	c606                	sw	ra,12(sp)
    49ae:	07448593          	addi	a1,s1,116
    49b2:	26b1                	jal	4cfe <_malloc_r>
    49b4:	842a                	mv	s0,a0
    49b6:	cd01                	beqz	a0,49ce <__sfmoreglue+0x38>
    49b8:	00052023          	sw	zero,0(a0)
    49bc:	01252223          	sw	s2,4(a0)
    49c0:	0531                	addi	a0,a0,12
    49c2:	c408                	sw	a0,8(s0)
    49c4:	06848613          	addi	a2,s1,104
    49c8:	4581                	li	a1,0
    49ca:	f76fb0ef          	jal	ra,140 <memset>
    49ce:	8522                	mv	a0,s0
    49d0:	40b2                	lw	ra,12(sp)
    49d2:	4422                	lw	s0,8(sp)
    49d4:	4492                	lw	s1,4(sp)
    49d6:	4902                	lw	s2,0(sp)
    49d8:	0141                	addi	sp,sp,16
    49da:	8082                	ret

000049dc <__sinit>:
__sinit():
    49dc:	4d1c                	lw	a5,24(a0)
    49de:	e3ad                	bnez	a5,4a40 <__sinit+0x64>
    49e0:	1141                	addi	sp,sp,-16
    49e2:	c606                	sw	ra,12(sp)
    49e4:	c422                	sw	s0,8(sp)
    49e6:	00000797          	auipc	a5,0x0
    49ea:	fa678793          	addi	a5,a5,-90 # 498c <_cleanup_r>
    49ee:	d51c                	sw	a5,40(a0)
    49f0:	80c18793          	addi	a5,gp,-2036 # 20000094 <_global_impure_ptr>
    49f4:	439c                	lw	a5,0(a5)
    49f6:	04052423          	sw	zero,72(a0)
    49fa:	04052623          	sw	zero,76(a0)
    49fe:	04052823          	sw	zero,80(a0)
    4a02:	00f51463          	bne	a0,a5,4a0a <__sinit+0x2e>
    4a06:	4785                	li	a5,1
    4a08:	cd1c                	sw	a5,24(a0)
    4a0a:	842a                	mv	s0,a0
    4a0c:	281d                	jal	4a42 <__sfp>
    4a0e:	c048                	sw	a0,4(s0)
    4a10:	8522                	mv	a0,s0
    4a12:	2805                	jal	4a42 <__sfp>
    4a14:	c408                	sw	a0,8(s0)
    4a16:	8522                	mv	a0,s0
    4a18:	202d                	jal	4a42 <__sfp>
    4a1a:	c448                	sw	a0,12(s0)
    4a1c:	4048                	lw	a0,4(s0)
    4a1e:	4601                	li	a2,0
    4a20:	4591                	li	a1,4
    4a22:	3701                	jal	4922 <std>
    4a24:	4408                	lw	a0,8(s0)
    4a26:	4605                	li	a2,1
    4a28:	45a5                	li	a1,9
    4a2a:	3de5                	jal	4922 <std>
    4a2c:	4448                	lw	a0,12(s0)
    4a2e:	4609                	li	a2,2
    4a30:	45c9                	li	a1,18
    4a32:	3dc5                	jal	4922 <std>
    4a34:	4785                	li	a5,1
    4a36:	cc1c                	sw	a5,24(s0)
    4a38:	40b2                	lw	ra,12(sp)
    4a3a:	4422                	lw	s0,8(sp)
    4a3c:	0141                	addi	sp,sp,16
    4a3e:	8082                	ret
    4a40:	8082                	ret

00004a42 <__sfp>:
__sfp():
    4a42:	1141                	addi	sp,sp,-16
    4a44:	80c18793          	addi	a5,gp,-2036 # 20000094 <_global_impure_ptr>
    4a48:	c226                	sw	s1,4(sp)
    4a4a:	4384                	lw	s1,0(a5)
    4a4c:	c04a                	sw	s2,0(sp)
    4a4e:	c606                	sw	ra,12(sp)
    4a50:	4c9c                	lw	a5,24(s1)
    4a52:	c422                	sw	s0,8(sp)
    4a54:	892a                	mv	s2,a0
    4a56:	e399                	bnez	a5,4a5c <__sfp+0x1a>
    4a58:	8526                	mv	a0,s1
    4a5a:	3749                	jal	49dc <__sinit>
    4a5c:	04848493          	addi	s1,s1,72
    4a60:	4480                	lw	s0,8(s1)
    4a62:	40dc                	lw	a5,4(s1)
    4a64:	17fd                	addi	a5,a5,-1
    4a66:	0007d663          	bgez	a5,4a72 <__sfp+0x30>
    4a6a:	409c                	lw	a5,0(s1)
    4a6c:	cfb9                	beqz	a5,4aca <__sfp+0x88>
    4a6e:	4084                	lw	s1,0(s1)
    4a70:	bfc5                	j	4a60 <__sfp+0x1e>
    4a72:	00c41703          	lh	a4,12(s0)
    4a76:	e739                	bnez	a4,4ac4 <__sfp+0x82>
    4a78:	77c1                	lui	a5,0xffff0
    4a7a:	0785                	addi	a5,a5,1
    4a7c:	06042223          	sw	zero,100(s0)
    4a80:	00042023          	sw	zero,0(s0)
    4a84:	00042223          	sw	zero,4(s0)
    4a88:	00042423          	sw	zero,8(s0)
    4a8c:	c45c                	sw	a5,12(s0)
    4a8e:	00042823          	sw	zero,16(s0)
    4a92:	00042a23          	sw	zero,20(s0)
    4a96:	00042c23          	sw	zero,24(s0)
    4a9a:	4621                	li	a2,8
    4a9c:	4581                	li	a1,0
    4a9e:	05c40513          	addi	a0,s0,92
    4aa2:	e9efb0ef          	jal	ra,140 <memset>
    4aa6:	02042a23          	sw	zero,52(s0)
    4aaa:	02042c23          	sw	zero,56(s0)
    4aae:	04042423          	sw	zero,72(s0)
    4ab2:	04042623          	sw	zero,76(s0)
    4ab6:	8522                	mv	a0,s0
    4ab8:	40b2                	lw	ra,12(sp)
    4aba:	4422                	lw	s0,8(sp)
    4abc:	4492                	lw	s1,4(sp)
    4abe:	4902                	lw	s2,0(sp)
    4ac0:	0141                	addi	sp,sp,16
    4ac2:	8082                	ret
    4ac4:	06840413          	addi	s0,s0,104
    4ac8:	bf71                	j	4a64 <__sfp+0x22>
    4aca:	4591                	li	a1,4
    4acc:	854a                	mv	a0,s2
    4ace:	ec9ff0ef          	jal	ra,4996 <__sfmoreglue>
    4ad2:	c088                	sw	a0,0(s1)
    4ad4:	fd49                	bnez	a0,4a6e <__sfp+0x2c>
    4ad6:	47b1                	li	a5,12
    4ad8:	00f92023          	sw	a5,0(s2)
    4adc:	4401                	li	s0,0
    4ade:	bfe1                	j	4ab6 <__sfp+0x74>

00004ae0 <_fwalk_reent>:
_fwalk_reent():
    4ae0:	7179                	addi	sp,sp,-48
    4ae2:	d422                	sw	s0,40(sp)
    4ae4:	d04a                	sw	s2,32(sp)
    4ae6:	cc52                	sw	s4,24(sp)
    4ae8:	ca56                	sw	s5,20(sp)
    4aea:	c85a                	sw	s6,16(sp)
    4aec:	c65e                	sw	s7,12(sp)
    4aee:	d606                	sw	ra,44(sp)
    4af0:	d226                	sw	s1,36(sp)
    4af2:	ce4e                	sw	s3,28(sp)
    4af4:	8a2a                	mv	s4,a0
    4af6:	8aae                	mv	s5,a1
    4af8:	04850413          	addi	s0,a0,72
    4afc:	4901                	li	s2,0
    4afe:	4b05                	li	s6,1
    4b00:	5bfd                	li	s7,-1
    4b02:	ec09                	bnez	s0,4b1c <_fwalk_reent+0x3c>
    4b04:	50b2                	lw	ra,44(sp)
    4b06:	5422                	lw	s0,40(sp)
    4b08:	854a                	mv	a0,s2
    4b0a:	5492                	lw	s1,36(sp)
    4b0c:	5902                	lw	s2,32(sp)
    4b0e:	49f2                	lw	s3,28(sp)
    4b10:	4a62                	lw	s4,24(sp)
    4b12:	4ad2                	lw	s5,20(sp)
    4b14:	4b42                	lw	s6,16(sp)
    4b16:	4bb2                	lw	s7,12(sp)
    4b18:	6145                	addi	sp,sp,48
    4b1a:	8082                	ret
    4b1c:	4404                	lw	s1,8(s0)
    4b1e:	00442983          	lw	s3,4(s0)
    4b22:	19fd                	addi	s3,s3,-1
    4b24:	0009d463          	bgez	s3,4b2c <_fwalk_reent+0x4c>
    4b28:	4000                	lw	s0,0(s0)
    4b2a:	bfe1                	j	4b02 <_fwalk_reent+0x22>
    4b2c:	00c4d783          	lhu	a5,12(s1)
    4b30:	00fb7b63          	bgeu	s6,a5,4b46 <_fwalk_reent+0x66>
    4b34:	00e49783          	lh	a5,14(s1)
    4b38:	01778763          	beq	a5,s7,4b46 <_fwalk_reent+0x66>
    4b3c:	85a6                	mv	a1,s1
    4b3e:	8552                	mv	a0,s4
    4b40:	9a82                	jalr	s5
    4b42:	00a96933          	or	s2,s2,a0
    4b46:	06848493          	addi	s1,s1,104
    4b4a:	bfe1                	j	4b22 <_fwalk_reent+0x42>

00004b4c <__swhatbuf_r>:
__swhatbuf_r():
    4b4c:	7119                	addi	sp,sp,-128
    4b4e:	daa6                	sw	s1,116(sp)
    4b50:	84ae                	mv	s1,a1
    4b52:	00e59583          	lh	a1,14(a1)
    4b56:	dca2                	sw	s0,120(sp)
    4b58:	de86                	sw	ra,124(sp)
    4b5a:	8432                	mv	s0,a2
    4b5c:	0005dc63          	bgez	a1,4b74 <__swhatbuf_r+0x28>
    4b60:	00c4d783          	lhu	a5,12(s1)
    4b64:	0006a023          	sw	zero,0(a3)
    4b68:	0807f793          	andi	a5,a5,128
    4b6c:	e39d                	bnez	a5,4b92 <__swhatbuf_r+0x46>
    4b6e:	40000793          	li	a5,1024
    4b72:	a015                	j	4b96 <__swhatbuf_r+0x4a>
    4b74:	0830                	addi	a2,sp,24
    4b76:	c636                	sw	a3,12(sp)
    4b78:	2115                	jal	4f9c <_fstat_r>
    4b7a:	46b2                	lw	a3,12(sp)
    4b7c:	fe0542e3          	bltz	a0,4b60 <__swhatbuf_r+0x14>
    4b80:	4772                	lw	a4,28(sp)
    4b82:	67bd                	lui	a5,0xf
    4b84:	8ff9                	and	a5,a5,a4
    4b86:	7779                	lui	a4,0xffffe
    4b88:	97ba                	add	a5,a5,a4
    4b8a:	0017b793          	seqz	a5,a5
    4b8e:	c29c                	sw	a5,0(a3)
    4b90:	bff9                	j	4b6e <__swhatbuf_r+0x22>
    4b92:	04000793          	li	a5,64
    4b96:	c01c                	sw	a5,0(s0)
    4b98:	50f6                	lw	ra,124(sp)
    4b9a:	5466                	lw	s0,120(sp)
    4b9c:	54d6                	lw	s1,116(sp)
    4b9e:	4501                	li	a0,0
    4ba0:	6109                	addi	sp,sp,128
    4ba2:	8082                	ret

00004ba4 <__smakebuf_r>:
__smakebuf_r():
    4ba4:	00c5d783          	lhu	a5,12(a1)
    4ba8:	1101                	addi	sp,sp,-32
    4baa:	cc22                	sw	s0,24(sp)
    4bac:	ce06                	sw	ra,28(sp)
    4bae:	ca26                	sw	s1,20(sp)
    4bb0:	c84a                	sw	s2,16(sp)
    4bb2:	8b89                	andi	a5,a5,2
    4bb4:	842e                	mv	s0,a1
    4bb6:	cf89                	beqz	a5,4bd0 <__smakebuf_r+0x2c>
    4bb8:	04740793          	addi	a5,s0,71
    4bbc:	c01c                	sw	a5,0(s0)
    4bbe:	c81c                	sw	a5,16(s0)
    4bc0:	4785                	li	a5,1
    4bc2:	c85c                	sw	a5,20(s0)
    4bc4:	40f2                	lw	ra,28(sp)
    4bc6:	4462                	lw	s0,24(sp)
    4bc8:	44d2                	lw	s1,20(sp)
    4bca:	4942                	lw	s2,16(sp)
    4bcc:	6105                	addi	sp,sp,32
    4bce:	8082                	ret
    4bd0:	0074                	addi	a3,sp,12
    4bd2:	0030                	addi	a2,sp,8
    4bd4:	84aa                	mv	s1,a0
    4bd6:	3f9d                	jal	4b4c <__swhatbuf_r>
    4bd8:	45a2                	lw	a1,8(sp)
    4bda:	892a                	mv	s2,a0
    4bdc:	8526                	mv	a0,s1
    4bde:	2205                	jal	4cfe <_malloc_r>
    4be0:	ed01                	bnez	a0,4bf8 <__smakebuf_r+0x54>
    4be2:	00c41783          	lh	a5,12(s0)
    4be6:	2007f713          	andi	a4,a5,512
    4bea:	ff69                	bnez	a4,4bc4 <__smakebuf_r+0x20>
    4bec:	9bf1                	andi	a5,a5,-4
    4bee:	0027e793          	ori	a5,a5,2
    4bf2:	00f41623          	sh	a5,12(s0)
    4bf6:	b7c9                	j	4bb8 <__smakebuf_r+0x14>
    4bf8:	00000797          	auipc	a5,0x0
    4bfc:	d9478793          	addi	a5,a5,-620 # 498c <_cleanup_r>
    4c00:	d49c                	sw	a5,40(s1)
    4c02:	00c45783          	lhu	a5,12(s0)
    4c06:	c008                	sw	a0,0(s0)
    4c08:	c808                	sw	a0,16(s0)
    4c0a:	0807e793          	ori	a5,a5,128
    4c0e:	00f41623          	sh	a5,12(s0)
    4c12:	47a2                	lw	a5,8(sp)
    4c14:	c85c                	sw	a5,20(s0)
    4c16:	47b2                	lw	a5,12(sp)
    4c18:	cf89                	beqz	a5,4c32 <__smakebuf_r+0x8e>
    4c1a:	00e41583          	lh	a1,14(s0)
    4c1e:	8526                	mv	a0,s1
    4c20:	265d                	jal	4fc6 <_isatty_r>
    4c22:	c901                	beqz	a0,4c32 <__smakebuf_r+0x8e>
    4c24:	00c45783          	lhu	a5,12(s0)
    4c28:	9bf1                	andi	a5,a5,-4
    4c2a:	0017e793          	ori	a5,a5,1
    4c2e:	00f41623          	sh	a5,12(s0)
    4c32:	00c45783          	lhu	a5,12(s0)
    4c36:	00f96933          	or	s2,s2,a5
    4c3a:	01241623          	sh	s2,12(s0)
    4c3e:	b759                	j	4bc4 <__smakebuf_r+0x20>

00004c40 <memchr>:
memchr():
    4c40:	0ff5f593          	andi	a1,a1,255
    4c44:	962a                	add	a2,a2,a0
    4c46:	00c51463          	bne	a0,a2,4c4e <memchr+0xe>
    4c4a:	4501                	li	a0,0
    4c4c:	8082                	ret
    4c4e:	00054783          	lbu	a5,0(a0)
    4c52:	feb78de3          	beq	a5,a1,4c4c <memchr+0xc>
    4c56:	0505                	addi	a0,a0,1
    4c58:	b7fd                	j	4c46 <memchr+0x6>

00004c5a <_free_r>:
_free_r():
    4c5a:	c1cd                	beqz	a1,4cfc <_free_r+0xa2>
    4c5c:	ffc5a783          	lw	a5,-4(a1)
    4c60:	1141                	addi	sp,sp,-16
    4c62:	c422                	sw	s0,8(sp)
    4c64:	c606                	sw	ra,12(sp)
    4c66:	c226                	sw	s1,4(sp)
    4c68:	ffc58413          	addi	s0,a1,-4
    4c6c:	0007d363          	bgez	a5,4c72 <_free_r+0x18>
    4c70:	943e                	add	s0,s0,a5
    4c72:	84aa                	mv	s1,a0
    4c74:	265d                	jal	501a <__malloc_lock>
    4c76:	83018793          	addi	a5,gp,-2000 # 200000b8 <__malloc_free_list>
    4c7a:	439c                	lw	a5,0(a5)
    4c7c:	eb99                	bnez	a5,4c92 <_free_r+0x38>
    4c7e:	00042223          	sw	zero,4(s0)
    4c82:	8281a823          	sw	s0,-2000(gp) # 200000b8 <__malloc_free_list>
    4c86:	4422                	lw	s0,8(sp)
    4c88:	40b2                	lw	ra,12(sp)
    4c8a:	8526                	mv	a0,s1
    4c8c:	4492                	lw	s1,4(sp)
    4c8e:	0141                	addi	sp,sp,16
    4c90:	a671                	j	501c <__malloc_unlock>
    4c92:	00f47e63          	bgeu	s0,a5,4cae <_free_r+0x54>
    4c96:	4014                	lw	a3,0(s0)
    4c98:	00d40733          	add	a4,s0,a3
    4c9c:	00e79663          	bne	a5,a4,4ca8 <_free_r+0x4e>
    4ca0:	4398                	lw	a4,0(a5)
    4ca2:	43dc                	lw	a5,4(a5)
    4ca4:	9736                	add	a4,a4,a3
    4ca6:	c018                	sw	a4,0(s0)
    4ca8:	c05c                	sw	a5,4(s0)
    4caa:	bfe1                	j	4c82 <_free_r+0x28>
    4cac:	87ba                	mv	a5,a4
    4cae:	43d8                	lw	a4,4(a5)
    4cb0:	c319                	beqz	a4,4cb6 <_free_r+0x5c>
    4cb2:	fee47de3          	bgeu	s0,a4,4cac <_free_r+0x52>
    4cb6:	4394                	lw	a3,0(a5)
    4cb8:	00d78633          	add	a2,a5,a3
    4cbc:	00861f63          	bne	a2,s0,4cda <_free_r+0x80>
    4cc0:	4010                	lw	a2,0(s0)
    4cc2:	96b2                	add	a3,a3,a2
    4cc4:	c394                	sw	a3,0(a5)
    4cc6:	00d78633          	add	a2,a5,a3
    4cca:	fac71ee3          	bne	a4,a2,4c86 <_free_r+0x2c>
    4cce:	4310                	lw	a2,0(a4)
    4cd0:	4358                	lw	a4,4(a4)
    4cd2:	96b2                	add	a3,a3,a2
    4cd4:	c394                	sw	a3,0(a5)
    4cd6:	c3d8                	sw	a4,4(a5)
    4cd8:	b77d                	j	4c86 <_free_r+0x2c>
    4cda:	00c47563          	bgeu	s0,a2,4ce4 <_free_r+0x8a>
    4cde:	47b1                	li	a5,12
    4ce0:	c09c                	sw	a5,0(s1)
    4ce2:	b755                	j	4c86 <_free_r+0x2c>
    4ce4:	4010                	lw	a2,0(s0)
    4ce6:	00c406b3          	add	a3,s0,a2
    4cea:	00d71663          	bne	a4,a3,4cf6 <_free_r+0x9c>
    4cee:	4314                	lw	a3,0(a4)
    4cf0:	4358                	lw	a4,4(a4)
    4cf2:	96b2                	add	a3,a3,a2
    4cf4:	c014                	sw	a3,0(s0)
    4cf6:	c058                	sw	a4,4(s0)
    4cf8:	c3c0                	sw	s0,4(a5)
    4cfa:	b771                	j	4c86 <_free_r+0x2c>
    4cfc:	8082                	ret

00004cfe <_malloc_r>:
_malloc_r():
    4cfe:	1101                	addi	sp,sp,-32
    4d00:	ca26                	sw	s1,20(sp)
    4d02:	00358493          	addi	s1,a1,3
    4d06:	98f1                	andi	s1,s1,-4
    4d08:	ce06                	sw	ra,28(sp)
    4d0a:	cc22                	sw	s0,24(sp)
    4d0c:	c84a                	sw	s2,16(sp)
    4d0e:	c64e                	sw	s3,12(sp)
    4d10:	04a1                	addi	s1,s1,8
    4d12:	47b1                	li	a5,12
    4d14:	04f4f163          	bgeu	s1,a5,4d56 <_malloc_r+0x58>
    4d18:	44b1                	li	s1,12
    4d1a:	04b4e063          	bltu	s1,a1,4d5a <_malloc_r+0x5c>
    4d1e:	892a                	mv	s2,a0
    4d20:	2ced                	jal	501a <__malloc_lock>
    4d22:	83018793          	addi	a5,gp,-2000 # 200000b8 <__malloc_free_list>
    4d26:	4398                	lw	a4,0(a5)
    4d28:	843a                	mv	s0,a4
    4d2a:	e031                	bnez	s0,4d6e <_malloc_r+0x70>
    4d2c:	83418793          	addi	a5,gp,-1996 # 200000bc <__malloc_sbrk_start>
    4d30:	439c                	lw	a5,0(a5)
    4d32:	e791                	bnez	a5,4d3e <_malloc_r+0x40>
    4d34:	4581                	li	a1,0
    4d36:	854a                	mv	a0,s2
    4d38:	2851                	jal	4dcc <_sbrk_r>
    4d3a:	82a1aa23          	sw	a0,-1996(gp) # 200000bc <__malloc_sbrk_start>
    4d3e:	85a6                	mv	a1,s1
    4d40:	854a                	mv	a0,s2
    4d42:	2069                	jal	4dcc <_sbrk_r>
    4d44:	59fd                	li	s3,-1
    4d46:	07351763          	bne	a0,s3,4db4 <_malloc_r+0xb6>
    4d4a:	47b1                	li	a5,12
    4d4c:	00f92023          	sw	a5,0(s2)
    4d50:	854a                	mv	a0,s2
    4d52:	24e9                	jal	501c <__malloc_unlock>
    4d54:	a029                	j	4d5e <_malloc_r+0x60>
    4d56:	fc04d2e3          	bgez	s1,4d1a <_malloc_r+0x1c>
    4d5a:	47b1                	li	a5,12
    4d5c:	c11c                	sw	a5,0(a0)
    4d5e:	4501                	li	a0,0
    4d60:	40f2                	lw	ra,28(sp)
    4d62:	4462                	lw	s0,24(sp)
    4d64:	44d2                	lw	s1,20(sp)
    4d66:	4942                	lw	s2,16(sp)
    4d68:	49b2                	lw	s3,12(sp)
    4d6a:	6105                	addi	sp,sp,32
    4d6c:	8082                	ret
    4d6e:	401c                	lw	a5,0(s0)
    4d70:	8f85                	sub	a5,a5,s1
    4d72:	0207ce63          	bltz	a5,4dae <_malloc_r+0xb0>
    4d76:	46ad                	li	a3,11
    4d78:	00f6f663          	bgeu	a3,a5,4d84 <_malloc_r+0x86>
    4d7c:	c01c                	sw	a5,0(s0)
    4d7e:	943e                	add	s0,s0,a5
    4d80:	c004                	sw	s1,0(s0)
    4d82:	a031                	j	4d8e <_malloc_r+0x90>
    4d84:	405c                	lw	a5,4(s0)
    4d86:	02871263          	bne	a4,s0,4daa <_malloc_r+0xac>
    4d8a:	82f1a823          	sw	a5,-2000(gp) # 200000b8 <__malloc_free_list>
    4d8e:	854a                	mv	a0,s2
    4d90:	2471                	jal	501c <__malloc_unlock>
    4d92:	00b40513          	addi	a0,s0,11
    4d96:	00440793          	addi	a5,s0,4
    4d9a:	9961                	andi	a0,a0,-8
    4d9c:	40f50733          	sub	a4,a0,a5
    4da0:	d361                	beqz	a4,4d60 <_malloc_r+0x62>
    4da2:	943a                	add	s0,s0,a4
    4da4:	8f89                	sub	a5,a5,a0
    4da6:	c01c                	sw	a5,0(s0)
    4da8:	bf65                	j	4d60 <_malloc_r+0x62>
    4daa:	c35c                	sw	a5,4(a4)
    4dac:	b7cd                	j	4d8e <_malloc_r+0x90>
    4dae:	8722                	mv	a4,s0
    4db0:	4040                	lw	s0,4(s0)
    4db2:	bfa5                	j	4d2a <_malloc_r+0x2c>
    4db4:	00350413          	addi	s0,a0,3
    4db8:	9871                	andi	s0,s0,-4
    4dba:	fc8503e3          	beq	a0,s0,4d80 <_malloc_r+0x82>
    4dbe:	40a405b3          	sub	a1,s0,a0
    4dc2:	854a                	mv	a0,s2
    4dc4:	2021                	jal	4dcc <_sbrk_r>
    4dc6:	fb351de3          	bne	a0,s3,4d80 <_malloc_r+0x82>
    4dca:	b741                	j	4d4a <_malloc_r+0x4c>

00004dcc <_sbrk_r>:
_sbrk_r():
    4dcc:	1141                	addi	sp,sp,-16
    4dce:	c422                	sw	s0,8(sp)
    4dd0:	842a                	mv	s0,a0
    4dd2:	852e                	mv	a0,a1
    4dd4:	8e01ae23          	sw	zero,-1796(gp) # 20000184 <errno>
    4dd8:	c606                	sw	ra,12(sp)
    4dda:	24d1                	jal	509e <_sbrk>
    4ddc:	57fd                	li	a5,-1
    4dde:	00f51763          	bne	a0,a5,4dec <_sbrk_r+0x20>
    4de2:	8fc18793          	addi	a5,gp,-1796 # 20000184 <errno>
    4de6:	439c                	lw	a5,0(a5)
    4de8:	c391                	beqz	a5,4dec <_sbrk_r+0x20>
    4dea:	c01c                	sw	a5,0(s0)
    4dec:	40b2                	lw	ra,12(sp)
    4dee:	4422                	lw	s0,8(sp)
    4df0:	0141                	addi	sp,sp,16
    4df2:	8082                	ret

00004df4 <_raise_r>:
_raise_r():
    4df4:	47fd                	li	a5,31
    4df6:	00b7f663          	bgeu	a5,a1,4e02 <_raise_r+0xe>
    4dfa:	47d9                	li	a5,22
    4dfc:	c11c                	sw	a5,0(a0)
    4dfe:	557d                	li	a0,-1
    4e00:	8082                	ret
    4e02:	417c                	lw	a5,68(a0)
    4e04:	1101                	addi	sp,sp,-32
    4e06:	cc22                	sw	s0,24(sp)
    4e08:	ce06                	sw	ra,28(sp)
    4e0a:	862e                	mv	a2,a1
    4e0c:	842a                	mv	s0,a0
    4e0e:	c791                	beqz	a5,4e1a <_raise_r+0x26>
    4e10:	00259713          	slli	a4,a1,0x2
    4e14:	97ba                	add	a5,a5,a4
    4e16:	4398                	lw	a4,0(a5)
    4e18:	eb19                	bnez	a4,4e2e <_raise_r+0x3a>
    4e1a:	8522                	mv	a0,s0
    4e1c:	c632                	sw	a2,12(sp)
    4e1e:	20b5                	jal	4e8a <_getpid_r>
    4e20:	85aa                	mv	a1,a0
    4e22:	8522                	mv	a0,s0
    4e24:	4462                	lw	s0,24(sp)
    4e26:	4632                	lw	a2,12(sp)
    4e28:	40f2                	lw	ra,28(sp)
    4e2a:	6105                	addi	sp,sp,32
    4e2c:	a815                	j	4e60 <_kill_r>
    4e2e:	4685                	li	a3,1
    4e30:	4501                	li	a0,0
    4e32:	00d70863          	beq	a4,a3,4e42 <_raise_r+0x4e>
    4e36:	56fd                	li	a3,-1
    4e38:	00d71963          	bne	a4,a3,4e4a <_raise_r+0x56>
    4e3c:	47d9                	li	a5,22
    4e3e:	c01c                	sw	a5,0(s0)
    4e40:	4505                	li	a0,1
    4e42:	40f2                	lw	ra,28(sp)
    4e44:	4462                	lw	s0,24(sp)
    4e46:	6105                	addi	sp,sp,32
    4e48:	8082                	ret
    4e4a:	852e                	mv	a0,a1
    4e4c:	0007a023          	sw	zero,0(a5)
    4e50:	9702                	jalr	a4
    4e52:	4501                	li	a0,0
    4e54:	b7fd                	j	4e42 <_raise_r+0x4e>

00004e56 <raise>:
raise():
    4e56:	80818793          	addi	a5,gp,-2040 # 20000090 <_impure_ptr>
    4e5a:	85aa                	mv	a1,a0
    4e5c:	4388                	lw	a0,0(a5)
    4e5e:	bf59                	j	4df4 <_raise_r>

00004e60 <_kill_r>:
_kill_r():
    4e60:	1141                	addi	sp,sp,-16
    4e62:	c422                	sw	s0,8(sp)
    4e64:	842a                	mv	s0,a0
    4e66:	852e                	mv	a0,a1
    4e68:	85b2                	mv	a1,a2
    4e6a:	8e01ae23          	sw	zero,-1796(gp) # 20000184 <errno>
    4e6e:	c606                	sw	ra,12(sp)
    4e70:	2429                	jal	507a <_kill>
    4e72:	57fd                	li	a5,-1
    4e74:	00f51763          	bne	a0,a5,4e82 <_kill_r+0x22>
    4e78:	8fc18793          	addi	a5,gp,-1796 # 20000184 <errno>
    4e7c:	439c                	lw	a5,0(a5)
    4e7e:	c391                	beqz	a5,4e82 <_kill_r+0x22>
    4e80:	c01c                	sw	a5,0(s0)
    4e82:	40b2                	lw	ra,12(sp)
    4e84:	4422                	lw	s0,8(sp)
    4e86:	0141                	addi	sp,sp,16
    4e88:	8082                	ret

00004e8a <_getpid_r>:
_getpid_r():
    4e8a:	aae1                	j	5062 <_getpid>

00004e8c <__sread>:
__sread():
    4e8c:	1141                	addi	sp,sp,-16
    4e8e:	c422                	sw	s0,8(sp)
    4e90:	842e                	mv	s0,a1
    4e92:	00e59583          	lh	a1,14(a1)
    4e96:	c606                	sw	ra,12(sp)
    4e98:	2259                	jal	501e <_read_r>
    4e9a:	00054963          	bltz	a0,4eac <__sread+0x20>
    4e9e:	487c                	lw	a5,84(s0)
    4ea0:	97aa                	add	a5,a5,a0
    4ea2:	c87c                	sw	a5,84(s0)
    4ea4:	40b2                	lw	ra,12(sp)
    4ea6:	4422                	lw	s0,8(sp)
    4ea8:	0141                	addi	sp,sp,16
    4eaa:	8082                	ret
    4eac:	00c45783          	lhu	a5,12(s0)
    4eb0:	777d                	lui	a4,0xfffff
    4eb2:	177d                	addi	a4,a4,-1
    4eb4:	8ff9                	and	a5,a5,a4
    4eb6:	00f41623          	sh	a5,12(s0)
    4eba:	b7ed                	j	4ea4 <__sread+0x18>

00004ebc <__swrite>:
__swrite():
    4ebc:	00c5d783          	lhu	a5,12(a1)
    4ec0:	1101                	addi	sp,sp,-32
    4ec2:	cc22                	sw	s0,24(sp)
    4ec4:	ca26                	sw	s1,20(sp)
    4ec6:	c84a                	sw	s2,16(sp)
    4ec8:	c64e                	sw	s3,12(sp)
    4eca:	ce06                	sw	ra,28(sp)
    4ecc:	1007f793          	andi	a5,a5,256
    4ed0:	84aa                	mv	s1,a0
    4ed2:	842e                	mv	s0,a1
    4ed4:	8932                	mv	s2,a2
    4ed6:	89b6                	mv	s3,a3
    4ed8:	c791                	beqz	a5,4ee4 <__swrite+0x28>
    4eda:	00e59583          	lh	a1,14(a1)
    4ede:	4689                	li	a3,2
    4ee0:	4601                	li	a2,0
    4ee2:	2231                	jal	4fee <_lseek_r>
    4ee4:	00c45783          	lhu	a5,12(s0)
    4ee8:	777d                	lui	a4,0xfffff
    4eea:	177d                	addi	a4,a4,-1
    4eec:	8ff9                	and	a5,a5,a4
    4eee:	00f41623          	sh	a5,12(s0)
    4ef2:	00e41583          	lh	a1,14(s0)
    4ef6:	4462                	lw	s0,24(sp)
    4ef8:	40f2                	lw	ra,28(sp)
    4efa:	86ce                	mv	a3,s3
    4efc:	864a                	mv	a2,s2
    4efe:	49b2                	lw	s3,12(sp)
    4f00:	4942                	lw	s2,16(sp)
    4f02:	8526                	mv	a0,s1
    4f04:	44d2                	lw	s1,20(sp)
    4f06:	6105                	addi	sp,sp,32
    4f08:	a83d                	j	4f46 <_write_r>

00004f0a <__sseek>:
__sseek():
    4f0a:	1141                	addi	sp,sp,-16
    4f0c:	c422                	sw	s0,8(sp)
    4f0e:	842e                	mv	s0,a1
    4f10:	00e59583          	lh	a1,14(a1)
    4f14:	c606                	sw	ra,12(sp)
    4f16:	28e1                	jal	4fee <_lseek_r>
    4f18:	57fd                	li	a5,-1
    4f1a:	00c45703          	lhu	a4,12(s0)
    4f1e:	00f51b63          	bne	a0,a5,4f34 <__sseek+0x2a>
    4f22:	77fd                	lui	a5,0xfffff
    4f24:	17fd                	addi	a5,a5,-1
    4f26:	8ff9                	and	a5,a5,a4
    4f28:	00f41623          	sh	a5,12(s0)
    4f2c:	40b2                	lw	ra,12(sp)
    4f2e:	4422                	lw	s0,8(sp)
    4f30:	0141                	addi	sp,sp,16
    4f32:	8082                	ret
    4f34:	6785                	lui	a5,0x1
    4f36:	8fd9                	or	a5,a5,a4
    4f38:	00f41623          	sh	a5,12(s0)
    4f3c:	c868                	sw	a0,84(s0)
    4f3e:	b7fd                	j	4f2c <__sseek+0x22>

00004f40 <__sclose>:
__sclose():
    4f40:	00e59583          	lh	a1,14(a1)
    4f44:	a805                	j	4f74 <_close_r>

00004f46 <_write_r>:
_write_r():
    4f46:	1141                	addi	sp,sp,-16
    4f48:	c422                	sw	s0,8(sp)
    4f4a:	842a                	mv	s0,a0
    4f4c:	852e                	mv	a0,a1
    4f4e:	85b2                	mv	a1,a2
    4f50:	8636                	mv	a2,a3
    4f52:	8e01ae23          	sw	zero,-1796(gp) # 20000184 <errno>
    4f56:	c606                	sw	ra,12(sp)
    4f58:	c70fe0ef          	jal	ra,33c8 <_write>
    4f5c:	57fd                	li	a5,-1
    4f5e:	00f51763          	bne	a0,a5,4f6c <_write_r+0x26>
    4f62:	8fc18793          	addi	a5,gp,-1796 # 20000184 <errno>
    4f66:	439c                	lw	a5,0(a5)
    4f68:	c391                	beqz	a5,4f6c <_write_r+0x26>
    4f6a:	c01c                	sw	a5,0(s0)
    4f6c:	40b2                	lw	ra,12(sp)
    4f6e:	4422                	lw	s0,8(sp)
    4f70:	0141                	addi	sp,sp,16
    4f72:	8082                	ret

00004f74 <_close_r>:
_close_r():
    4f74:	1141                	addi	sp,sp,-16
    4f76:	c422                	sw	s0,8(sp)
    4f78:	842a                	mv	s0,a0
    4f7a:	852e                	mv	a0,a1
    4f7c:	8e01ae23          	sw	zero,-1796(gp) # 20000184 <errno>
    4f80:	c606                	sw	ra,12(sp)
    4f82:	20e1                	jal	504a <_close>
    4f84:	57fd                	li	a5,-1
    4f86:	00f51763          	bne	a0,a5,4f94 <_close_r+0x20>
    4f8a:	8fc18793          	addi	a5,gp,-1796 # 20000184 <errno>
    4f8e:	439c                	lw	a5,0(a5)
    4f90:	c391                	beqz	a5,4f94 <_close_r+0x20>
    4f92:	c01c                	sw	a5,0(s0)
    4f94:	40b2                	lw	ra,12(sp)
    4f96:	4422                	lw	s0,8(sp)
    4f98:	0141                	addi	sp,sp,16
    4f9a:	8082                	ret

00004f9c <_fstat_r>:
_fstat_r():
    4f9c:	1141                	addi	sp,sp,-16
    4f9e:	c422                	sw	s0,8(sp)
    4fa0:	842a                	mv	s0,a0
    4fa2:	852e                	mv	a0,a1
    4fa4:	85b2                	mv	a1,a2
    4fa6:	8e01ae23          	sw	zero,-1796(gp) # 20000184 <errno>
    4faa:	c606                	sw	ra,12(sp)
    4fac:	206d                	jal	5056 <_fstat>
    4fae:	57fd                	li	a5,-1
    4fb0:	00f51763          	bne	a0,a5,4fbe <_fstat_r+0x22>
    4fb4:	8fc18793          	addi	a5,gp,-1796 # 20000184 <errno>
    4fb8:	439c                	lw	a5,0(a5)
    4fba:	c391                	beqz	a5,4fbe <_fstat_r+0x22>
    4fbc:	c01c                	sw	a5,0(s0)
    4fbe:	40b2                	lw	ra,12(sp)
    4fc0:	4422                	lw	s0,8(sp)
    4fc2:	0141                	addi	sp,sp,16
    4fc4:	8082                	ret

00004fc6 <_isatty_r>:
_isatty_r():
    4fc6:	1141                	addi	sp,sp,-16
    4fc8:	c422                	sw	s0,8(sp)
    4fca:	842a                	mv	s0,a0
    4fcc:	852e                	mv	a0,a1
    4fce:	8e01ae23          	sw	zero,-1796(gp) # 20000184 <errno>
    4fd2:	c606                	sw	ra,12(sp)
    4fd4:	2869                	jal	506e <_isatty>
    4fd6:	57fd                	li	a5,-1
    4fd8:	00f51763          	bne	a0,a5,4fe6 <_isatty_r+0x20>
    4fdc:	8fc18793          	addi	a5,gp,-1796 # 20000184 <errno>
    4fe0:	439c                	lw	a5,0(a5)
    4fe2:	c391                	beqz	a5,4fe6 <_isatty_r+0x20>
    4fe4:	c01c                	sw	a5,0(s0)
    4fe6:	40b2                	lw	ra,12(sp)
    4fe8:	4422                	lw	s0,8(sp)
    4fea:	0141                	addi	sp,sp,16
    4fec:	8082                	ret

00004fee <_lseek_r>:
_lseek_r():
    4fee:	1141                	addi	sp,sp,-16
    4ff0:	c422                	sw	s0,8(sp)
    4ff2:	842a                	mv	s0,a0
    4ff4:	852e                	mv	a0,a1
    4ff6:	85b2                	mv	a1,a2
    4ff8:	8636                	mv	a2,a3
    4ffa:	8e01ae23          	sw	zero,-1796(gp) # 20000184 <errno>
    4ffe:	c606                	sw	ra,12(sp)
    5000:	2059                	jal	5086 <_lseek>
    5002:	57fd                	li	a5,-1
    5004:	00f51763          	bne	a0,a5,5012 <_lseek_r+0x24>
    5008:	8fc18793          	addi	a5,gp,-1796 # 20000184 <errno>
    500c:	439c                	lw	a5,0(a5)
    500e:	c391                	beqz	a5,5012 <_lseek_r+0x24>
    5010:	c01c                	sw	a5,0(s0)
    5012:	40b2                	lw	ra,12(sp)
    5014:	4422                	lw	s0,8(sp)
    5016:	0141                	addi	sp,sp,16
    5018:	8082                	ret

0000501a <__malloc_lock>:
__malloc_lock():
    501a:	8082                	ret

0000501c <__malloc_unlock>:
__malloc_unlock():
    501c:	8082                	ret

0000501e <_read_r>:
_read_r():
    501e:	1141                	addi	sp,sp,-16
    5020:	c422                	sw	s0,8(sp)
    5022:	842a                	mv	s0,a0
    5024:	852e                	mv	a0,a1
    5026:	85b2                	mv	a1,a2
    5028:	8636                	mv	a2,a3
    502a:	8e01ae23          	sw	zero,-1796(gp) # 20000184 <errno>
    502e:	c606                	sw	ra,12(sp)
    5030:	208d                	jal	5092 <_read>
    5032:	57fd                	li	a5,-1
    5034:	00f51763          	bne	a0,a5,5042 <_read_r+0x24>
    5038:	8fc18793          	addi	a5,gp,-1796 # 20000184 <errno>
    503c:	439c                	lw	a5,0(a5)
    503e:	c391                	beqz	a5,5042 <_read_r+0x24>
    5040:	c01c                	sw	a5,0(s0)
    5042:	40b2                	lw	ra,12(sp)
    5044:	4422                	lw	s0,8(sp)
    5046:	0141                	addi	sp,sp,16
    5048:	8082                	ret

0000504a <_close>:
_close():
    504a:	05800793          	li	a5,88
    504e:	8ef1ae23          	sw	a5,-1796(gp) # 20000184 <errno>
    5052:	557d                	li	a0,-1
    5054:	8082                	ret

00005056 <_fstat>:
_fstat():
    5056:	05800793          	li	a5,88
    505a:	8ef1ae23          	sw	a5,-1796(gp) # 20000184 <errno>
    505e:	557d                	li	a0,-1
    5060:	8082                	ret

00005062 <_getpid>:
_getpid():
    5062:	05800793          	li	a5,88
    5066:	8ef1ae23          	sw	a5,-1796(gp) # 20000184 <errno>
    506a:	557d                	li	a0,-1
    506c:	8082                	ret

0000506e <_isatty>:
_isatty():
    506e:	05800793          	li	a5,88
    5072:	8ef1ae23          	sw	a5,-1796(gp) # 20000184 <errno>
    5076:	4501                	li	a0,0
    5078:	8082                	ret

0000507a <_kill>:
_kill():
    507a:	05800793          	li	a5,88
    507e:	8ef1ae23          	sw	a5,-1796(gp) # 20000184 <errno>
    5082:	557d                	li	a0,-1
    5084:	8082                	ret

00005086 <_lseek>:
_lseek():
    5086:	05800793          	li	a5,88
    508a:	8ef1ae23          	sw	a5,-1796(gp) # 20000184 <errno>
    508e:	557d                	li	a0,-1
    5090:	8082                	ret

00005092 <_read>:
_read():
    5092:	05800793          	li	a5,88
    5096:	8ef1ae23          	sw	a5,-1796(gp) # 20000184 <errno>
    509a:	557d                	li	a0,-1
    509c:	8082                	ret

0000509e <_sbrk>:
_sbrk():
    509e:	83818793          	addi	a5,gp,-1992 # 200000c0 <heap_end.1518>
    50a2:	439c                	lw	a5,0(a5)
    50a4:	c791                	beqz	a5,50b0 <_sbrk+0x12>
    50a6:	953e                	add	a0,a0,a5
    50a8:	82a1ac23          	sw	a0,-1992(gp) # 200000c0 <heap_end.1518>
    50ac:	853e                	mv	a0,a5
    50ae:	8082                	ret
    50b0:	90018793          	addi	a5,gp,-1792 # 20000188 <_ebss>
    50b4:	953e                	add	a0,a0,a5
    50b6:	82a1ac23          	sw	a0,-1992(gp) # 200000c0 <heap_end.1518>
    50ba:	853e                	mv	a0,a5
    50bc:	8082                	ret

000050be <_exit>:
_exit():
    50be:	a001                	j	50be <_exit>
    50c0:	5f58                	lw	a4,60(a4)
    50c2:	54444957          	0x54444957
    50c6:	3e48                	fld	fa0,184(a2)
    50c8:	0078                	addi	a4,sp,12
    50ca:	0000                	unimp
    50cc:	2e2e                	fld	ft8,200(sp)
    50ce:	62694c2f          	0x62694c2f
    50d2:	6172                	flw	ft2,28(sp)
    50d4:	6972                	flw	fs2,28(sp)
    50d6:	7365                	lui	t1,0xffff9
    50d8:	6565732f          	0x6565732f
    50dc:	6572666b          	0x6572666b
    50e0:	5f65                	li	t5,-7
    50e2:	6570                	flw	fa2,76(a0)
    50e4:	6972                	flw	fs2,28(sp)
    50e6:	6870                	flw	fa2,84(s0)
    50e8:	7265                	lui	tp,0xffff9
    50ea:	6c61                	lui	s8,0x18
    50ec:	4545532f          	0x4545532f
    50f0:	4552464b          	0x4552464b
    50f4:	5f45                	li	t5,-15
    50f6:	44454c4f          	0x44454c4f
    50fa:	632e                	flw	ft6,200(sp)
    50fc:	0000                	unimp
    50fe:	0000                	unimp
    5100:	5928                	lw	a0,112(a0)
    5102:	575f 4449 4854      	0x48544449575f
    5108:	3e29382f          	0x3e29382f
    510c:	0079                	c.nop	30
    510e:	0000                	unimp
    5110:	002d                	c.nop	11
    5112:	0000                	unimp
    5114:	0020                	addi	s0,sp,8
    5116:	0000                	unimp
    5118:	0000002b          	0x2b
    511c:	6425                	lui	s0,0x9
    511e:	0000                	unimp
    5120:	6625                	lui	a2,0x9
    5122:	0000                	unimp
    5124:	6e756f63          	bltu	a0,t2,5822 <_data_lma+0x36a>
    5128:	0074                	addi	a3,sp,12
    512a:	0000                	unimp
    512c:	2e2e                	fld	ft8,200(sp)
    512e:	62694c2f          	0x62694c2f
    5132:	6172                	flw	ft2,28(sp)
    5134:	6972                	flw	fs2,28(sp)
    5136:	7365                	lui	t1,0xffff9
    5138:	6565732f          	0x6565732f
    513c:	6572666b          	0x6572666b
    5140:	5f65                	li	t5,-7
    5142:	696c                	flw	fa1,84(a0)
    5144:	7262                	flw	ft4,56(sp)
    5146:	7261                	lui	tp,0xffff8
    5148:	6569                	lui	a0,0x1a
    514a:	667a2f73          	csrrs	t5,0x667,s4
    514e:	705f 7469 632e      	0x632e7469705f
    5154:	0000                	unimp
    5156:	0000                	unimp
    5158:	7375                	lui	t1,0xffffd
	...

0000515c <oled_6x8>:
	...
    5164:	2f00 0000 0000 0007 0007 1400 147f 147f     ./..............
    5174:	2400 7f2a 122a 6200 0864 2313 3600 5549     .$*.*..bd..#.6IU
    5184:	5022 0000 0305 0000 0000 221c 0041 0000     "P........."A...
    5194:	2241 001c 1400 3e08 1408 0800 3e08 0808     A".....>.....>..
    51a4:	0000 a000 0060 0800 0808 0808 0000 6060     ....`.........``
    51b4:	0000 2000 0810 0204 3e00 4951 3e45 0000     ... .....>QIE>..
    51c4:	7f42 0040 4200 5161 4649 2100 4541 314b     B.@..BaQIF.!AEK1
    51d4:	1800 1214 107f 2700 4545 3945 3c00 494a     .......'EEE9.<JI
    51e4:	3049 0100 0971 0305 3600 4949 3649 0600     I0..q....6III6..
    51f4:	4949 1e29 0000 3636 0000 0000 3656 0000     II)...66....V6..
    5204:	0800 2214 0041 1400 1414 1414 0000 2241     ..."A.........A"
    5214:	0814 0200 5101 0609 3200 5949 3e51 7c00     .....Q...2IYQ>.|
    5224:	1112 7c12 7f00 4949 3649 3e00 4141 2241     ...|..III6.>AAA"
    5234:	7f00 4141 1c22 7f00 4949 4149 7f00 0909     ..AA"...IIIA....
    5244:	0109 3e00 4941 7a49 7f00 0808 7f08 0000     ...>AIIz........
    5254:	7f41 0041 2000 4140 013f 7f00 1408 4122     A.A.. @A?....."A
    5264:	7f00 4040 4040 7f00 0c02 7f02 7f00 0804     ..@@@@..........
    5274:	7f10 3e00 4141 3e41 7f00 0909 0609 3e00     ...>AAA>.......>
    5284:	5141 5e21 7f00 1909 4629 4600 4949 3149     AQ!^....)F.FIII1
    5294:	0100 7f01 0101 3f00 4040 3f40 1f00 4020     .......?@@@?.. @
    52a4:	1f20 3f00 3840 3f40 6300 0814 6314 0700      ..?@8@?.c...c..
    52b4:	7008 0708 6100 4951 4345 0000 417f 0041     .p...aQIEC...AA.
    52c4:	5500 552a 552a 0000 4141 007f 0400 0102     .U*U*U..AA......
    52d4:	0402 4000 4040 4040 0000 0201 0004 2000     ...@@@@@....... 
    52e4:	5454 7854 7f00 4448 3844 3800 4444 2044     TTTx..HDD8.8DDD 
    52f4:	3800 4444 7f48 3800 5454 1854 0800 097e     .8DDH..8TTT...~.
    5304:	0201 1800 a4a4 7ca4 7f00 0408 7804 0000     .......|.....x..
    5314:	7d44 0040 4000 8480 007d 7f00 2810 0044     D}@..@..}....(D.
    5324:	0000 7f41 0040 7c00 1804 7804 7c00 0408     ..A.@..|...x.|..
    5334:	7804 3800 4444 3844 fc00 2424 1824 1800     .x.8DDD8..$$$...
    5344:	2424 fc18 7c00 0408 0804 4800 5454 2054     $$...|.....HTTT 
    5354:	0400 443f 2040 3c00 4040 7c20 1c00 4020     ..?D@ .<@@ |.. @
    5364:	1c20 3c00 3040 3c40 4400 1028 4428 1c00      ..<@0@<.D(.(D..
    5374:	a0a0 7ca0 4400 5464 444c 1414 1414 1414     ...|.DdTLD......

00005384 <__func__.3179>:
    5384:	6c6f 6465 735f 7465 705f 736f 0000 0000     oled_set_pos....

00005394 <GPION>:
    5394:	0800 4001 0c00 4001 1000 4001 1400 4001     ...@...@...@...@

000053a4 <__func__.3543>:
    53a4:	6974 656d 5f72 6970 5f74 6e69 6574 7272     timer_pit_interr
    53b4:	7075 5f74 736d 0000                         upt_ms..

000053bc <TIMERN>:
    53bc:	2c00 4001 0000 4000 0400 4000 0800 4000     .,.@...@...@...@

000053cc <UARTN>:
    53cc:	3800 4001 4400 4000 4800 4000 4c00 4000     .8.@.D.@.H.@.L.@
    53dc:	202c 7566 636e 6974 6e6f 203a 0000 0000     , function: ....
    53ec:	7361 6573 7472 6f69 206e 2522 2273 6620     assertion "%s" f
    53fc:	6961 656c 3a64 6620 6c69 2065 2522 2273     ailed: file "%s"
    540c:	202c 696c 656e 2520 2564 2573 0a73 0000     , line %d%s%s...
    541c:	2d23 2b30 0020 0000 6c68 004c 6665 4567     #-0+ ...hlL.efgE
    542c:	4746 0000 3130 3332 3534 3736 3938 4241     FG..0123456789AB
    543c:	4443 4645 0000 0000 3130 3332 3534 3736     CDEF....01234567
    544c:	3938 6261 6463 6665 0000 0000               89abcdef....

00005458 <__sf_fake_stderr>:
	...

00005478 <__sf_fake_stdin>:
	...

00005498 <__sf_fake_stdout>:
	...
