
3-pit%20demo.elf:     file format elf32-littleriscv
3-pit%20demo.elf
architecture: riscv:rv32, flags 0x00000112:
EXEC_P, HAS_SYMS, D_PAGED
start address 0x00000000

Program Header:
    LOAD off    0x00001000 vaddr 0x00000000 paddr 0x00000000 align 2**12
         filesz 0x00006c7c memsz 0x00006c7c flags r-x
    LOAD off    0x00008000 vaddr 0x20000000 paddr 0x00006c7c align 2**12
         filesz 0x000000a0 memsz 0x0000021c flags rw-
    LOAD off    0x00008800 vaddr 0x20004800 paddr 0x20004800 align 2**12
         filesz 0x00000000 memsz 0x00000800 flags rw-

Sections:
Idx Name           Size      VMA       LMA       File off  Algn  Flags
  0 .init          00000038  00000000  00000000  00001000  2**1  CONTENTS, ALLOC, LOAD, READONLY, CODE
  1 .vector        00000108  00000038  00000038  00001038  2**1  CONTENTS, ALLOC, LOAD, READONLY, CODE
  2 .text          00006b3c  00000140  00000140  00001140  2**3  CONTENTS, ALLOC, LOAD, READONLY, CODE
  3 .fini          00000000  00006c7c  00006c7c  000080a0  2**0  CONTENTS, ALLOC, LOAD, CODE
  4 .dalign        00000000  20000000  20000000  000080a0  2**0  CONTENTS
  5 .dlalign       00000000  00006c7c  00006c7c  000080a0  2**0  CONTENTS
  6 .data          000000a0  20000000  00006c7c  00008000  2**2  CONTENTS, ALLOC, LOAD, DATA
  7 .bss           0000017c  200000a0  00006d1c  000080a0  2**2  ALLOC
  8 .stack         00000800  20004800  20004800  00008800  2**0  ALLOC
  9 .debug_info    00023609  00000000  00000000  000080a0  2**0  CONTENTS, READONLY, DEBUGGING
 10 .debug_abbrev  00004719  00000000  00000000  0002b6a9  2**0  CONTENTS, READONLY, DEBUGGING
 11 .debug_aranges 00000c88  00000000  00000000  0002fdc8  2**3  CONTENTS, READONLY, DEBUGGING
 12 .debug_ranges  00000a78  00000000  00000000  00030a50  2**3  CONTENTS, READONLY, DEBUGGING
 13 .debug_line    0000d696  00000000  00000000  000314c8  2**0  CONTENTS, READONLY, DEBUGGING
 14 .debug_str     00004259  00000000  00000000  0003eb5e  2**0  CONTENTS, READONLY, DEBUGGING
 15 .comment       00000033  00000000  00000000  00042db7  2**0  CONTENTS, READONLY
 16 .debug_frame   0000357c  00000000  00000000  00042dec  2**2  CONTENTS, READONLY, DEBUGGING
 17 .stab          000000b4  00000000  00000000  00046368  2**2  CONTENTS, READONLY, DEBUGGING
 18 .stabstr       00000183  00000000  00000000  0004641c  2**0  CONTENTS, READONLY, DEBUGGING
SYMBOL TABLE:
00000000 l    d  .init	00000000 .init
00000038 l    d  .vector	00000000 .vector
00000140 l    d  .text	00000000 .text
00006c7c l    d  .fini	00000000 .fini
20000000 l    d  .dalign	00000000 .dalign
00006c7c l    d  .dlalign	00000000 .dlalign
20000000 l    d  .data	00000000 .data
200000a0 l    d  .bss	00000000 .bss
20004800 l    d  .stack	00000000 .stack
00000000 l    d  .debug_info	00000000 .debug_info
00000000 l    d  .debug_abbrev	00000000 .debug_abbrev
00000000 l    d  .debug_aranges	00000000 .debug_aranges
00000000 l    d  .debug_ranges	00000000 .debug_ranges
00000000 l    d  .debug_line	00000000 .debug_line
00000000 l    d  .debug_str	00000000 .debug_str
00000000 l    d  .comment	00000000 .comment
00000000 l    d  .debug_frame	00000000 .debug_frame
00000000 l    d  .stab	00000000 .stab
00000000 l    d  .stabstr	00000000 .stabstr
00000000 l    df *ABS*	00000000 ./Libraries/wch_libraries/Startup/startup_ch32v10x.o
00000038 l       .vector	00000000 _vector_base
00000000 l    df *ABS*	00000000 isr.c
00000000 l    df *ABS*	00000000 main.c
00000000 l    df *ABS*	00000000 ch32v10x_exti.c
00000000 l    df *ABS*	00000000 ch32v10x_gpio.c
00000000 l    df *ABS*	00000000 ch32v10x_misc.c
0000070c l     F .text	00000032 NVIC_EnableIRQ
0000073e l     F .text	00000032 NVIC_DisableIRQ
00000770 l     F .text	0000002a NVIC_SetPriority
00000000 l    df *ABS*	00000000 ch32v10x_rcc.c
20000000 l     O .data	00000010 APBAHBPrescTable
20000088 l     O .data	00000004 ADCPrescTable
00000000 l    df *ABS*	00000000 ch32v10x_spi.c
00000000 l    df *ABS*	00000000 ch32v10x_tim.c
00000000 l    df *ABS*	00000000 ch32v10x_usart.c
00000000 l    df *ABS*	00000000 SEEKFREE_ABSOLUTE_ENCODER.c
200000a4 l     O .bss	00000002 new_angle.5740
200000a6 l     O .bss	00000002 old_angle.5739
200000a8 l     O .bss	00000002 new_angle.5746
200000aa l     O .bss	00000002 old_angle.5745
200000ac l     O .bss	00000002 new_angle.5752
200000ae l     O .bss	00000002 old_angle.5751
200000b0 l     O .bss	00000002 new_angle.5758
200000b2 l     O .bss	00000002 old_angle.5757
00000000 l    df *ABS*	00000000 SEEKFREE_OLED.c
000069b8 l     O .text	0000000d __func__.3179
00000000 l    df *ABS*	00000000 zf_gpio.c
00000000 l    df *ABS*	00000000 zf_nvic.c
00000000 l    df *ABS*	00000000 zf_pit.c
000069d8 l     O .text	00000017 __func__.3543
00000000 l    df *ABS*	00000000 zf_pwm.c
00000000 l    df *ABS*	00000000 zf_spi.c
00006a00 l     O .text	0000000e __func__.3348
00000000 l    df *ABS*	00000000 zf_systick.c
00000000 l    df *ABS*	00000000 zf_uart.c
00000000 l    df *ABS*	00000000 board.c
00000000 l    df *ABS*	00000000 clock_config.c
00003cae l     F .text	00000140 SetSysClock
00000000 l    df *ABS*	00000000 Control.c
00000000 l    df *ABS*	00000000 Get_deta.c
200000bc l     O .bss	00000001 uart_num.6117
00000000 l    df *ABS*	00000000 Init.c
00000000 l    df *ABS*	00000000 Key.c
200000c0 l     O .bss	00000006 keytime.6137
00000000 l    df *ABS*	00000000 encode.c
00000000 l    df *ABS*	00000000 menu.c
00000000 l    df *ABS*	00000000 divdf3.c
00000000 l    df *ABS*	00000000 muldf3.c
00000000 l    df *ABS*	00000000 fixdfsi.c
00000000 l    df *ABS*	00000000 floatsidf.c
00000000 l    df *ABS*	00000000 libgcc2.c
00000000 l    df *ABS*	00000000 assert.c
00000000 l    df *ABS*	00000000 fprintf.c
00000000 l    df *ABS*	00000000 nano-vfprintf.c
000054ca l     F .text	00000028 __sfputc_r
00000000 l    df *ABS*	00000000 nano-vfprintf_i.c
00000000 l    df *ABS*	00000000 wbuf.c
00000000 l    df *ABS*	00000000 wsetup.c
00000000 l    df *ABS*	00000000 abort.c
00000000 l    df *ABS*	00000000 fflush.c
00000000 l    df *ABS*	00000000 findfp.c
00005f02 l     F .text	0000006a std
00000000 l    df *ABS*	00000000 fwalk.c
00000000 l    df *ABS*	00000000 makebuf.c
00000000 l    df *ABS*	00000000 memchr.c
00000000 l    df *ABS*	00000000 nano-mallocr.c
00000000 l    df *ABS*	00000000 nano-mallocr.c
00000000 l    df *ABS*	00000000 sbrkr.c
00000000 l    df *ABS*	00000000 signal.c
00000000 l    df *ABS*	00000000 signalr.c
00000000 l    df *ABS*	00000000 stdio.c
00000000 l    df *ABS*	00000000 writer.c
00000000 l    df *ABS*	00000000 closer.c
00000000 l    df *ABS*	00000000 fstatr.c
00000000 l    df *ABS*	00000000 isattyr.c
00000000 l    df *ABS*	00000000 lseekr.c
00000000 l    df *ABS*	00000000 mlock.c
00000000 l    df *ABS*	00000000 readr.c
00000000 l    df *ABS*	00000000 close.c
00000000 l    df *ABS*	00000000 fstat.c
00000000 l    df *ABS*	00000000 getpid.c
00000000 l    df *ABS*	00000000 isatty.c
00000000 l    df *ABS*	00000000 kill.c
00000000 l    df *ABS*	00000000 lseek.c
00000000 l    df *ABS*	00000000 read.c
00000000 l    df *ABS*	00000000 sbrk.c
200000d8 l     O .bss	00000004 heap_end.1518
00000000 l    df *ABS*	00000000 _exit.c
00000000 l    df *ABS*	00000000 SEEKFREE_FONT.c
00000000 l    df *ABS*	00000000 zf_qtimer.c
00000000 l    df *ABS*	00000000 libgcc2.c
00000000 l    df *ABS*	00000000 impure.c
20000028 l     O .data	00000060 impure_data
00000000 l    df *ABS*	00000000 Flash.c
00000000 l    df *ABS*	00000000 common.c
00000000 l    df *ABS*	00000000 Motor.c
00000000 l    df *ABS*	00000000 reent.c
000065b2 g     F .text	00000028 _isatty_r
0000664e g     F .text	0000000c _getpid
000065da g     F .text	0000002c _lseek_r
200000e8 g     O .bss	00000002 slave_b
200000be g     O .bss	00000001 key_msg_rear
0000644c g     F .text	0000002a _kill_r
20000888 g       .data	00000000 __global_pointer$
000064f6 g     F .text	00000036 __sseek
00005fbc g     F .text	0000006c __sinit
00005b86 g     F .text	000000c0 __swbuf_r
00005f76 g     F .text	00000046 __sfmoreglue
00002274 g     F .text	00000104 encoder3_speed_spi
00006608 g     F .text	00000002 __malloc_unlock
0000411e g     F .text	00000078 key_init
000015fa g     F .text	0000004c TIM_OC1PreloadConfig
0000463e g     F .text	00000018 Menu_player
200000bd g     O .bss	00000001 key_msg_front
0000079a g     F .text	00000226 NVIC_Init
200000b8 g     O .bss	00000004 sys_clk
2000019c g     O .bss	0000001c motor_4
000026ce g     F .text	0000012e oled_init
200000ea g     O .bss	00000002 slave_c
200001b8 g     O .bss	00000002 RF
00004866 g     F .text	0000003a Menu_Image
00001c10 g     F .text	00000046 USART_GetFlagStatus
00006588 g     F .text	0000002a _fstat_r
000048a0 g     F .text	0000001c Menu_Line
000069f0 g     O .text	00000010 TIMERN
20000218 g     O .bss	00000004 errno
200000a0 g       .bss	00000000 _sbss
00000800 g       *ABS*	00000000 __stack_size
200000ec g     O .bss	0000000b temp_buff
200000c8 g     O .bss	00000004 interact_signal
00004106 g     F .text	00000018 running
200000f7 g     O .bss	00000001 uart_flag
0000152a g     F .text	00000060 TIM_CtrlPWMOutputs
00005f6c g     F .text	0000000a _cleanup_r
000005d0 g     F .text	0000013c GPIO_PinRemapConfig
00005384 g     F .text	00000070 .hidden __floatsidf
00003e82 g     F .text	00000040 EXTI0_IRQHandler
00003ec2 g     F .text	00000086 get_slave_data
000014d2 g     F .text	00000058 TIM_Cmd
200001ba g     O .bss	00000002 RB
000016ec g     F .text	0000005a TIM_OC4PreloadConfig
00002c66 g     F .text	00000066 gpio_toggle
00001bea g     F .text	00000026 USART_ReceiveData
000063de g     F .text	00000062 _raise_r
00006642 g     F .text	0000000c _fstat
000037e4 g     F .text	00000134 spi_init
0000546a g     F .text	0000003a __assert_func
00000038 g       .init	00000000 _einit
00002d86 g     F .text	00000028 sys_recover_irq
000018fa g     F .text	0000002e TIM_ClearITPendingBit
00000bda g     F .text	00000046 RCC_APB2PeriphClockCmd
00004320 g     F .text	00000146 key_IRQHandler
00006476 g     F .text	00000002 _getpid_r
0000036e g     F .text	0000022a GPIO_Init
00002ccc g     F .text	00000098 nvic_init
200000a0 g     O .bss	00000004 NVIC_Priority_Group
00001b5c g     F .text	00000060 USART_Cmd
000041ce g     F .text	000000aa send_key_msg
000063b6 g     F .text	00000028 _sbrk_r
0000471c g     F .text	00000090 Menu_Key_Page_Handle
000011d8 g     F .text	000001b0 TIM_OC3Init
0000660a g     F .text	0000002c _read_r
00001dd6 g     F .text	00000126 encoder_spi_w_reg_byte
00001d58 g     F .text	0000004e USART_ClearITPendingBit
20000094 g     O .data	00000008 SPIN
200000bf g     O .bss	00000001 key_msg_flag
00000c20 g     F .text	00000046 RCC_APB1PeriphClockCmd
0000665a g     F .text	0000000c _isatty
200001bc g     O .bss	00000002 LB
2000009c g     O .data	00000004 _global_impure_ptr
00003f48 g     F .text	000000cc data_analysis
000017e8 g     F .text	0000004c TIM_OC3FastConfig
00005d52 g     F .text	0000000e abort
00002dd2 g     F .text	0000015e timer_pit_interrupt_ms
0000668a g     F .text	00000020 _sbrk
200000f8 g     O .bss	00000001 show_flag
0000034e g     F .text	00000020 EXTI_ClearITPendingBit
2000021c g       .bss	00000000 _ebss
00001c56 g     F .text	00000102 USART_GetITStatus
00000eb2 g     F .text	00000170 TIM_OC1Init
000016a0 g     F .text	0000004c TIM_OC3PreloadConfig
0000531c g     F .text	00000068 .hidden __fixdfsi
00004656 g     F .text	000000c6 Menu_Getsign
000039da g     F .text	00000070 systick_delay
000047e2 g     F .text	00000084 Menu_Main
00004466 g     F .text	000001d8 encode
00006a10 g     O .text	00000010 UARTN
00003294 g     F .text	000003c2 pwm_init
000054a4 g     F .text	00000026 fprintf
00000598 g     F .text	00000038 GPIO_WriteBit
00002650 g     F .text	0000007e oled_hexascii
00006c1c g     O .text	00000020 __sf_fake_stderr
2000021c g       .bss	00000000 end
00004278 g     F .text	000000a8 get_key_msg
00004014 g     F .text	000000f2 Init_ALL
0000188a g     F .text	00000070 TIM_GetITStatus
000009c0 g     F .text	0000021a RCC_GetClocksFreq
000053f4 g     F .text	00000076 .hidden __clzsi2
000054f2 g     F .text	00000044 __sfputs_r
00003b36 g     F .text	000000ba uart_init
0000622a g     F .text	0000001a memchr
00001928 g     F .text	00000234 USART_Init
00002896 g     F .text	0000006a oled_fill
00006244 g     F .text	000000a4 _free_r
00002c10 g     F .text	00000056 gpio_get
000001e8 g     F .text	00000034 TIM3_IRQHandler
00002dae g     F .text	00000024 EnableGlobalIRQ
00003a4a g     F .text	000000ec uart_gpio_init
00001746 g     F .text	0000004c TIM_OC1FastConfig
00000000 g       .init	00000000 _start
00006672 g     F .text	0000000c _lseek
00001646 g     F .text	0000005a TIM_OC2PreloadConfig
00002d64 g     F .text	00000022 close_all_irq
0000206c g     F .text	00000104 encoder1_speed_spi
000069c8 g     O .text	00000010 GPION
0000158a g     F .text	00000070 TIM_ITConfig
00001022 g     F .text	000001b6 TIM_OC2Init
00002900 g     F .text	000000d2 oled_p6x8str
200000cc g     O .bss	00000004 interact_page
00006560 g     F .text	00000028 _close_r
20000000 g       .dalign	00000000 _data_vma
00001388 g     F .text	0000014a TIM_OC4Init
00005c46 g     F .text	0000010c __swsetup_r
000048bc g     F .text	000005b0 .hidden __divdf3
00006028 g     F .text	000000a0 __sfp
2000008c g     O .data	00000004 flash_a_test
200000c6 g     O .bss	00000001 change_enable
00003bf0 g     F .text	00000046 board_init
00004e6c g     F .text	000004b0 .hidden __muldf3
00006478 g     F .text	00000030 __sread
00001da6 g     F .text	00000030 spi_wr_byte
00006606 g     F .text	00000002 __malloc_lock
00005e9c g     F .text	00000066 _fflush_r
00003e6a g     F .text	00000018 main_control
000002f8 g     F .text	00000056 EXTI_GetITStatus
00006c3c g     O .text	00000020 __sf_fake_stdin
000024aa g     F .text	0000004a encoder_init_spi
00000140 g     F .text	000000a8 memset
0000026c g     F .text	00000012 main
00002170 g     F .text	00000104 encoder2_speed_spi
0000652c g     F .text	00000006 __sclose
000062e8 g     F .text	000000ce _malloc_r
00001792 g     F .text	00000056 TIM_OC2FastConfig
00000d5e g     F .text	0000005a SPI_Cmd
0000247c g     F .text	0000002e encoder_self5_check
00003dee g     F .text	0000007c SystemInit
00006aa0 g     O .text	00000100 .hidden __clz_tab
00000000 g       .init	00000000 _sinit
00006532 g     F .text	0000002e _write_r
000024f4 g     F .text	000000ae oled_wrdat
200000dc g     O .bss	0000000c irq_status
000057d6 g     F .text	0000010c _printf_common
20000090 g     O .data	00000004 _impure_ptr
00004196 g     F .text	00000038 key_get
00005d60 g     F .text	0000013c __sflush_r
200001c0 g     O .bss	0000001c motor_2
00006790 g     O .text	00000228 oled_6x8
200000fa g     O .bss	00000002 slave_a
20005000 g       .stack	00000000 _eusrstack
000047ac g     F .text	00000036 Menu_Display
200000b4 g     O .bss	00000001 close_all_irq_flag
00006134 g     F .text	00000058 __swhatbuf_r
00001bbc g     F .text	0000002e USART_SendData
00003c36 g     F .text	00000078 _write
200000a0 g       .data	00000000 _edata
200001dc g     O .bss	00000002 LF
00000db8 g     F .text	000000fa TIM_TimeBaseInit
00006c7c g       .dlalign	00000000 _data_lma
0000021c g     F .text	00000050 USART2_IRQHandler
000064a8 g     F .text	0000004e __swrite
000054a4 g     F .text	00000026 fiprintf
00005536 g     F .text	000002a0 _vfiprintf_r
00003918 g     F .text	000000c2 spi_mosi
000060c8 g     F .text	0000006c _fwalk_reent
20000010 g     O .data	00000018 KEY_PTxn
00006666 g     F .text	0000000c _kill
200001e0 g     O .bss	0000001c motor_3
000027fc g     F .text	0000009a oled_set_pos
00001efc g     F .text	00000112 encoder_spi_r_reg_byte
200000fc g     O .bss	000000a0 key_msg
00006c5c g     O .text	00000020 __sf_fake_stdout
0000667e g     F .text	0000000c _read
0000027e  w      .text	00000000 handle_reset
00002f30 g     F .text	00000364 pwm_gpio_init
000066aa g     F .text	00000002 _exit
0000200e g     F .text	0000005e set_zero_position_spi
0000618c g     F .text	0000009e __smakebuf_r
000058e2 g     F .text	000002a4 _printf_i
200000d4 g     O .bss	00000004 __malloc_sbrk_start
00002378 g     F .text	00000104 encoder4_speed_spi
00000c66 g     F .text	000000f8 SPI_Init
00003656 g     F .text	0000018e spi_gpio_init
00002a6c g     F .text	000001a4 gpio_init
200000d0 g     O .bss	00000004 __malloc_free_list
00005536 g     F .text	000002a0 _vfprintf_r
00001834 g     F .text	00000056 TIM_OC4FastConfig
000029d2 g     F .text	0000009a oled_int16
000025a2 g     F .text	000000ae oled_wrcmd
200001fc g     O .bss	0000001c motor_1
00006636 g     F .text	0000000c _close
00006440 g     F .text	0000000c raise



Disassembly of section .init:

00000000 <_sinit>:
_start():
D:\WCH\代码\3-PIT%20Demo\obj/../Libraries/wch_libraries/Startup/startup_ch32v10x.S:13

	.section	.init,"ax",@progbits
	.global	_start
	.align	1
_start:
	j	handle_reset
   0:	27e0006f          	j	27e <handle_reset>
   4:	00000013          	nop
   8:	00000013          	nop
   c:	00000013          	nop
  10:	00000013          	nop
  14:	00000013          	nop
  18:	00000013          	nop
  1c:	00000013          	nop
  20:	00000013          	nop
  24:	00000013          	nop
  28:	00000013          	nop
  2c:	00000013          	nop
  30:	00000013          	nop
  34:	00100073          	ebreak

Disassembly of section .vector:

00000038 <_vector_base>:
_vector_base():
D:\WCH\代码\3-PIT%20Demo\obj/../Libraries/wch_libraries/Startup/startup_ch32v10x.S:31
	.word 0x00100073
    .section    .vector,"ax",@progbits
    .align  1
_vector_base:
    .option norvc;
        j   _start
  38:	fc9ff06f          	j	0 <_sinit>
  3c:	0000                	unimp
  3e:	0000                	unimp
D:\WCH\代码\3-PIT%20Demo\obj/../Libraries/wch_libraries/Startup/startup_ch32v10x.S:33
    .word   0
        j   NMI_Handler                 /* NMI Handler */
  40:	fc1ff06f          	j	0 <_sinit>
D:\WCH\代码\3-PIT%20Demo\obj/../Libraries/wch_libraries/Startup/startup_ch32v10x.S:34
        j   HardFault_Handler           /* Hard Fault Handler */
  44:	fbdff06f          	j	0 <_sinit>
	...
D:\WCH\代码\3-PIT%20Demo\obj/../Libraries/wch_libraries/Startup/startup_ch32v10x.S:43
    .word   0
    .word   0
    .word   0
    .word   0
    .word   0
        j   SysTick_Handler            /* SysTick Handler */
  68:	f99ff06f          	j	0 <_sinit>
  6c:	0000                	unimp
  6e:	0000                	unimp
D:\WCH\代码\3-PIT%20Demo\obj/../Libraries/wch_libraries/Startup/startup_ch32v10x.S:45
    .word   0
        j   SW_handler                 /* SW Handler */
  70:	f91ff06f          	j	0 <_sinit>
  74:	0000                	unimp
  76:	0000                	unimp
D:\WCH\代码\3-PIT%20Demo\obj/../Libraries/wch_libraries/Startup/startup_ch32v10x.S:48
    .word   0
    /* External Interrupts */
        j   WWDG_IRQHandler            /* Window Watchdog */
  78:	f89ff06f          	j	0 <_sinit>
D:\WCH\代码\3-PIT%20Demo\obj/../Libraries/wch_libraries/Startup/startup_ch32v10x.S:49
        j   PVD_IRQHandler             /* PVD through EXTI Line detect */
  7c:	f85ff06f          	j	0 <_sinit>
D:\WCH\代码\3-PIT%20Demo\obj/../Libraries/wch_libraries/Startup/startup_ch32v10x.S:50
        j   TAMPER_IRQHandler          /* TAMPER */
  80:	f81ff06f          	j	0 <_sinit>
D:\WCH\代码\3-PIT%20Demo\obj/../Libraries/wch_libraries/Startup/startup_ch32v10x.S:51
        j   RTC_IRQHandler             /* RTC */
  84:	f7dff06f          	j	0 <_sinit>
D:\WCH\代码\3-PIT%20Demo\obj/../Libraries/wch_libraries/Startup/startup_ch32v10x.S:52
        j   FLASH_IRQHandler           /* Flash */
  88:	f79ff06f          	j	0 <_sinit>
D:\WCH\代码\3-PIT%20Demo\obj/../Libraries/wch_libraries/Startup/startup_ch32v10x.S:53
        j   RCC_IRQHandler             /* RCC */
  8c:	f75ff06f          	j	0 <_sinit>
D:\WCH\代码\3-PIT%20Demo\obj/../Libraries/wch_libraries/Startup/startup_ch32v10x.S:54
        j   EXTI0_IRQHandler           /* EXTI Line 0 */
  90:	5f30306f          	j	3e82 <EXTI0_IRQHandler>
D:\WCH\代码\3-PIT%20Demo\obj/../Libraries/wch_libraries/Startup/startup_ch32v10x.S:55
        j   EXTI1_IRQHandler           /* EXTI Line 1 */
  94:	f6dff06f          	j	0 <_sinit>
D:\WCH\代码\3-PIT%20Demo\obj/../Libraries/wch_libraries/Startup/startup_ch32v10x.S:56
        j   EXTI2_IRQHandler           /* EXTI Line 2 */
  98:	f69ff06f          	j	0 <_sinit>
D:\WCH\代码\3-PIT%20Demo\obj/../Libraries/wch_libraries/Startup/startup_ch32v10x.S:57
        j   EXTI3_IRQHandler           /* EXTI Line 3 */
  9c:	f65ff06f          	j	0 <_sinit>
D:\WCH\代码\3-PIT%20Demo\obj/../Libraries/wch_libraries/Startup/startup_ch32v10x.S:58
        j   EXTI4_IRQHandler           /* EXTI Line 4 */
  a0:	f61ff06f          	j	0 <_sinit>
D:\WCH\代码\3-PIT%20Demo\obj/../Libraries/wch_libraries/Startup/startup_ch32v10x.S:59
        j   DMA1_Channel1_IRQHandler   /* DMA1 Channel 1 */
  a4:	f5dff06f          	j	0 <_sinit>
D:\WCH\代码\3-PIT%20Demo\obj/../Libraries/wch_libraries/Startup/startup_ch32v10x.S:60
        j   DMA1_Channel2_IRQHandler   /* DMA1 Channel 2 */
  a8:	f59ff06f          	j	0 <_sinit>
D:\WCH\代码\3-PIT%20Demo\obj/../Libraries/wch_libraries/Startup/startup_ch32v10x.S:61
        j   DMA1_Channel3_IRQHandler   /* DMA1 Channel 3 */
  ac:	f55ff06f          	j	0 <_sinit>
D:\WCH\代码\3-PIT%20Demo\obj/../Libraries/wch_libraries/Startup/startup_ch32v10x.S:62
        j   DMA1_Channel4_IRQHandler   /* DMA1 Channel 4 */
  b0:	f51ff06f          	j	0 <_sinit>
D:\WCH\代码\3-PIT%20Demo\obj/../Libraries/wch_libraries/Startup/startup_ch32v10x.S:63
        j   DMA1_Channel5_IRQHandler   /* DMA1 Channel 5 */
  b4:	f4dff06f          	j	0 <_sinit>
D:\WCH\代码\3-PIT%20Demo\obj/../Libraries/wch_libraries/Startup/startup_ch32v10x.S:64
        j   DMA1_Channel6_IRQHandler   /* DMA1 Channel 6 */
  b8:	f49ff06f          	j	0 <_sinit>
D:\WCH\代码\3-PIT%20Demo\obj/../Libraries/wch_libraries/Startup/startup_ch32v10x.S:65
        j   DMA1_Channel7_IRQHandler   /* DMA1 Channel 7 */
  bc:	f45ff06f          	j	0 <_sinit>
D:\WCH\代码\3-PIT%20Demo\obj/../Libraries/wch_libraries/Startup/startup_ch32v10x.S:66
        j   ADC1_2_IRQHandler          /* ADC1_2 */
  c0:	f41ff06f          	j	0 <_sinit>
	...
D:\WCH\代码\3-PIT%20Demo\obj/../Libraries/wch_libraries/Startup/startup_ch32v10x.S:71
        .word   0
        .word   0
        .word   0
        .word   0
        j   EXTI9_5_IRQHandler         /* EXTI Line 9..5 */
  d4:	f2dff06f          	j	0 <_sinit>
D:\WCH\代码\3-PIT%20Demo\obj/../Libraries/wch_libraries/Startup/startup_ch32v10x.S:72
        j   TIM1_BRK_IRQHandler        /* TIM1 Break */
  d8:	f29ff06f          	j	0 <_sinit>
D:\WCH\代码\3-PIT%20Demo\obj/../Libraries/wch_libraries/Startup/startup_ch32v10x.S:73
        j   TIM1_UP_IRQHandler         /* TIM1 Update */
  dc:	f25ff06f          	j	0 <_sinit>
D:\WCH\代码\3-PIT%20Demo\obj/../Libraries/wch_libraries/Startup/startup_ch32v10x.S:74
        j   TIM1_TRG_COM_IRQHandler    /* TIM1 Trigger and Commutation */
  e0:	f21ff06f          	j	0 <_sinit>
D:\WCH\代码\3-PIT%20Demo\obj/../Libraries/wch_libraries/Startup/startup_ch32v10x.S:75
        j   TIM1_CC_IRQHandler         /* TIM1 Capture Compare */
  e4:	f1dff06f          	j	0 <_sinit>
D:\WCH\代码\3-PIT%20Demo\obj/../Libraries/wch_libraries/Startup/startup_ch32v10x.S:76
        j   TIM2_IRQHandler            /* TIM2 */
  e8:	f19ff06f          	j	0 <_sinit>
D:\WCH\代码\3-PIT%20Demo\obj/../Libraries/wch_libraries/Startup/startup_ch32v10x.S:77
        j   TIM3_IRQHandler            /* TIM3 */
  ec:	0fc0006f          	j	1e8 <TIM3_IRQHandler>
D:\WCH\代码\3-PIT%20Demo\obj/../Libraries/wch_libraries/Startup/startup_ch32v10x.S:78
        j   TIM4_IRQHandler            /* TIM4 */
  f0:	f11ff06f          	j	0 <_sinit>
D:\WCH\代码\3-PIT%20Demo\obj/../Libraries/wch_libraries/Startup/startup_ch32v10x.S:79
        j   I2C1_EV_IRQHandler         /* I2C1 Event */
  f4:	f0dff06f          	j	0 <_sinit>
D:\WCH\代码\3-PIT%20Demo\obj/../Libraries/wch_libraries/Startup/startup_ch32v10x.S:80
        j   I2C1_ER_IRQHandler         /* I2C1 Error */
  f8:	f09ff06f          	j	0 <_sinit>
D:\WCH\代码\3-PIT%20Demo\obj/../Libraries/wch_libraries/Startup/startup_ch32v10x.S:81
        j   I2C2_EV_IRQHandler         /* I2C2 Event */
  fc:	f05ff06f          	j	0 <_sinit>
D:\WCH\代码\3-PIT%20Demo\obj/../Libraries/wch_libraries/Startup/startup_ch32v10x.S:82
        j   I2C2_ER_IRQHandler         /* I2C2 Error */
 100:	f01ff06f          	j	0 <_sinit>
D:\WCH\代码\3-PIT%20Demo\obj/../Libraries/wch_libraries/Startup/startup_ch32v10x.S:83
        j   SPI1_IRQHandler            /* SPI1 */
 104:	efdff06f          	j	0 <_sinit>
D:\WCH\代码\3-PIT%20Demo\obj/../Libraries/wch_libraries/Startup/startup_ch32v10x.S:84
        j   SPI2_IRQHandler            /* SPI2 */
 108:	ef9ff06f          	j	0 <_sinit>
D:\WCH\代码\3-PIT%20Demo\obj/../Libraries/wch_libraries/Startup/startup_ch32v10x.S:85
        j   USART1_IRQHandler          /* USART1 */
 10c:	ef5ff06f          	j	0 <_sinit>
D:\WCH\代码\3-PIT%20Demo\obj/../Libraries/wch_libraries/Startup/startup_ch32v10x.S:86
        j   USART2_IRQHandler          /* USART2 */
 110:	10c0006f          	j	21c <USART2_IRQHandler>
D:\WCH\代码\3-PIT%20Demo\obj/../Libraries/wch_libraries/Startup/startup_ch32v10x.S:87
        j   USART3_IRQHandler          /* USART3 */
 114:	eedff06f          	j	0 <_sinit>
D:\WCH\代码\3-PIT%20Demo\obj/../Libraries/wch_libraries/Startup/startup_ch32v10x.S:88
        j   EXTI15_10_IRQHandler       /* EXTI Line 15..10 */
 118:	ee9ff06f          	j	0 <_sinit>
D:\WCH\代码\3-PIT%20Demo\obj/../Libraries/wch_libraries/Startup/startup_ch32v10x.S:89
        j   RTCAlarm_IRQHandler        /* RTC Alarm through EXTI Line */
 11c:	ee5ff06f          	j	0 <_sinit>
D:\WCH\代码\3-PIT%20Demo\obj/../Libraries/wch_libraries/Startup/startup_ch32v10x.S:90
        j   USBWakeUp_IRQHandler       /* USB Wakeup from suspend */
 120:	ee1ff06f          	j	0 <_sinit>
D:\WCH\代码\3-PIT%20Demo\obj/../Libraries/wch_libraries/Startup/startup_ch32v10x.S:91
        j   USBHD_IRQHandler           /* USBHD */
 124:	eddff06f          	j	0 <_sinit>
	...

Disassembly of section .text:

00000140 <memset>:
memset():
     140:	433d                	li	t1,15
     142:	872a                	mv	a4,a0
     144:	02c37363          	bgeu	t1,a2,16a <memset+0x2a>
     148:	00f77793          	andi	a5,a4,15
     14c:	efbd                	bnez	a5,1ca <memset+0x8a>
     14e:	e5ad                	bnez	a1,1b8 <memset+0x78>
     150:	ff067693          	andi	a3,a2,-16
     154:	8a3d                	andi	a2,a2,15
     156:	96ba                	add	a3,a3,a4
     158:	c30c                	sw	a1,0(a4)
     15a:	c34c                	sw	a1,4(a4)
     15c:	c70c                	sw	a1,8(a4)
     15e:	c74c                	sw	a1,12(a4)
     160:	0741                	addi	a4,a4,16
     162:	fed76be3          	bltu	a4,a3,158 <memset+0x18>
     166:	e211                	bnez	a2,16a <memset+0x2a>
     168:	8082                	ret
     16a:	40c306b3          	sub	a3,t1,a2
     16e:	068a                	slli	a3,a3,0x2
     170:	00000297          	auipc	t0,0x0
     174:	9696                	add	a3,a3,t0
     176:	00a68067          	jr	10(a3)
     17a:	00b70723          	sb	a1,14(a4)
     17e:	00b706a3          	sb	a1,13(a4)
     182:	00b70623          	sb	a1,12(a4)
     186:	00b705a3          	sb	a1,11(a4)
     18a:	00b70523          	sb	a1,10(a4)
     18e:	00b704a3          	sb	a1,9(a4)
     192:	00b70423          	sb	a1,8(a4)
     196:	00b703a3          	sb	a1,7(a4)
     19a:	00b70323          	sb	a1,6(a4)
     19e:	00b702a3          	sb	a1,5(a4)
     1a2:	00b70223          	sb	a1,4(a4)
     1a6:	00b701a3          	sb	a1,3(a4)
     1aa:	00b70123          	sb	a1,2(a4)
     1ae:	00b700a3          	sb	a1,1(a4)
     1b2:	00b70023          	sb	a1,0(a4)
     1b6:	8082                	ret
     1b8:	0ff5f593          	andi	a1,a1,255
     1bc:	00859693          	slli	a3,a1,0x8
     1c0:	8dd5                	or	a1,a1,a3
     1c2:	01059693          	slli	a3,a1,0x10
     1c6:	8dd5                	or	a1,a1,a3
     1c8:	b761                	j	150 <memset+0x10>
     1ca:	00279693          	slli	a3,a5,0x2
     1ce:	00000297          	auipc	t0,0x0
     1d2:	9696                	add	a3,a3,t0
     1d4:	8286                	mv	t0,ra
     1d6:	fa8680e7          	jalr	-88(a3)
     1da:	8096                	mv	ra,t0
     1dc:	17c1                	addi	a5,a5,-16
     1de:	8f1d                	sub	a4,a4,a5
     1e0:	963e                	add	a2,a2,a5
     1e2:	f8c374e3          	bgeu	t1,a2,16a <memset+0x2a>
     1e6:	b7a5                	j	14e <memset+0xe>

000001e8 <TIM3_IRQHandler>:
TIM3_IRQHandler():
D:\WCH\代码\3-pit%20demo\obj/../USER/isr.c:37
//定时器2 四路pwm
//定时器3 主中断
//定时器2 四路pwm（总共八路）

void TIM3_IRQHandler(void)
{
     1e8:	1141                	addi	sp,sp,-16
     1ea:	c622                	sw	s0,12(sp)
     1ec:	0800                	addi	s0,sp,16
D:\WCH\代码\3-pit%20demo\obj/../USER/isr.c:39

    if(TIM_GetITStatus(TIM3, TIM_IT_Update) != RESET)
     1ee:	4585                	li	a1,1
     1f0:	400007b7          	lui	a5,0x40000
     1f4:	40078513          	addi	a0,a5,1024 # 40000400 <_eusrstack+0x1fffb400>
     1f8:	692010ef          	jal	ra,188a <TIM_GetITStatus>
     1fc:	87aa                	mv	a5,a0
     1fe:	cb91                	beqz	a5,212 <TIM3_IRQHandler+0x2a>
D:\WCH\代码\3-pit%20demo\obj/../USER/isr.c:41
    {
        TIM_ClearITPendingBit(TIM3, TIM_IT_Update );
     200:	4585                	li	a1,1
     202:	400007b7          	lui	a5,0x40000
     206:	40078513          	addi	a0,a5,1024 # 40000400 <_eusrstack+0x1fffb400>
     20a:	6f0010ef          	jal	ra,18fa <TIM_ClearITPendingBit>
D:\WCH\代码\3-pit%20demo\obj/../USER/isr.c:45
       // flash_a_test++;


        encode();
     20e:	258040ef          	jal	ra,4466 <encode>
D:\WCH\代码\3-pit%20demo\obj/../USER/isr.c:54
//        velocity_R = (RF+RB)/2;
//
//        PID_motor(wheels.v1,wheels.v4,wheels.v2,wheels.v3,DIRF);  //速度设置

    }
}
     212:	0001                	nop
     214:	4432                	lw	s0,12(sp)
     216:	0141                	addi	sp,sp,16
     218:	30200073          	mret

0000021c <USART2_IRQHandler>:
USART2_IRQHandler():
D:\WCH\代码\3-pit%20demo\obj/../USER/isr.c:57

void USART2_IRQHandler(void)
{
     21c:	1101                	addi	sp,sp,-32
     21e:	ce22                	sw	s0,28(sp)
     220:	1000                	addi	s0,sp,32
D:\WCH\代码\3-pit%20demo\obj/../USER/isr.c:59
    uint8 dat;
    if(USART_GetITStatus(USART2, USART_IT_RXNE) != RESET)
     222:	52500593          	li	a1,1317
     226:	400047b7          	lui	a5,0x40004
     22a:	40078513          	addi	a0,a5,1024 # 40004400 <_eusrstack+0x1ffff400>
     22e:	229010ef          	jal	ra,1c56 <USART_GetITStatus>
     232:	87aa                	mv	a5,a0
     234:	c79d                	beqz	a5,262 <USART2_IRQHandler+0x46>
D:\WCH\代码\3-pit%20demo\obj/../USER/isr.c:61
    {
        USART_ClearITPendingBit(USART2, USART_IT_RXNE); //清除串口接收中断标志位
     236:	52500593          	li	a1,1317
     23a:	400047b7          	lui	a5,0x40004
     23e:	40078513          	addi	a0,a5,1024 # 40004400 <_eusrstack+0x1ffff400>
     242:	317010ef          	jal	ra,1d58 <USART_ClearITPendingBit>
D:\WCH\代码\3-pit%20demo\obj/../USER/isr.c:62
        dat = USART_ReceiveData(USART2);                //获取串口数据
     246:	400047b7          	lui	a5,0x40004
     24a:	40078513          	addi	a0,a5,1024 # 40004400 <_eusrstack+0x1ffff400>
     24e:	19d010ef          	jal	ra,1bea <USART_ReceiveData>
     252:	87aa                	mv	a5,a0
     254:	fef407a3          	sb	a5,-17(s0)
D:\WCH\代码\3-pit%20demo\obj/../USER/isr.c:63
        get_slave_data(dat);                            //将每一个字节的串口数据存入temp_buff中。
     258:	fef44783          	lbu	a5,-17(s0)
     25c:	853e                	mv	a0,a5
     25e:	465030ef          	jal	ra,3ec2 <get_slave_data>
D:\WCH\代码\3-pit%20demo\obj/../USER/isr.c:65
    }
}
     262:	0001                	nop
     264:	4472                	lw	s0,28(sp)
     266:	6105                	addi	sp,sp,32
     268:	30200073          	mret

0000026c <main>:
main():
D:\WCH\代码\3-pit%20demo\obj/../USER/main.c:5
#include "FIRELOCK.h"


int main(void)
{
     26c:	1141                	addi	sp,sp,-16
     26e:	c606                	sw	ra,12(sp)
     270:	c422                	sw	s0,8(sp)
     272:	0800                	addi	s0,sp,16
D:\WCH\代码\3-pit%20demo\obj/../USER/main.c:7

    Init_ALL();//flash_page_read ( FLASH_SECTION_00,  FLASH_PAGE_0, (uint32 *)&flash_a_test, 16);
     274:	5a1030ef          	jal	ra,4014 <Init_ALL>
D:\WCH\代码\3-pit%20demo\obj/../USER/main.c:15 (discriminator 1)
//        //将第15个扇区的第0页 读取到read_buff中
//flash_page_program(FLASH_SECTION_15, FLASH_PAGE_3, write_buff, 10);

    while(1)
    {
       running();
     278:	68f030ef          	jal	ra,4106 <running>
     27c:	bff5                	j	278 <main+0xc>

0000027e <handle_reset>:
handle_reset():
D:\WCH\代码\3-PIT%20Demo\obj/../Libraries/wch_libraries/Startup/startup_ch32v10x.S:147
	.weak	handle_reset
	.align	1
handle_reset:
.option push 
.option	norelax 
	la gp, __global_pointer$
     27e:	20000197          	auipc	gp,0x20000
     282:	60a18193          	addi	gp,gp,1546 # 20000888 <__global_pointer$>
D:\WCH\代码\3-PIT%20Demo\obj/../Libraries/wch_libraries/Startup/startup_ch32v10x.S:150
.option	pop 
1:
	la sp, _eusrstack 
     286:	20005117          	auipc	sp,0x20005
     28a:	d7a10113          	addi	sp,sp,-646 # 20005000 <_eusrstack>
D:\WCH\代码\3-PIT%20Demo\obj/../Libraries/wch_libraries/Startup/startup_ch32v10x.S:153
2:
	/* Load data section from flash to RAM */
	la a0, _data_lma
     28e:	00007517          	auipc	a0,0x7
     292:	9ee50513          	addi	a0,a0,-1554 # 6c7c <_data_lma>
D:\WCH\代码\3-PIT%20Demo\obj/../Libraries/wch_libraries/Startup/startup_ch32v10x.S:154
	la a1, _data_vma
     296:	20000597          	auipc	a1,0x20000
     29a:	d6a58593          	addi	a1,a1,-662 # 20000000 <_data_vma>
D:\WCH\代码\3-PIT%20Demo\obj/../Libraries/wch_libraries/Startup/startup_ch32v10x.S:155
	la a2, _edata
     29e:	81818613          	addi	a2,gp,-2024 # 200000a0 <_edata>
D:\WCH\代码\3-PIT%20Demo\obj/../Libraries/wch_libraries/Startup/startup_ch32v10x.S:156
	bgeu a1, a2, 2f
     2a2:	00c5fa63          	bgeu	a1,a2,2b6 <handle_reset+0x38>
D:\WCH\代码\3-PIT%20Demo\obj/../Libraries/wch_libraries/Startup/startup_ch32v10x.S:158
1:
	lw t0, (a0)
     2a6:	00052283          	lw	t0,0(a0)
D:\WCH\代码\3-PIT%20Demo\obj/../Libraries/wch_libraries/Startup/startup_ch32v10x.S:159
	sw t0, (a1)
     2aa:	0055a023          	sw	t0,0(a1)
D:\WCH\代码\3-PIT%20Demo\obj/../Libraries/wch_libraries/Startup/startup_ch32v10x.S:160
	addi a0, a0, 4
     2ae:	0511                	addi	a0,a0,4
D:\WCH\代码\3-PIT%20Demo\obj/../Libraries/wch_libraries/Startup/startup_ch32v10x.S:161
	addi a1, a1, 4
     2b0:	0591                	addi	a1,a1,4
D:\WCH\代码\3-PIT%20Demo\obj/../Libraries/wch_libraries/Startup/startup_ch32v10x.S:162
	bltu a1, a2, 1b
     2b2:	fec5eae3          	bltu	a1,a2,2a6 <handle_reset+0x28>
D:\WCH\代码\3-PIT%20Demo\obj/../Libraries/wch_libraries/Startup/startup_ch32v10x.S:165
2:
	/* clear bss section */
	la a0, _sbss
     2b6:	81818513          	addi	a0,gp,-2024 # 200000a0 <_edata>
D:\WCH\代码\3-PIT%20Demo\obj/../Libraries/wch_libraries/Startup/startup_ch32v10x.S:166
	la a1, _ebss
     2ba:	99418593          	addi	a1,gp,-1644 # 2000021c <_ebss>
D:\WCH\代码\3-PIT%20Demo\obj/../Libraries/wch_libraries/Startup/startup_ch32v10x.S:167
	bgeu a0, a1, 2f
     2be:	00b57763          	bgeu	a0,a1,2cc <handle_reset+0x4e>
D:\WCH\代码\3-PIT%20Demo\obj/../Libraries/wch_libraries/Startup/startup_ch32v10x.S:169
1:
	sw zero, (a0)
     2c2:	00052023          	sw	zero,0(a0)
D:\WCH\代码\3-PIT%20Demo\obj/../Libraries/wch_libraries/Startup/startup_ch32v10x.S:170
	addi a0, a0, 4
     2c6:	0511                	addi	a0,a0,4
D:\WCH\代码\3-PIT%20Demo\obj/../Libraries/wch_libraries/Startup/startup_ch32v10x.S:171
	bltu a0, a1, 1b
     2c8:	feb56de3          	bltu	a0,a1,2c2 <handle_reset+0x44>
D:\WCH\代码\3-PIT%20Demo\obj/../Libraries/wch_libraries/Startup/startup_ch32v10x.S:174
2:
	/* enable all interrupt */
  li t0, 0x88
     2cc:	08800293          	li	t0,136
D:\WCH\代码\3-PIT%20Demo\obj/../Libraries/wch_libraries/Startup/startup_ch32v10x.S:175
  csrs mstatus, t0
     2d0:	3002a073          	csrs	mstatus,t0
D:\WCH\代码\3-PIT%20Demo\obj/../Libraries/wch_libraries/Startup/startup_ch32v10x.S:176
	la t0, _vector_base
     2d4:	00000297          	auipc	t0,0x0
     2d8:	d6428293          	addi	t0,t0,-668 # 38 <_einit>
D:\WCH\代码\3-PIT%20Demo\obj/../Libraries/wch_libraries/Startup/startup_ch32v10x.S:177
  ori t0, t0, 1
     2dc:	0012e293          	ori	t0,t0,1
D:\WCH\代码\3-PIT%20Demo\obj/../Libraries/wch_libraries/Startup/startup_ch32v10x.S:178
	csrw mtvec, t0
     2e0:	30529073          	csrw	mtvec,t0
D:\WCH\代码\3-PIT%20Demo\obj/../Libraries/wch_libraries/Startup/startup_ch32v10x.S:180

  jal  SystemInit
     2e4:	30b030ef          	jal	ra,3dee <SystemInit>
D:\WCH\代码\3-PIT%20Demo\obj/../Libraries/wch_libraries/Startup/startup_ch32v10x.S:181
	la t0, main
     2e8:	00000297          	auipc	t0,0x0
     2ec:	f8428293          	addi	t0,t0,-124 # 26c <main>
D:\WCH\代码\3-PIT%20Demo\obj/../Libraries/wch_libraries/Startup/startup_ch32v10x.S:182
	csrw mepc, t0
     2f0:	34129073          	csrw	mepc,t0
D:\WCH\代码\3-PIT%20Demo\obj/../Libraries/wch_libraries/Startup/startup_ch32v10x.S:183
	mret
     2f4:	30200073          	mret

000002f8 <EXTI_GetITStatus>:
EXTI_GetITStatus():
D:\WCH\代码\3-PIT%20Demo\obj/../Libraries/wch_libraries/Peripheral/ch32v10x_exti.c:131
* Description    : Checks whether the specified EXTI line is asserted or not.
* Input          : EXTI_Line: specifies the EXTI lines to be enabled or disabled.
* Return         : The new state of EXTI_Line (SET or RESET).
*********************************************************************************/	
ITStatus EXTI_GetITStatus(uint32_t EXTI_Line)
{
     2f8:	7179                	addi	sp,sp,-48
     2fa:	d622                	sw	s0,44(sp)
     2fc:	1800                	addi	s0,sp,48
     2fe:	fca42e23          	sw	a0,-36(s0)
D:\WCH\代码\3-PIT%20Demo\obj/../Libraries/wch_libraries/Peripheral/ch32v10x_exti.c:132
  ITStatus bitstatus = RESET;
     302:	fe042623          	sw	zero,-20(s0)
D:\WCH\代码\3-PIT%20Demo\obj/../Libraries/wch_libraries/Peripheral/ch32v10x_exti.c:133
  uint32_t enablestatus = 0;
     306:	fe042423          	sw	zero,-24(s0)
D:\WCH\代码\3-PIT%20Demo\obj/../Libraries/wch_libraries/Peripheral/ch32v10x_exti.c:135
  
  enablestatus =  EXTI->INTENR & EXTI_Line;
     30a:	400107b7          	lui	a5,0x40010
     30e:	40078793          	addi	a5,a5,1024 # 40010400 <_eusrstack+0x2000b400>
     312:	439c                	lw	a5,0(a5)
     314:	fdc42703          	lw	a4,-36(s0)
     318:	8ff9                	and	a5,a5,a4
     31a:	fef42423          	sw	a5,-24(s0)
D:\WCH\代码\3-PIT%20Demo\obj/../Libraries/wch_libraries/Peripheral/ch32v10x_exti.c:136
  if (((EXTI->INTFR & EXTI_Line) != (uint32_t)RESET) && (enablestatus != (uint32_t)RESET))
     31e:	400107b7          	lui	a5,0x40010
     322:	40078793          	addi	a5,a5,1024 # 40010400 <_eusrstack+0x2000b400>
     326:	4bd8                	lw	a4,20(a5)
     328:	fdc42783          	lw	a5,-36(s0)
     32c:	8ff9                	and	a5,a5,a4
     32e:	cb81                	beqz	a5,33e <EXTI_GetITStatus+0x46>
D:\WCH\代码\3-PIT%20Demo\obj/../Libraries/wch_libraries/Peripheral/ch32v10x_exti.c:136 (discriminator 1)
     330:	fe842783          	lw	a5,-24(s0)
     334:	c789                	beqz	a5,33e <EXTI_GetITStatus+0x46>
D:\WCH\代码\3-PIT%20Demo\obj/../Libraries/wch_libraries/Peripheral/ch32v10x_exti.c:138
  {
    bitstatus = SET;
     336:	4785                	li	a5,1
     338:	fef42623          	sw	a5,-20(s0)
     33c:	a019                	j	342 <EXTI_GetITStatus+0x4a>
D:\WCH\代码\3-PIT%20Demo\obj/../Libraries/wch_libraries/Peripheral/ch32v10x_exti.c:142
  }
  else
  {
    bitstatus = RESET;
     33e:	fe042623          	sw	zero,-20(s0)
D:\WCH\代码\3-PIT%20Demo\obj/../Libraries/wch_libraries/Peripheral/ch32v10x_exti.c:144
  }
  return bitstatus;
     342:	fec42783          	lw	a5,-20(s0)
D:\WCH\代码\3-PIT%20Demo\obj/../Libraries/wch_libraries/Peripheral/ch32v10x_exti.c:145
}
     346:	853e                	mv	a0,a5
     348:	5432                	lw	s0,44(sp)
     34a:	6145                	addi	sp,sp,48
     34c:	8082                	ret

0000034e <EXTI_ClearITPendingBit>:
EXTI_ClearITPendingBit():
D:\WCH\代码\3-PIT%20Demo\obj/../Libraries/wch_libraries/Peripheral/ch32v10x_exti.c:154
* Description    : Clears the EXTI's line pending bits.
* Input          : EXTI_Line: specifies the EXTI lines to be enabled or disabled.
* Return         : None
*********************************************************************************/
void EXTI_ClearITPendingBit(uint32_t EXTI_Line)
{  
     34e:	1101                	addi	sp,sp,-32
     350:	ce22                	sw	s0,28(sp)
     352:	1000                	addi	s0,sp,32
     354:	fea42623          	sw	a0,-20(s0)
D:\WCH\代码\3-PIT%20Demo\obj/../Libraries/wch_libraries/Peripheral/ch32v10x_exti.c:155
  EXTI->INTFR = EXTI_Line;
     358:	400107b7          	lui	a5,0x40010
     35c:	40078793          	addi	a5,a5,1024 # 40010400 <_eusrstack+0x2000b400>
     360:	fec42703          	lw	a4,-20(s0)
     364:	cbd8                	sw	a4,20(a5)
D:\WCH\代码\3-PIT%20Demo\obj/../Libraries/wch_libraries/Peripheral/ch32v10x_exti.c:156
}
     366:	0001                	nop
     368:	4472                	lw	s0,28(sp)
     36a:	6105                	addi	sp,sp,32
     36c:	8082                	ret

0000036e <GPIO_Init>:
GPIO_Init():
D:\WCH\代码\3-PIT%20Demo\obj/../Libraries/wch_libraries/Peripheral/ch32v10x_gpio.c:88
* Input          : GPIO_InitStruct: pointer to a GPIO_InitTypeDef structure that
*      contains the configuration information for the specified GPIO peripheral.
* Return         : None
*******************************************************************************/
void GPIO_Init(GPIO_TypeDef* GPIOx, GPIO_InitTypeDef* GPIO_InitStruct)
{
     36e:	7139                	addi	sp,sp,-64
     370:	de22                	sw	s0,60(sp)
     372:	0080                	addi	s0,sp,64
     374:	fca42623          	sw	a0,-52(s0)
     378:	fcb42423          	sw	a1,-56(s0)
D:\WCH\代码\3-PIT%20Demo\obj/../Libraries/wch_libraries/Peripheral/ch32v10x_gpio.c:89
  uint32_t currentmode = 0x00, currentpin = 0x00, pinpos = 0x00, pos = 0x00;
     37c:	fe042623          	sw	zero,-20(s0)
     380:	fe042023          	sw	zero,-32(s0)
     384:	fe042423          	sw	zero,-24(s0)
     388:	fc042e23          	sw	zero,-36(s0)
D:\WCH\代码\3-PIT%20Demo\obj/../Libraries/wch_libraries/Peripheral/ch32v10x_gpio.c:90
  uint32_t tmpreg = 0x00, pinmask = 0x00;
     38c:	fe042223          	sw	zero,-28(s0)
     390:	fc042c23          	sw	zero,-40(s0)
D:\WCH\代码\3-PIT%20Demo\obj/../Libraries/wch_libraries/Peripheral/ch32v10x_gpio.c:92

  currentmode = ((uint32_t)GPIO_InitStruct->GPIO_Mode) & ((uint32_t)0x0F);
     394:	fc842783          	lw	a5,-56(s0)
     398:	479c                	lw	a5,8(a5)
     39a:	8bbd                	andi	a5,a5,15
     39c:	fef42623          	sw	a5,-20(s0)
D:\WCH\代码\3-PIT%20Demo\obj/../Libraries/wch_libraries/Peripheral/ch32v10x_gpio.c:94
	
  if ((((uint32_t)GPIO_InitStruct->GPIO_Mode) & ((uint32_t)0x10)) != 0x00)
     3a0:	fc842783          	lw	a5,-56(s0)
     3a4:	479c                	lw	a5,8(a5)
     3a6:	8bc1                	andi	a5,a5,16
     3a8:	cb89                	beqz	a5,3ba <GPIO_Init+0x4c>
D:\WCH\代码\3-PIT%20Demo\obj/../Libraries/wch_libraries/Peripheral/ch32v10x_gpio.c:96
  { 
    currentmode |= (uint32_t)GPIO_InitStruct->GPIO_Speed;
     3aa:	fc842783          	lw	a5,-56(s0)
     3ae:	43dc                	lw	a5,4(a5)
     3b0:	fec42703          	lw	a4,-20(s0)
     3b4:	8fd9                	or	a5,a5,a4
     3b6:	fef42623          	sw	a5,-20(s0)
D:\WCH\代码\3-PIT%20Demo\obj/../Libraries/wch_libraries/Peripheral/ch32v10x_gpio.c:99
  }

  if (((uint32_t)GPIO_InitStruct->GPIO_Pin & ((uint32_t)0x00FF)) != 0x00)
     3ba:	fc842783          	lw	a5,-56(s0)
     3be:	0007d783          	lhu	a5,0(a5)
     3c2:	0ff7f793          	andi	a5,a5,255
     3c6:	cff1                	beqz	a5,4a2 <GPIO_Init+0x134>
D:\WCH\代码\3-PIT%20Demo\obj/../Libraries/wch_libraries/Peripheral/ch32v10x_gpio.c:101
  {
    tmpreg = GPIOx->CFGLR;
     3c8:	fcc42783          	lw	a5,-52(s0)
     3cc:	439c                	lw	a5,0(a5)
     3ce:	fef42223          	sw	a5,-28(s0)
D:\WCH\代码\3-PIT%20Demo\obj/../Libraries/wch_libraries/Peripheral/ch32v10x_gpio.c:103
		
    for (pinpos = 0x00; pinpos < 0x08; pinpos++)
     3d2:	fe042423          	sw	zero,-24(s0)
     3d6:	a865                	j	48e <GPIO_Init+0x120>
D:\WCH\代码\3-PIT%20Demo\obj/../Libraries/wch_libraries/Peripheral/ch32v10x_gpio.c:105
    {
      pos = ((uint32_t)0x01) << pinpos;
     3d8:	fe842783          	lw	a5,-24(s0)
     3dc:	4705                	li	a4,1
     3de:	00f717b3          	sll	a5,a4,a5
     3e2:	fcf42e23          	sw	a5,-36(s0)
D:\WCH\代码\3-PIT%20Demo\obj/../Libraries/wch_libraries/Peripheral/ch32v10x_gpio.c:106
      currentpin = (GPIO_InitStruct->GPIO_Pin) & pos;
     3e6:	fc842783          	lw	a5,-56(s0)
     3ea:	0007d783          	lhu	a5,0(a5)
     3ee:	873e                	mv	a4,a5
     3f0:	fdc42783          	lw	a5,-36(s0)
     3f4:	8ff9                	and	a5,a5,a4
     3f6:	fef42023          	sw	a5,-32(s0)
D:\WCH\代码\3-PIT%20Demo\obj/../Libraries/wch_libraries/Peripheral/ch32v10x_gpio.c:108
			
      if (currentpin == pos)
     3fa:	fe042703          	lw	a4,-32(s0)
     3fe:	fdc42783          	lw	a5,-36(s0)
     402:	08f71163          	bne	a4,a5,484 <GPIO_Init+0x116>
D:\WCH\代码\3-PIT%20Demo\obj/../Libraries/wch_libraries/Peripheral/ch32v10x_gpio.c:110
      {
        pos = pinpos << 2;
     406:	fe842783          	lw	a5,-24(s0)
     40a:	078a                	slli	a5,a5,0x2
     40c:	fcf42e23          	sw	a5,-36(s0)
D:\WCH\代码\3-PIT%20Demo\obj/../Libraries/wch_libraries/Peripheral/ch32v10x_gpio.c:111
        pinmask = ((uint32_t)0x0F) << pos;
     410:	fdc42783          	lw	a5,-36(s0)
     414:	473d                	li	a4,15
     416:	00f717b3          	sll	a5,a4,a5
     41a:	fcf42c23          	sw	a5,-40(s0)
D:\WCH\代码\3-PIT%20Demo\obj/../Libraries/wch_libraries/Peripheral/ch32v10x_gpio.c:112
        tmpreg &= ~pinmask;
     41e:	fd842783          	lw	a5,-40(s0)
     422:	fff7c793          	not	a5,a5
     426:	fe442703          	lw	a4,-28(s0)
     42a:	8ff9                	and	a5,a5,a4
     42c:	fef42223          	sw	a5,-28(s0)
D:\WCH\代码\3-PIT%20Demo\obj/../Libraries/wch_libraries/Peripheral/ch32v10x_gpio.c:113
        tmpreg |= (currentmode << pos);
     430:	fdc42783          	lw	a5,-36(s0)
     434:	fec42703          	lw	a4,-20(s0)
     438:	00f717b3          	sll	a5,a4,a5
     43c:	fe442703          	lw	a4,-28(s0)
     440:	8fd9                	or	a5,a5,a4
     442:	fef42223          	sw	a5,-28(s0)
D:\WCH\代码\3-PIT%20Demo\obj/../Libraries/wch_libraries/Peripheral/ch32v10x_gpio.c:115

        if (GPIO_InitStruct->GPIO_Mode == GPIO_Mode_IPD)
     446:	fc842783          	lw	a5,-56(s0)
     44a:	4798                	lw	a4,8(a5)
     44c:	02800793          	li	a5,40
     450:	00f71b63          	bne	a4,a5,466 <GPIO_Init+0xf8>
D:\WCH\代码\3-PIT%20Demo\obj/../Libraries/wch_libraries/Peripheral/ch32v10x_gpio.c:117
        {
          GPIOx->BCR = (((uint32_t)0x01) << pinpos);
     454:	fe842783          	lw	a5,-24(s0)
     458:	4705                	li	a4,1
     45a:	00f71733          	sll	a4,a4,a5
     45e:	fcc42783          	lw	a5,-52(s0)
     462:	cbd8                	sw	a4,20(a5)
     464:	a005                	j	484 <GPIO_Init+0x116>
D:\WCH\代码\3-PIT%20Demo\obj/../Libraries/wch_libraries/Peripheral/ch32v10x_gpio.c:121
        }
        else
        {
          if (GPIO_InitStruct->GPIO_Mode == GPIO_Mode_IPU)
     466:	fc842783          	lw	a5,-56(s0)
     46a:	4798                	lw	a4,8(a5)
     46c:	04800793          	li	a5,72
     470:	00f71a63          	bne	a4,a5,484 <GPIO_Init+0x116>
D:\WCH\代码\3-PIT%20Demo\obj/../Libraries/wch_libraries/Peripheral/ch32v10x_gpio.c:123
          {
            GPIOx->BSHR = (((uint32_t)0x01) << pinpos);
     474:	fe842783          	lw	a5,-24(s0)
     478:	4705                	li	a4,1
     47a:	00f71733          	sll	a4,a4,a5
     47e:	fcc42783          	lw	a5,-52(s0)
     482:	cb98                	sw	a4,16(a5)
D:\WCH\代码\3-PIT%20Demo\obj/../Libraries/wch_libraries/Peripheral/ch32v10x_gpio.c:103 (discriminator 2)
    for (pinpos = 0x00; pinpos < 0x08; pinpos++)
     484:	fe842783          	lw	a5,-24(s0)
     488:	0785                	addi	a5,a5,1
     48a:	fef42423          	sw	a5,-24(s0)
D:\WCH\代码\3-PIT%20Demo\obj/../Libraries/wch_libraries/Peripheral/ch32v10x_gpio.c:103 (discriminator 1)
     48e:	fe842703          	lw	a4,-24(s0)
     492:	479d                	li	a5,7
     494:	f4e7f2e3          	bgeu	a5,a4,3d8 <GPIO_Init+0x6a>
D:\WCH\代码\3-PIT%20Demo\obj/../Libraries/wch_libraries/Peripheral/ch32v10x_gpio.c:128
          }
        }
      }
    }
    GPIOx->CFGLR = tmpreg;
     498:	fcc42783          	lw	a5,-52(s0)
     49c:	fe442703          	lw	a4,-28(s0)
     4a0:	c398                	sw	a4,0(a5)
D:\WCH\代码\3-PIT%20Demo\obj/../Libraries/wch_libraries/Peripheral/ch32v10x_gpio.c:131
  }

  if (GPIO_InitStruct->GPIO_Pin > 0x00FF)
     4a2:	fc842783          	lw	a5,-56(s0)
     4a6:	0007d703          	lhu	a4,0(a5)
     4aa:	0ff00793          	li	a5,255
     4ae:	0ee7f163          	bgeu	a5,a4,590 <GPIO_Init+0x222>
D:\WCH\代码\3-PIT%20Demo\obj/../Libraries/wch_libraries/Peripheral/ch32v10x_gpio.c:133
  {
    tmpreg = GPIOx->CFGHR;
     4b2:	fcc42783          	lw	a5,-52(s0)
     4b6:	43dc                	lw	a5,4(a5)
     4b8:	fef42223          	sw	a5,-28(s0)
D:\WCH\代码\3-PIT%20Demo\obj/../Libraries/wch_libraries/Peripheral/ch32v10x_gpio.c:135
		
    for (pinpos = 0x00; pinpos < 0x08; pinpos++)
     4bc:	fe042423          	sw	zero,-24(s0)
     4c0:	a875                	j	57c <GPIO_Init+0x20e>
D:\WCH\代码\3-PIT%20Demo\obj/../Libraries/wch_libraries/Peripheral/ch32v10x_gpio.c:137
    {
      pos = (((uint32_t)0x01) << (pinpos + 0x08));
     4c2:	fe842783          	lw	a5,-24(s0)
     4c6:	07a1                	addi	a5,a5,8
     4c8:	4705                	li	a4,1
     4ca:	00f717b3          	sll	a5,a4,a5
     4ce:	fcf42e23          	sw	a5,-36(s0)
D:\WCH\代码\3-PIT%20Demo\obj/../Libraries/wch_libraries/Peripheral/ch32v10x_gpio.c:138
      currentpin = ((GPIO_InitStruct->GPIO_Pin) & pos);
     4d2:	fc842783          	lw	a5,-56(s0)
     4d6:	0007d783          	lhu	a5,0(a5)
     4da:	873e                	mv	a4,a5
     4dc:	fdc42783          	lw	a5,-36(s0)
     4e0:	8ff9                	and	a5,a5,a4
     4e2:	fef42023          	sw	a5,-32(s0)
D:\WCH\代码\3-PIT%20Demo\obj/../Libraries/wch_libraries/Peripheral/ch32v10x_gpio.c:140
			
      if (currentpin == pos)
     4e6:	fe042703          	lw	a4,-32(s0)
     4ea:	fdc42783          	lw	a5,-36(s0)
     4ee:	08f71263          	bne	a4,a5,572 <GPIO_Init+0x204>
D:\WCH\代码\3-PIT%20Demo\obj/../Libraries/wch_libraries/Peripheral/ch32v10x_gpio.c:142
      {
        pos = pinpos << 2;
     4f2:	fe842783          	lw	a5,-24(s0)
     4f6:	078a                	slli	a5,a5,0x2
     4f8:	fcf42e23          	sw	a5,-36(s0)
D:\WCH\代码\3-PIT%20Demo\obj/../Libraries/wch_libraries/Peripheral/ch32v10x_gpio.c:143
        pinmask = ((uint32_t)0x0F) << pos;
     4fc:	fdc42783          	lw	a5,-36(s0)
     500:	473d                	li	a4,15
     502:	00f717b3          	sll	a5,a4,a5
     506:	fcf42c23          	sw	a5,-40(s0)
D:\WCH\代码\3-PIT%20Demo\obj/../Libraries/wch_libraries/Peripheral/ch32v10x_gpio.c:144
        tmpreg &= ~pinmask;
     50a:	fd842783          	lw	a5,-40(s0)
     50e:	fff7c793          	not	a5,a5
     512:	fe442703          	lw	a4,-28(s0)
     516:	8ff9                	and	a5,a5,a4
     518:	fef42223          	sw	a5,-28(s0)
D:\WCH\代码\3-PIT%20Demo\obj/../Libraries/wch_libraries/Peripheral/ch32v10x_gpio.c:145
        tmpreg |= (currentmode << pos);
     51c:	fdc42783          	lw	a5,-36(s0)
     520:	fec42703          	lw	a4,-20(s0)
     524:	00f717b3          	sll	a5,a4,a5
     528:	fe442703          	lw	a4,-28(s0)
     52c:	8fd9                	or	a5,a5,a4
     52e:	fef42223          	sw	a5,-28(s0)
D:\WCH\代码\3-PIT%20Demo\obj/../Libraries/wch_libraries/Peripheral/ch32v10x_gpio.c:147

        if (GPIO_InitStruct->GPIO_Mode == GPIO_Mode_IPD)
     532:	fc842783          	lw	a5,-56(s0)
     536:	4798                	lw	a4,8(a5)
     538:	02800793          	li	a5,40
     53c:	00f71b63          	bne	a4,a5,552 <GPIO_Init+0x1e4>
D:\WCH\代码\3-PIT%20Demo\obj/../Libraries/wch_libraries/Peripheral/ch32v10x_gpio.c:149
        {
          GPIOx->BCR = (((uint32_t)0x01) << (pinpos + 0x08));
     540:	fe842783          	lw	a5,-24(s0)
     544:	07a1                	addi	a5,a5,8
     546:	4705                	li	a4,1
     548:	00f71733          	sll	a4,a4,a5
     54c:	fcc42783          	lw	a5,-52(s0)
     550:	cbd8                	sw	a4,20(a5)
D:\WCH\代码\3-PIT%20Demo\obj/../Libraries/wch_libraries/Peripheral/ch32v10x_gpio.c:152
        }

        if (GPIO_InitStruct->GPIO_Mode == GPIO_Mode_IPU)
     552:	fc842783          	lw	a5,-56(s0)
     556:	4798                	lw	a4,8(a5)
     558:	04800793          	li	a5,72
     55c:	00f71b63          	bne	a4,a5,572 <GPIO_Init+0x204>
D:\WCH\代码\3-PIT%20Demo\obj/../Libraries/wch_libraries/Peripheral/ch32v10x_gpio.c:154
        {
          GPIOx->BSHR = (((uint32_t)0x01) << (pinpos + 0x08));
     560:	fe842783          	lw	a5,-24(s0)
     564:	07a1                	addi	a5,a5,8
     566:	4705                	li	a4,1
     568:	00f71733          	sll	a4,a4,a5
     56c:	fcc42783          	lw	a5,-52(s0)
     570:	cb98                	sw	a4,16(a5)
D:\WCH\代码\3-PIT%20Demo\obj/../Libraries/wch_libraries/Peripheral/ch32v10x_gpio.c:135 (discriminator 2)
    for (pinpos = 0x00; pinpos < 0x08; pinpos++)
     572:	fe842783          	lw	a5,-24(s0)
     576:	0785                	addi	a5,a5,1
     578:	fef42423          	sw	a5,-24(s0)
D:\WCH\代码\3-PIT%20Demo\obj/../Libraries/wch_libraries/Peripheral/ch32v10x_gpio.c:135 (discriminator 1)
     57c:	fe842703          	lw	a4,-24(s0)
     580:	479d                	li	a5,7
     582:	f4e7f0e3          	bgeu	a5,a4,4c2 <GPIO_Init+0x154>
D:\WCH\代码\3-PIT%20Demo\obj/../Libraries/wch_libraries/Peripheral/ch32v10x_gpio.c:158
        }
      }
    }
    GPIOx->CFGHR = tmpreg;
     586:	fcc42783          	lw	a5,-52(s0)
     58a:	fe442703          	lw	a4,-28(s0)
     58e:	c3d8                	sw	a4,4(a5)
D:\WCH\代码\3-PIT%20Demo\obj/../Libraries/wch_libraries/Peripheral/ch32v10x_gpio.c:160
  }
}
     590:	0001                	nop
     592:	5472                	lw	s0,60(sp)
     594:	6121                	addi	sp,sp,64
     596:	8082                	ret

00000598 <GPIO_WriteBit>:
GPIO_WriteBit():
D:\WCH\代码\3-PIT%20Demo\obj/../Libraries/wch_libraries/Peripheral/ch32v10x_gpio.c:282
*                    Bit_SetL: to clear the port pin.
*                    Bit_SetH: to set the port pin.                  
* Return         : None
*******************************************************************************/
void GPIO_WriteBit(GPIO_TypeDef* GPIOx, uint16_t GPIO_Pin, BitAction BitVal)
{
     598:	1101                	addi	sp,sp,-32
     59a:	ce22                	sw	s0,28(sp)
     59c:	1000                	addi	s0,sp,32
     59e:	fea42623          	sw	a0,-20(s0)
     5a2:	87ae                	mv	a5,a1
     5a4:	fec42223          	sw	a2,-28(s0)
     5a8:	fef41523          	sh	a5,-22(s0)
D:\WCH\代码\3-PIT%20Demo\obj/../Libraries/wch_libraries/Peripheral/ch32v10x_gpio.c:283
  if (BitVal != Bit_RESET)
     5ac:	fe442783          	lw	a5,-28(s0)
     5b0:	c799                	beqz	a5,5be <GPIO_WriteBit+0x26>
D:\WCH\代码\3-PIT%20Demo\obj/../Libraries/wch_libraries/Peripheral/ch32v10x_gpio.c:285
  {
    GPIOx->BSHR = GPIO_Pin;
     5b2:	fea45703          	lhu	a4,-22(s0)
     5b6:	fec42783          	lw	a5,-20(s0)
     5ba:	cb98                	sw	a4,16(a5)
D:\WCH\代码\3-PIT%20Demo\obj/../Libraries/wch_libraries/Peripheral/ch32v10x_gpio.c:291
  }
  else
  {
    GPIOx->BCR = GPIO_Pin;
  }
}
     5bc:	a031                	j	5c8 <GPIO_WriteBit+0x30>
D:\WCH\代码\3-PIT%20Demo\obj/../Libraries/wch_libraries/Peripheral/ch32v10x_gpio.c:289
    GPIOx->BCR = GPIO_Pin;
     5be:	fea45703          	lhu	a4,-22(s0)
     5c2:	fec42783          	lw	a5,-20(s0)
     5c6:	cbd8                	sw	a4,20(a5)
D:\WCH\代码\3-PIT%20Demo\obj/../Libraries/wch_libraries/Peripheral/ch32v10x_gpio.c:291
}
     5c8:	0001                	nop
     5ca:	4472                	lw	s0,28(sp)
     5cc:	6105                	addi	sp,sp,32
     5ce:	8082                	ret

000005d0 <GPIO_PinRemapConfig>:
GPIO_PinRemapConfig():
D:\WCH\代码\3-PIT%20Demo\obj/../Libraries/wch_libraries/Peripheral/ch32v10x_gpio.c:402
*      only for High density Value line devices)     
*                  NewState: ENABLE or DISABLE.             
* Return         : None
*******************************************************************************/
void GPIO_PinRemapConfig(uint32_t GPIO_Remap, FunctionalState NewState)
{
     5d0:	7179                	addi	sp,sp,-48
     5d2:	d622                	sw	s0,44(sp)
     5d4:	1800                	addi	s0,sp,48
     5d6:	fca42e23          	sw	a0,-36(s0)
     5da:	fcb42c23          	sw	a1,-40(s0)
D:\WCH\代码\3-PIT%20Demo\obj/../Libraries/wch_libraries/Peripheral/ch32v10x_gpio.c:403
  uint32_t tmp = 0x00, tmp1 = 0x00, tmpreg = 0x00, tmpmask = 0x00;
     5de:	fe042423          	sw	zero,-24(s0)
     5e2:	fe042223          	sw	zero,-28(s0)
     5e6:	fe042623          	sw	zero,-20(s0)
     5ea:	fe042023          	sw	zero,-32(s0)
D:\WCH\代码\3-PIT%20Demo\obj/../Libraries/wch_libraries/Peripheral/ch32v10x_gpio.c:405

  if((GPIO_Remap & 0x80000000) == 0x80000000)
     5ee:	fdc42783          	lw	a5,-36(s0)
     5f2:	0007d863          	bgez	a5,602 <GPIO_PinRemapConfig+0x32>
D:\WCH\代码\3-PIT%20Demo\obj/../Libraries/wch_libraries/Peripheral/ch32v10x_gpio.c:407
  {
    tmpreg = AFIO->PCFR2;
     5f6:	400107b7          	lui	a5,0x40010
     5fa:	4fdc                	lw	a5,28(a5)
     5fc:	fef42623          	sw	a5,-20(s0)
     600:	a031                	j	60c <GPIO_PinRemapConfig+0x3c>
D:\WCH\代码\3-PIT%20Demo\obj/../Libraries/wch_libraries/Peripheral/ch32v10x_gpio.c:411
  }
  else
  {
    tmpreg = AFIO->PCFR1;
     602:	400107b7          	lui	a5,0x40010
     606:	43dc                	lw	a5,4(a5)
     608:	fef42623          	sw	a5,-20(s0)
D:\WCH\代码\3-PIT%20Demo\obj/../Libraries/wch_libraries/Peripheral/ch32v10x_gpio.c:414
  }

  tmpmask = (GPIO_Remap & DBGAFR_POSITION_MASK) >> 0x10;
     60c:	fdc42783          	lw	a5,-36(s0)
     610:	83c1                	srli	a5,a5,0x10
     612:	8bbd                	andi	a5,a5,15
     614:	fef42023          	sw	a5,-32(s0)
D:\WCH\代码\3-PIT%20Demo\obj/../Libraries/wch_libraries/Peripheral/ch32v10x_gpio.c:415
  tmp = GPIO_Remap & LSB_MASK;
     618:	fdc42703          	lw	a4,-36(s0)
     61c:	67c1                	lui	a5,0x10
     61e:	17fd                	addi	a5,a5,-1
     620:	8ff9                	and	a5,a5,a4
     622:	fef42423          	sw	a5,-24(s0)
D:\WCH\代码\3-PIT%20Demo\obj/../Libraries/wch_libraries/Peripheral/ch32v10x_gpio.c:417

  if ((GPIO_Remap & (DBGAFR_LOCATION_MASK | DBGAFR_NUMBITS_MASK)) == (DBGAFR_LOCATION_MASK | DBGAFR_NUMBITS_MASK))
     626:	fdc42703          	lw	a4,-36(s0)
     62a:	003007b7          	lui	a5,0x300
     62e:	8f7d                	and	a4,a4,a5
     630:	003007b7          	lui	a5,0x300
     634:	02f71563          	bne	a4,a5,65e <GPIO_PinRemapConfig+0x8e>
D:\WCH\代码\3-PIT%20Demo\obj/../Libraries/wch_libraries/Peripheral/ch32v10x_gpio.c:419
  {
    tmpreg &= DBGAFR_SWJCFG_MASK;
     638:	fec42703          	lw	a4,-20(s0)
     63c:	f10007b7          	lui	a5,0xf1000
     640:	17fd                	addi	a5,a5,-1
     642:	8ff9                	and	a5,a5,a4
     644:	fef42623          	sw	a5,-20(s0)
D:\WCH\代码\3-PIT%20Demo\obj/../Libraries/wch_libraries/Peripheral/ch32v10x_gpio.c:420
    AFIO->PCFR1 &= DBGAFR_SWJCFG_MASK;
     648:	400107b7          	lui	a5,0x40010
     64c:	43d4                	lw	a3,4(a5)
     64e:	400107b7          	lui	a5,0x40010
     652:	f1000737          	lui	a4,0xf1000
     656:	177d                	addi	a4,a4,-1
     658:	8f75                	and	a4,a4,a3
     65a:	c3d8                	sw	a4,4(a5)
     65c:	a0ad                	j	6c6 <GPIO_PinRemapConfig+0xf6>
D:\WCH\代码\3-PIT%20Demo\obj/../Libraries/wch_libraries/Peripheral/ch32v10x_gpio.c:422
  }
  else if ((GPIO_Remap & DBGAFR_NUMBITS_MASK) == DBGAFR_NUMBITS_MASK)
     65e:	fdc42703          	lw	a4,-36(s0)
     662:	001007b7          	lui	a5,0x100
     666:	8ff9                	and	a5,a5,a4
     668:	cb8d                	beqz	a5,69a <GPIO_PinRemapConfig+0xca>
D:\WCH\代码\3-PIT%20Demo\obj/../Libraries/wch_libraries/Peripheral/ch32v10x_gpio.c:424
  {
    tmp1 = ((uint32_t)0x03) << tmpmask;
     66a:	fe042783          	lw	a5,-32(s0)
     66e:	470d                	li	a4,3
     670:	00f717b3          	sll	a5,a4,a5
     674:	fef42223          	sw	a5,-28(s0)
D:\WCH\代码\3-PIT%20Demo\obj/../Libraries/wch_libraries/Peripheral/ch32v10x_gpio.c:425
    tmpreg &= ~tmp1;
     678:	fe442783          	lw	a5,-28(s0)
     67c:	fff7c793          	not	a5,a5
     680:	fec42703          	lw	a4,-20(s0)
     684:	8ff9                	and	a5,a5,a4
     686:	fef42623          	sw	a5,-20(s0)
D:\WCH\代码\3-PIT%20Demo\obj/../Libraries/wch_libraries/Peripheral/ch32v10x_gpio.c:426
    tmpreg |= ~DBGAFR_SWJCFG_MASK;
     68a:	fec42703          	lw	a4,-20(s0)
     68e:	0f0007b7          	lui	a5,0xf000
     692:	8fd9                	or	a5,a5,a4
     694:	fef42623          	sw	a5,-20(s0)
     698:	a03d                	j	6c6 <GPIO_PinRemapConfig+0xf6>
D:\WCH\代码\3-PIT%20Demo\obj/../Libraries/wch_libraries/Peripheral/ch32v10x_gpio.c:430
  }
  else
  {
    tmpreg &= ~(tmp << ((GPIO_Remap >> 0x15)*0x10));
     69a:	fdc42783          	lw	a5,-36(s0)
     69e:	83d5                	srli	a5,a5,0x15
     6a0:	0792                	slli	a5,a5,0x4
     6a2:	fe842703          	lw	a4,-24(s0)
     6a6:	00f717b3          	sll	a5,a4,a5
     6aa:	fff7c793          	not	a5,a5
     6ae:	fec42703          	lw	a4,-20(s0)
     6b2:	8ff9                	and	a5,a5,a4
     6b4:	fef42623          	sw	a5,-20(s0)
D:\WCH\代码\3-PIT%20Demo\obj/../Libraries/wch_libraries/Peripheral/ch32v10x_gpio.c:431
    tmpreg |= ~DBGAFR_SWJCFG_MASK;
     6b8:	fec42703          	lw	a4,-20(s0)
     6bc:	0f0007b7          	lui	a5,0xf000
     6c0:	8fd9                	or	a5,a5,a4
     6c2:	fef42623          	sw	a5,-20(s0)
D:\WCH\代码\3-PIT%20Demo\obj/../Libraries/wch_libraries/Peripheral/ch32v10x_gpio.c:434
  }

  if (NewState != DISABLE)
     6c6:	fd842783          	lw	a5,-40(s0)
     6ca:	cf91                	beqz	a5,6e6 <GPIO_PinRemapConfig+0x116>
D:\WCH\代码\3-PIT%20Demo\obj/../Libraries/wch_libraries/Peripheral/ch32v10x_gpio.c:436
  {
    tmpreg |= (tmp << ((GPIO_Remap >> 0x15)*0x10));
     6cc:	fdc42783          	lw	a5,-36(s0)
     6d0:	83d5                	srli	a5,a5,0x15
     6d2:	0792                	slli	a5,a5,0x4
     6d4:	fe842703          	lw	a4,-24(s0)
     6d8:	00f717b3          	sll	a5,a4,a5
     6dc:	fec42703          	lw	a4,-20(s0)
     6e0:	8fd9                	or	a5,a5,a4
     6e2:	fef42623          	sw	a5,-20(s0)
D:\WCH\代码\3-PIT%20Demo\obj/../Libraries/wch_libraries/Peripheral/ch32v10x_gpio.c:439
  }

  if((GPIO_Remap & 0x80000000) == 0x80000000)
     6e6:	fdc42783          	lw	a5,-36(s0)
     6ea:	0007d863          	bgez	a5,6fa <GPIO_PinRemapConfig+0x12a>
D:\WCH\代码\3-PIT%20Demo\obj/../Libraries/wch_libraries/Peripheral/ch32v10x_gpio.c:441
  {
    AFIO->PCFR2 = tmpreg;
     6ee:	400107b7          	lui	a5,0x40010
     6f2:	fec42703          	lw	a4,-20(s0)
     6f6:	cfd8                	sw	a4,28(a5)
D:\WCH\代码\3-PIT%20Demo\obj/../Libraries/wch_libraries/Peripheral/ch32v10x_gpio.c:447
  }
  else
  {
    AFIO->PCFR1 = tmpreg;
  }  
}
     6f8:	a031                	j	704 <GPIO_PinRemapConfig+0x134>
D:\WCH\代码\3-PIT%20Demo\obj/../Libraries/wch_libraries/Peripheral/ch32v10x_gpio.c:445
    AFIO->PCFR1 = tmpreg;
     6fa:	400107b7          	lui	a5,0x40010
     6fe:	fec42703          	lw	a4,-20(s0)
     702:	c3d8                	sw	a4,4(a5)
D:\WCH\代码\3-PIT%20Demo\obj/../Libraries/wch_libraries/Peripheral/ch32v10x_gpio.c:447
}
     704:	0001                	nop
     706:	5432                	lw	s0,44(sp)
     708:	6145                	addi	sp,sp,48
     70a:	8082                	ret

0000070c <NVIC_EnableIRQ>:
NVIC_EnableIRQ():
D:\WCH\代码\3-PIT%20Demo\obj/../Libraries/wch_libraries/Core/core_riscv.h:126
* Function Name  : NVIC_EnableIRQ
* Description    : Enable Interrupt
* Input          : IRQn: Interrupt Numbers
* Return         : None
*******************************************************************************/
RV_STATIC_INLINE void NVIC_EnableIRQ(IRQn_Type IRQn){
     70c:	1101                	addi	sp,sp,-32
     70e:	ce22                	sw	s0,28(sp)
     710:	1000                	addi	s0,sp,32
     712:	fea42623          	sw	a0,-20(s0)
D:\WCH\代码\3-PIT%20Demo\obj/../Libraries/wch_libraries/Core/core_riscv.h:127
  NVIC->IENR[((uint32_t)(IRQn) >> 5)] = (1 << ((uint32_t)(IRQn) & 0x1F));
     716:	fec42783          	lw	a5,-20(s0)
     71a:	8bfd                	andi	a5,a5,31
     71c:	4705                	li	a4,1
     71e:	00f716b3          	sll	a3,a4,a5
     722:	e000e737          	lui	a4,0xe000e
     726:	fec42783          	lw	a5,-20(s0)
     72a:	8395                	srli	a5,a5,0x5
     72c:	04078793          	addi	a5,a5,64 # 40010040 <_eusrstack+0x2000b040>
     730:	078a                	slli	a5,a5,0x2
     732:	97ba                	add	a5,a5,a4
     734:	c394                	sw	a3,0(a5)
D:\WCH\代码\3-PIT%20Demo\obj/../Libraries/wch_libraries/Core/core_riscv.h:128
}
     736:	0001                	nop
     738:	4472                	lw	s0,28(sp)
     73a:	6105                	addi	sp,sp,32
     73c:	8082                	ret

0000073e <NVIC_DisableIRQ>:
NVIC_DisableIRQ():
D:\WCH\代码\3-PIT%20Demo\obj/../Libraries/wch_libraries/Core/core_riscv.h:137
* Description    : Disable Interrupt
* Input          : IRQn: Interrupt Numbers
* Return         : None
*******************************************************************************/
RV_STATIC_INLINE void NVIC_DisableIRQ(IRQn_Type IRQn)
{
     73e:	1101                	addi	sp,sp,-32
     740:	ce22                	sw	s0,28(sp)
     742:	1000                	addi	s0,sp,32
     744:	fea42623          	sw	a0,-20(s0)
D:\WCH\代码\3-PIT%20Demo\obj/../Libraries/wch_libraries/Core/core_riscv.h:138
  NVIC->IRER[((uint32_t)(IRQn) >> 5)] = (1 << ((uint32_t)(IRQn) & 0x1F));
     748:	fec42783          	lw	a5,-20(s0)
     74c:	8bfd                	andi	a5,a5,31
     74e:	4705                	li	a4,1
     750:	00f716b3          	sll	a3,a4,a5
     754:	e000e737          	lui	a4,0xe000e
     758:	fec42783          	lw	a5,-20(s0)
     75c:	8395                	srli	a5,a5,0x5
     75e:	06078793          	addi	a5,a5,96
     762:	078a                	slli	a5,a5,0x2
     764:	97ba                	add	a5,a5,a4
     766:	c394                	sw	a3,0(a5)
D:\WCH\代码\3-PIT%20Demo\obj/../Libraries/wch_libraries/Core/core_riscv.h:139
}
     768:	0001                	nop
     76a:	4472                	lw	s0,28(sp)
     76c:	6105                	addi	sp,sp,32
     76e:	8082                	ret

00000770 <NVIC_SetPriority>:
NVIC_SetPriority():
D:\WCH\代码\3-PIT%20Demo\obj/../Libraries/wch_libraries/Core/core_riscv.h:208
*                  priority: bit7:pre-emption priority
*                            bit6-bit4: subpriority
* Return         : None
*******************************************************************************/
RV_STATIC_INLINE void NVIC_SetPriority(IRQn_Type IRQn, uint8_t priority)
{
     770:	1101                	addi	sp,sp,-32
     772:	ce22                	sw	s0,28(sp)
     774:	1000                	addi	s0,sp,32
     776:	fea42623          	sw	a0,-20(s0)
     77a:	87ae                	mv	a5,a1
     77c:	fef405a3          	sb	a5,-21(s0)
D:\WCH\代码\3-PIT%20Demo\obj/../Libraries/wch_libraries/Core/core_riscv.h:209
  NVIC->IPRIOR[(uint32_t)(IRQn)] = priority;
     780:	e000e737          	lui	a4,0xe000e
     784:	fec42783          	lw	a5,-20(s0)
     788:	97ba                	add	a5,a5,a4
     78a:	feb44703          	lbu	a4,-21(s0)
     78e:	40e78023          	sb	a4,1024(a5)
D:\WCH\代码\3-PIT%20Demo\obj/../Libraries/wch_libraries/Core/core_riscv.h:210
}
     792:	0001                	nop
     794:	4472                	lw	s0,28(sp)
     796:	6105                	addi	sp,sp,32
     798:	8082                	ret

0000079a <NVIC_Init>:
NVIC_Init():
D:\WCH\代码\3-PIT%20Demo\obj/../Libraries/wch_libraries/Peripheral/ch32v10x_misc.c:42
* Input          : NVIC_InitStruct: pointer to a NVIC_InitTypeDef structure that contains the
*                                   configuration information for the specified NVIC peripheral.                 
* Return         : None
*******************************************************************************************/
void NVIC_Init(NVIC_InitTypeDef* NVIC_InitStruct)
{
     79a:	7179                	addi	sp,sp,-48
     79c:	d606                	sw	ra,44(sp)
     79e:	d422                	sw	s0,40(sp)
     7a0:	1800                	addi	s0,sp,48
     7a2:	fca42e23          	sw	a0,-36(s0)
D:\WCH\代码\3-PIT%20Demo\obj/../Libraries/wch_libraries/Peripheral/ch32v10x_misc.c:43
	uint8_t tmppre = 0;
     7a6:	fe0407a3          	sb	zero,-17(s0)
D:\WCH\代码\3-PIT%20Demo\obj/../Libraries/wch_libraries/Peripheral/ch32v10x_misc.c:45

	if(NVIC_Priority_Group == NVIC_PriorityGroup_0)
     7aa:	8181a783          	lw	a5,-2024(gp) # 200000a0 <_edata>
     7ae:	e38d                	bnez	a5,7d0 <NVIC_Init+0x36>
D:\WCH\代码\3-PIT%20Demo\obj/../Libraries/wch_libraries/Peripheral/ch32v10x_misc.c:47
	{
		NVIC_SetPriority( NVIC_InitStruct->NVIC_IRQChannel, NVIC_InitStruct->NVIC_IRQChannelSubPriority<<4);
     7b0:	fdc42783          	lw	a5,-36(s0)
     7b4:	0007c783          	lbu	a5,0(a5)
     7b8:	873e                	mv	a4,a5
     7ba:	fdc42783          	lw	a5,-36(s0)
     7be:	0027c783          	lbu	a5,2(a5)
     7c2:	0792                	slli	a5,a5,0x4
     7c4:	0ff7f793          	andi	a5,a5,255
     7c8:	85be                	mv	a1,a5
     7ca:	853a                	mv	a0,a4
     7cc:	3755                	jal	770 <NVIC_SetPriority>
     7ce:	a2d9                	j	994 <__stack_size+0x194>
D:\WCH\代码\3-PIT%20Demo\obj/../Libraries/wch_libraries/Peripheral/ch32v10x_misc.c:49
	}
	else if(NVIC_Priority_Group == NVIC_PriorityGroup_1)
     7d0:	8181a703          	lw	a4,-2024(gp) # 200000a0 <_edata>
     7d4:	4785                	li	a5,1
     7d6:	04f71f63          	bne	a4,a5,834 <__stack_size+0x34>
D:\WCH\代码\3-PIT%20Demo\obj/../Libraries/wch_libraries/Peripheral/ch32v10x_misc.c:51
	{
    if(NVIC_InitStruct->NVIC_IRQChannelPreemptionPriority == 1)
     7da:	fdc42783          	lw	a5,-36(s0)
     7de:	0017c703          	lbu	a4,1(a5)
     7e2:	4785                	li	a5,1
     7e4:	02f71863          	bne	a4,a5,814 <__stack_size+0x14>
D:\WCH\代码\3-PIT%20Demo\obj/../Libraries/wch_libraries/Peripheral/ch32v10x_misc.c:53
    {
    	NVIC_SetPriority( NVIC_InitStruct->NVIC_IRQChannel, (1<<7)|(NVIC_InitStruct->NVIC_IRQChannelSubPriority<<4));
     7e8:	fdc42783          	lw	a5,-36(s0)
     7ec:	0007c783          	lbu	a5,0(a5)
     7f0:	873e                	mv	a4,a5
     7f2:	fdc42783          	lw	a5,-36(s0)
     7f6:	0027c783          	lbu	a5,2(a5)
     7fa:	0792                	slli	a5,a5,0x4
     7fc:	07e2                	slli	a5,a5,0x18
     7fe:	87e1                	srai	a5,a5,0x18
     800:	f807e793          	ori	a5,a5,-128
     804:	07e2                	slli	a5,a5,0x18
     806:	87e1                	srai	a5,a5,0x18
     808:	0ff7f793          	andi	a5,a5,255
     80c:	85be                	mv	a1,a5
     80e:	853a                	mv	a0,a4
     810:	3785                	jal	770 <NVIC_SetPriority>
     812:	a249                	j	994 <__stack_size+0x194>
D:\WCH\代码\3-PIT%20Demo\obj/../Libraries/wch_libraries/Peripheral/ch32v10x_misc.c:57
    }
    else
    {
    	NVIC_SetPriority( NVIC_InitStruct->NVIC_IRQChannel, (0<<7)|(NVIC_InitStruct->NVIC_IRQChannelSubPriority<<4));
     814:	fdc42783          	lw	a5,-36(s0)
     818:	0007c783          	lbu	a5,0(a5)
     81c:	873e                	mv	a4,a5
     81e:	fdc42783          	lw	a5,-36(s0)
     822:	0027c783          	lbu	a5,2(a5)
     826:	0792                	slli	a5,a5,0x4
     828:	0ff7f793          	andi	a5,a5,255
     82c:	85be                	mv	a1,a5
     82e:	853a                	mv	a0,a4
     830:	3781                	jal	770 <NVIC_SetPriority>
     832:	a28d                	j	994 <__stack_size+0x194>
D:\WCH\代码\3-PIT%20Demo\obj/../Libraries/wch_libraries/Peripheral/ch32v10x_misc.c:60
    }
	}
	else if(NVIC_Priority_Group == NVIC_PriorityGroup_2)
     834:	8181a703          	lw	a4,-2024(gp) # 200000a0 <_edata>
     838:	4789                	li	a5,2
     83a:	08f71b63          	bne	a4,a5,8d0 <__stack_size+0xd0>
D:\WCH\代码\3-PIT%20Demo\obj/../Libraries/wch_libraries/Peripheral/ch32v10x_misc.c:62
	{
    if(NVIC_InitStruct->NVIC_IRQChannelPreemptionPriority <= 1)
     83e:	fdc42783          	lw	a5,-36(s0)
     842:	0017c703          	lbu	a4,1(a5)
     846:	4785                	li	a5,1
     848:	02e7ee63          	bltu	a5,a4,884 <__stack_size+0x84>
D:\WCH\代码\3-PIT%20Demo\obj/../Libraries/wch_libraries/Peripheral/ch32v10x_misc.c:64
    {
      tmppre = NVIC_InitStruct->NVIC_IRQChannelSubPriority + (4*NVIC_InitStruct->NVIC_IRQChannelPreemptionPriority);
     84c:	fdc42783          	lw	a5,-36(s0)
     850:	0027c703          	lbu	a4,2(a5)
     854:	fdc42783          	lw	a5,-36(s0)
     858:	0017c783          	lbu	a5,1(a5)
     85c:	078a                	slli	a5,a5,0x2
     85e:	0ff7f793          	andi	a5,a5,255
     862:	97ba                	add	a5,a5,a4
     864:	fef407a3          	sb	a5,-17(s0)
D:\WCH\代码\3-PIT%20Demo\obj/../Libraries/wch_libraries/Peripheral/ch32v10x_misc.c:65
    	NVIC_SetPriority( NVIC_InitStruct->NVIC_IRQChannel, (0<<7)|(tmppre<<4));
     868:	fdc42783          	lw	a5,-36(s0)
     86c:	0007c783          	lbu	a5,0(a5)
     870:	873e                	mv	a4,a5
     872:	fef44783          	lbu	a5,-17(s0)
     876:	0792                	slli	a5,a5,0x4
     878:	0ff7f793          	andi	a5,a5,255
     87c:	85be                	mv	a1,a5
     87e:	853a                	mv	a0,a4
     880:	3dc5                	jal	770 <NVIC_SetPriority>
     882:	aa09                	j	994 <__stack_size+0x194>
D:\WCH\代码\3-PIT%20Demo\obj/../Libraries/wch_libraries/Peripheral/ch32v10x_misc.c:69
    }
    else
    {
      tmppre = NVIC_InitStruct->NVIC_IRQChannelSubPriority + (4*(NVIC_InitStruct->NVIC_IRQChannelPreemptionPriority-2));
     884:	fdc42783          	lw	a5,-36(s0)
     888:	0027c703          	lbu	a4,2(a5)
     88c:	fdc42783          	lw	a5,-36(s0)
     890:	0017c783          	lbu	a5,1(a5)
     894:	03e78793          	addi	a5,a5,62
     898:	0ff7f793          	andi	a5,a5,255
     89c:	078a                	slli	a5,a5,0x2
     89e:	0ff7f793          	andi	a5,a5,255
     8a2:	97ba                	add	a5,a5,a4
     8a4:	fef407a3          	sb	a5,-17(s0)
D:\WCH\代码\3-PIT%20Demo\obj/../Libraries/wch_libraries/Peripheral/ch32v10x_misc.c:70
    	NVIC_SetPriority( NVIC_InitStruct->NVIC_IRQChannel, (1<<7)|(tmppre<<4));
     8a8:	fdc42783          	lw	a5,-36(s0)
     8ac:	0007c783          	lbu	a5,0(a5)
     8b0:	873e                	mv	a4,a5
     8b2:	fef44783          	lbu	a5,-17(s0)
     8b6:	0792                	slli	a5,a5,0x4
     8b8:	07e2                	slli	a5,a5,0x18
     8ba:	87e1                	srai	a5,a5,0x18
     8bc:	f807e793          	ori	a5,a5,-128
     8c0:	07e2                	slli	a5,a5,0x18
     8c2:	87e1                	srai	a5,a5,0x18
     8c4:	0ff7f793          	andi	a5,a5,255
     8c8:	85be                	mv	a1,a5
     8ca:	853a                	mv	a0,a4
     8cc:	3555                	jal	770 <NVIC_SetPriority>
     8ce:	a0d9                	j	994 <__stack_size+0x194>
D:\WCH\代码\3-PIT%20Demo\obj/../Libraries/wch_libraries/Peripheral/ch32v10x_misc.c:73
    }
	}
	else if(NVIC_Priority_Group == NVIC_PriorityGroup_3)
     8d0:	8181a703          	lw	a4,-2024(gp) # 200000a0 <_edata>
     8d4:	478d                	li	a5,3
     8d6:	08f71b63          	bne	a4,a5,96c <__stack_size+0x16c>
D:\WCH\代码\3-PIT%20Demo\obj/../Libraries/wch_libraries/Peripheral/ch32v10x_misc.c:75
	{
    if(NVIC_InitStruct->NVIC_IRQChannelPreemptionPriority <= 3)
     8da:	fdc42783          	lw	a5,-36(s0)
     8de:	0017c703          	lbu	a4,1(a5)
     8e2:	478d                	li	a5,3
     8e4:	02e7ee63          	bltu	a5,a4,920 <__stack_size+0x120>
D:\WCH\代码\3-PIT%20Demo\obj/../Libraries/wch_libraries/Peripheral/ch32v10x_misc.c:77
    {
      tmppre = NVIC_InitStruct->NVIC_IRQChannelSubPriority + (2*NVIC_InitStruct->NVIC_IRQChannelPreemptionPriority);
     8e8:	fdc42783          	lw	a5,-36(s0)
     8ec:	0027c703          	lbu	a4,2(a5)
     8f0:	fdc42783          	lw	a5,-36(s0)
     8f4:	0017c783          	lbu	a5,1(a5)
     8f8:	0786                	slli	a5,a5,0x1
     8fa:	0ff7f793          	andi	a5,a5,255
     8fe:	97ba                	add	a5,a5,a4
     900:	fef407a3          	sb	a5,-17(s0)
D:\WCH\代码\3-PIT%20Demo\obj/../Libraries/wch_libraries/Peripheral/ch32v10x_misc.c:78
    	NVIC_SetPriority( NVIC_InitStruct->NVIC_IRQChannel, (0<<7)|(tmppre<<4));
     904:	fdc42783          	lw	a5,-36(s0)
     908:	0007c783          	lbu	a5,0(a5)
     90c:	873e                	mv	a4,a5
     90e:	fef44783          	lbu	a5,-17(s0)
     912:	0792                	slli	a5,a5,0x4
     914:	0ff7f793          	andi	a5,a5,255
     918:	85be                	mv	a1,a5
     91a:	853a                	mv	a0,a4
     91c:	3d91                	jal	770 <NVIC_SetPriority>
     91e:	a89d                	j	994 <__stack_size+0x194>
D:\WCH\代码\3-PIT%20Demo\obj/../Libraries/wch_libraries/Peripheral/ch32v10x_misc.c:82
    }
    else
    {
      tmppre = NVIC_InitStruct->NVIC_IRQChannelSubPriority + (2*(NVIC_InitStruct->NVIC_IRQChannelPreemptionPriority-4));
     920:	fdc42783          	lw	a5,-36(s0)
     924:	0027c703          	lbu	a4,2(a5)
     928:	fdc42783          	lw	a5,-36(s0)
     92c:	0017c783          	lbu	a5,1(a5)
     930:	07c78793          	addi	a5,a5,124
     934:	0ff7f793          	andi	a5,a5,255
     938:	0786                	slli	a5,a5,0x1
     93a:	0ff7f793          	andi	a5,a5,255
     93e:	97ba                	add	a5,a5,a4
     940:	fef407a3          	sb	a5,-17(s0)
D:\WCH\代码\3-PIT%20Demo\obj/../Libraries/wch_libraries/Peripheral/ch32v10x_misc.c:83
    	NVIC_SetPriority( NVIC_InitStruct->NVIC_IRQChannel, (1<<7)|(tmppre<<4));
     944:	fdc42783          	lw	a5,-36(s0)
     948:	0007c783          	lbu	a5,0(a5)
     94c:	873e                	mv	a4,a5
     94e:	fef44783          	lbu	a5,-17(s0)
     952:	0792                	slli	a5,a5,0x4
     954:	07e2                	slli	a5,a5,0x18
     956:	87e1                	srai	a5,a5,0x18
     958:	f807e793          	ori	a5,a5,-128
     95c:	07e2                	slli	a5,a5,0x18
     95e:	87e1                	srai	a5,a5,0x18
     960:	0ff7f793          	andi	a5,a5,255
     964:	85be                	mv	a1,a5
     966:	853a                	mv	a0,a4
     968:	3521                	jal	770 <NVIC_SetPriority>
     96a:	a02d                	j	994 <__stack_size+0x194>
D:\WCH\代码\3-PIT%20Demo\obj/../Libraries/wch_libraries/Peripheral/ch32v10x_misc.c:86
    }
	}
	else if(NVIC_Priority_Group == NVIC_PriorityGroup_4)
     96c:	8181a703          	lw	a4,-2024(gp) # 200000a0 <_edata>
     970:	4791                	li	a5,4
     972:	02f71163          	bne	a4,a5,994 <__stack_size+0x194>
D:\WCH\代码\3-PIT%20Demo\obj/../Libraries/wch_libraries/Peripheral/ch32v10x_misc.c:88
	{
		NVIC_SetPriority( NVIC_InitStruct->NVIC_IRQChannel, NVIC_InitStruct->NVIC_IRQChannelPreemptionPriority<<4);
     976:	fdc42783          	lw	a5,-36(s0)
     97a:	0007c783          	lbu	a5,0(a5)
     97e:	873e                	mv	a4,a5
     980:	fdc42783          	lw	a5,-36(s0)
     984:	0017c783          	lbu	a5,1(a5)
     988:	0792                	slli	a5,a5,0x4
     98a:	0ff7f793          	andi	a5,a5,255
     98e:	85be                	mv	a1,a5
     990:	853a                	mv	a0,a4
     992:	3bf9                	jal	770 <NVIC_SetPriority>
D:\WCH\代码\3-PIT%20Demo\obj/../Libraries/wch_libraries/Peripheral/ch32v10x_misc.c:91
	}

  if (NVIC_InitStruct->NVIC_IRQChannelCmd != DISABLE)
     994:	fdc42783          	lw	a5,-36(s0)
     998:	43dc                	lw	a5,4(a5)
     99a:	cb81                	beqz	a5,9aa <__stack_size+0x1aa>
D:\WCH\代码\3-PIT%20Demo\obj/../Libraries/wch_libraries/Peripheral/ch32v10x_misc.c:93
  {
  	NVIC_EnableIRQ(NVIC_InitStruct->NVIC_IRQChannel);
     99c:	fdc42783          	lw	a5,-36(s0)
     9a0:	0007c783          	lbu	a5,0(a5)
     9a4:	853e                	mv	a0,a5
     9a6:	339d                	jal	70c <NVIC_EnableIRQ>
D:\WCH\代码\3-PIT%20Demo\obj/../Libraries/wch_libraries/Peripheral/ch32v10x_misc.c:99
  }
  else
  {
  	NVIC_DisableIRQ(NVIC_InitStruct->NVIC_IRQChannel);
  }
}
     9a8:	a039                	j	9b6 <__stack_size+0x1b6>
D:\WCH\代码\3-PIT%20Demo\obj/../Libraries/wch_libraries/Peripheral/ch32v10x_misc.c:97
  	NVIC_DisableIRQ(NVIC_InitStruct->NVIC_IRQChannel);
     9aa:	fdc42783          	lw	a5,-36(s0)
     9ae:	0007c783          	lbu	a5,0(a5)
     9b2:	853e                	mv	a0,a5
     9b4:	3369                	jal	73e <NVIC_DisableIRQ>
D:\WCH\代码\3-PIT%20Demo\obj/../Libraries/wch_libraries/Peripheral/ch32v10x_misc.c:99
}
     9b6:	0001                	nop
     9b8:	50b2                	lw	ra,44(sp)
     9ba:	5422                	lw	s0,40(sp)
     9bc:	6145                	addi	sp,sp,48
     9be:	8082                	ret

000009c0 <RCC_GetClocksFreq>:
RCC_GetClocksFreq():
D:\WCH\代码\3-PIT%20Demo\obj/../Libraries/wch_libraries/Peripheral/ch32v10x_rcc.c:469
* Input          : The result of this function could be not correct when using
*      fractional value for HSE crystal.
* Return         : None
********************************************************************************/
void RCC_GetClocksFreq(RCC_ClocksTypeDef* RCC_Clocks)
{
     9c0:	7179                	addi	sp,sp,-48
     9c2:	d622                	sw	s0,44(sp)
     9c4:	1800                	addi	s0,sp,48
     9c6:	fca42e23          	sw	a0,-36(s0)
D:\WCH\代码\3-PIT%20Demo\obj/../Libraries/wch_libraries/Peripheral/ch32v10x_rcc.c:470
  uint32_t tmp = 0, pllmull = 0, pllsource = 0, presc = 0;
     9ca:	fe042623          	sw	zero,-20(s0)
     9ce:	fe042423          	sw	zero,-24(s0)
     9d2:	fe042223          	sw	zero,-28(s0)
     9d6:	fe042023          	sw	zero,-32(s0)
D:\WCH\代码\3-PIT%20Demo\obj/../Libraries/wch_libraries/Peripheral/ch32v10x_rcc.c:472
  
  tmp = RCC->CFGR0 & CFGR0_SWS_Mask;
     9da:	400217b7          	lui	a5,0x40021
     9de:	43dc                	lw	a5,4(a5)
     9e0:	8bb1                	andi	a5,a5,12
     9e2:	fef42623          	sw	a5,-20(s0)
     9e6:	fec42703          	lw	a4,-20(s0)
     9ea:	4791                	li	a5,4
     9ec:	02f70263          	beq	a4,a5,a10 <RCC_GetClocksFreq+0x50>
     9f0:	fec42703          	lw	a4,-20(s0)
     9f4:	47a1                	li	a5,8
     9f6:	02f70563          	beq	a4,a5,a20 <RCC_GetClocksFreq+0x60>
     9fa:	fec42783          	lw	a5,-20(s0)
     9fe:	e7c5                	bnez	a5,aa6 <RCC_GetClocksFreq+0xe6>
D:\WCH\代码\3-PIT%20Demo\obj/../Libraries/wch_libraries/Peripheral/ch32v10x_rcc.c:477
  
  switch (tmp)
  {
    case 0x00: 
      RCC_Clocks->SYSCLK_Frequency = HSI_VALUE;
     a00:	fdc42783          	lw	a5,-36(s0)
     a04:	007a1737          	lui	a4,0x7a1
     a08:	20070713          	addi	a4,a4,512 # 7a1200 <_data_lma+0x79a584>
     a0c:	c398                	sw	a4,0(a5)
D:\WCH\代码\3-PIT%20Demo\obj/../Libraries/wch_libraries/Peripheral/ch32v10x_rcc.c:478
      break;
     a0e:	a065                	j	ab6 <RCC_GetClocksFreq+0xf6>
D:\WCH\代码\3-PIT%20Demo\obj/../Libraries/wch_libraries/Peripheral/ch32v10x_rcc.c:481
		
    case 0x04:
      RCC_Clocks->SYSCLK_Frequency = HSE_VALUE;
     a10:	fdc42783          	lw	a5,-36(s0)
     a14:	007a1737          	lui	a4,0x7a1
     a18:	20070713          	addi	a4,a4,512 # 7a1200 <_data_lma+0x79a584>
     a1c:	c398                	sw	a4,0(a5)
D:\WCH\代码\3-PIT%20Demo\obj/../Libraries/wch_libraries/Peripheral/ch32v10x_rcc.c:482
      break;
     a1e:	a861                	j	ab6 <RCC_GetClocksFreq+0xf6>
D:\WCH\代码\3-PIT%20Demo\obj/../Libraries/wch_libraries/Peripheral/ch32v10x_rcc.c:485
		
    case 0x08:
      pllmull = RCC->CFGR0 & CFGR0_PLLMull_Mask;
     a20:	400217b7          	lui	a5,0x40021
     a24:	43d8                	lw	a4,4(a5)
     a26:	003c07b7          	lui	a5,0x3c0
     a2a:	8ff9                	and	a5,a5,a4
     a2c:	fef42423          	sw	a5,-24(s0)
D:\WCH\代码\3-PIT%20Demo\obj/../Libraries/wch_libraries/Peripheral/ch32v10x_rcc.c:486
      pllsource = RCC->CFGR0 & CFGR0_PLLSRC_Mask;    
     a30:	400217b7          	lui	a5,0x40021
     a34:	43d8                	lw	a4,4(a5)
     a36:	67c1                	lui	a5,0x10
     a38:	8ff9                	and	a5,a5,a4
     a3a:	fef42223          	sw	a5,-28(s0)
D:\WCH\代码\3-PIT%20Demo\obj/../Libraries/wch_libraries/Peripheral/ch32v10x_rcc.c:487
      pllmull = ( pllmull >> 18) + 2;
     a3e:	fe842783          	lw	a5,-24(s0)
     a42:	83c9                	srli	a5,a5,0x12
     a44:	0789                	addi	a5,a5,2
     a46:	fef42423          	sw	a5,-24(s0)
D:\WCH\代码\3-PIT%20Demo\obj/../Libraries/wch_libraries/Peripheral/ch32v10x_rcc.c:489
      
      if (pllsource == 0x00)
     a4a:	fe442783          	lw	a5,-28(s0)
     a4e:	ef89                	bnez	a5,a68 <RCC_GetClocksFreq+0xa8>
D:\WCH\代码\3-PIT%20Demo\obj/../Libraries/wch_libraries/Peripheral/ch32v10x_rcc.c:491
      {
        RCC_Clocks->SYSCLK_Frequency = (HSI_VALUE >> 1) * pllmull;
     a50:	fe842703          	lw	a4,-24(s0)
     a54:	003d17b7          	lui	a5,0x3d1
     a58:	90078793          	addi	a5,a5,-1792 # 3d0900 <_data_lma+0x3c9c84>
     a5c:	02f70733          	mul	a4,a4,a5
     a60:	fdc42783          	lw	a5,-36(s0)
     a64:	c398                	sw	a4,0(a5)
D:\WCH\代码\3-PIT%20Demo\obj/../Libraries/wch_libraries/Peripheral/ch32v10x_rcc.c:504
        else
        {
          RCC_Clocks->SYSCLK_Frequency = HSE_VALUE * pllmull;
        }
      } 
      break;
     a66:	a881                	j	ab6 <RCC_GetClocksFreq+0xf6>
D:\WCH\代码\3-PIT%20Demo\obj/../Libraries/wch_libraries/Peripheral/ch32v10x_rcc.c:495
        if ((RCC->CFGR0 & CFGR0_PLLXTPRE_Mask) != (uint32_t)RESET)
     a68:	400217b7          	lui	a5,0x40021
     a6c:	43d8                	lw	a4,4(a5)
     a6e:	000207b7          	lui	a5,0x20
     a72:	8ff9                	and	a5,a5,a4
     a74:	cf89                	beqz	a5,a8e <RCC_GetClocksFreq+0xce>
D:\WCH\代码\3-PIT%20Demo\obj/../Libraries/wch_libraries/Peripheral/ch32v10x_rcc.c:497
          RCC_Clocks->SYSCLK_Frequency = (HSE_VALUE >> 1) * pllmull;
     a76:	fe842703          	lw	a4,-24(s0)
     a7a:	003d17b7          	lui	a5,0x3d1
     a7e:	90078793          	addi	a5,a5,-1792 # 3d0900 <_data_lma+0x3c9c84>
     a82:	02f70733          	mul	a4,a4,a5
     a86:	fdc42783          	lw	a5,-36(s0)
     a8a:	c398                	sw	a4,0(a5)
D:\WCH\代码\3-PIT%20Demo\obj/../Libraries/wch_libraries/Peripheral/ch32v10x_rcc.c:504
      break;
     a8c:	a02d                	j	ab6 <RCC_GetClocksFreq+0xf6>
D:\WCH\代码\3-PIT%20Demo\obj/../Libraries/wch_libraries/Peripheral/ch32v10x_rcc.c:501
          RCC_Clocks->SYSCLK_Frequency = HSE_VALUE * pllmull;
     a8e:	fe842703          	lw	a4,-24(s0)
     a92:	007a17b7          	lui	a5,0x7a1
     a96:	20078793          	addi	a5,a5,512 # 7a1200 <_data_lma+0x79a584>
     a9a:	02f70733          	mul	a4,a4,a5
     a9e:	fdc42783          	lw	a5,-36(s0)
     aa2:	c398                	sw	a4,0(a5)
D:\WCH\代码\3-PIT%20Demo\obj/../Libraries/wch_libraries/Peripheral/ch32v10x_rcc.c:504
      break;
     aa4:	a809                	j	ab6 <RCC_GetClocksFreq+0xf6>
D:\WCH\代码\3-PIT%20Demo\obj/../Libraries/wch_libraries/Peripheral/ch32v10x_rcc.c:507

    default:
      RCC_Clocks->SYSCLK_Frequency = HSI_VALUE;
     aa6:	fdc42783          	lw	a5,-36(s0)
     aaa:	007a1737          	lui	a4,0x7a1
     aae:	20070713          	addi	a4,a4,512 # 7a1200 <_data_lma+0x79a584>
     ab2:	c398                	sw	a4,0(a5)
D:\WCH\代码\3-PIT%20Demo\obj/../Libraries/wch_libraries/Peripheral/ch32v10x_rcc.c:508
      break;
     ab4:	0001                	nop
D:\WCH\代码\3-PIT%20Demo\obj/../Libraries/wch_libraries/Peripheral/ch32v10x_rcc.c:511
  }

  tmp = RCC->CFGR0 & CFGR0_HPRE_Set_Mask;
     ab6:	400217b7          	lui	a5,0x40021
     aba:	43dc                	lw	a5,4(a5)
     abc:	0f07f793          	andi	a5,a5,240
     ac0:	fef42623          	sw	a5,-20(s0)
D:\WCH\代码\3-PIT%20Demo\obj/../Libraries/wch_libraries/Peripheral/ch32v10x_rcc.c:512
  tmp = tmp >> 4;
     ac4:	fec42783          	lw	a5,-20(s0)
     ac8:	8391                	srli	a5,a5,0x4
     aca:	fef42623          	sw	a5,-20(s0)
D:\WCH\代码\3-PIT%20Demo\obj/../Libraries/wch_libraries/Peripheral/ch32v10x_rcc.c:513
  presc = APBAHBPrescTable[tmp];
     ace:	200007b7          	lui	a5,0x20000
     ad2:	00078713          	mv	a4,a5
     ad6:	fec42783          	lw	a5,-20(s0)
     ada:	97ba                	add	a5,a5,a4
     adc:	0007c783          	lbu	a5,0(a5) # 20000000 <_data_vma>
     ae0:	0ff7f793          	andi	a5,a5,255
     ae4:	fef42023          	sw	a5,-32(s0)
D:\WCH\代码\3-PIT%20Demo\obj/../Libraries/wch_libraries/Peripheral/ch32v10x_rcc.c:514
  RCC_Clocks->HCLK_Frequency = RCC_Clocks->SYSCLK_Frequency >> presc;
     ae8:	fdc42783          	lw	a5,-36(s0)
     aec:	4398                	lw	a4,0(a5)
     aee:	fe042783          	lw	a5,-32(s0)
     af2:	00f75733          	srl	a4,a4,a5
     af6:	fdc42783          	lw	a5,-36(s0)
     afa:	c3d8                	sw	a4,4(a5)
D:\WCH\代码\3-PIT%20Demo\obj/../Libraries/wch_libraries/Peripheral/ch32v10x_rcc.c:515
  tmp = RCC->CFGR0 & CFGR0_PPRE1_Set_Mask;
     afc:	400217b7          	lui	a5,0x40021
     b00:	43dc                	lw	a5,4(a5)
     b02:	7007f793          	andi	a5,a5,1792
     b06:	fef42623          	sw	a5,-20(s0)
D:\WCH\代码\3-PIT%20Demo\obj/../Libraries/wch_libraries/Peripheral/ch32v10x_rcc.c:516
  tmp = tmp >> 8;
     b0a:	fec42783          	lw	a5,-20(s0)
     b0e:	83a1                	srli	a5,a5,0x8
     b10:	fef42623          	sw	a5,-20(s0)
D:\WCH\代码\3-PIT%20Demo\obj/../Libraries/wch_libraries/Peripheral/ch32v10x_rcc.c:517
  presc = APBAHBPrescTable[tmp];
     b14:	200007b7          	lui	a5,0x20000
     b18:	00078713          	mv	a4,a5
     b1c:	fec42783          	lw	a5,-20(s0)
     b20:	97ba                	add	a5,a5,a4
     b22:	0007c783          	lbu	a5,0(a5) # 20000000 <_data_vma>
     b26:	0ff7f793          	andi	a5,a5,255
     b2a:	fef42023          	sw	a5,-32(s0)
D:\WCH\代码\3-PIT%20Demo\obj/../Libraries/wch_libraries/Peripheral/ch32v10x_rcc.c:518
  RCC_Clocks->PCLK1_Frequency = RCC_Clocks->HCLK_Frequency >> presc;
     b2e:	fdc42783          	lw	a5,-36(s0)
     b32:	43d8                	lw	a4,4(a5)
     b34:	fe042783          	lw	a5,-32(s0)
     b38:	00f75733          	srl	a4,a4,a5
     b3c:	fdc42783          	lw	a5,-36(s0)
     b40:	c798                	sw	a4,8(a5)
D:\WCH\代码\3-PIT%20Demo\obj/../Libraries/wch_libraries/Peripheral/ch32v10x_rcc.c:519
  tmp = RCC->CFGR0 & CFGR0_PPRE2_Set_Mask;
     b42:	400217b7          	lui	a5,0x40021
     b46:	43d8                	lw	a4,4(a5)
     b48:	6791                	lui	a5,0x4
     b4a:	80078793          	addi	a5,a5,-2048 # 3800 <spi_init+0x1c>
     b4e:	8ff9                	and	a5,a5,a4
     b50:	fef42623          	sw	a5,-20(s0)
D:\WCH\代码\3-PIT%20Demo\obj/../Libraries/wch_libraries/Peripheral/ch32v10x_rcc.c:520
  tmp = tmp >> 11;
     b54:	fec42783          	lw	a5,-20(s0)
     b58:	83ad                	srli	a5,a5,0xb
     b5a:	fef42623          	sw	a5,-20(s0)
D:\WCH\代码\3-PIT%20Demo\obj/../Libraries/wch_libraries/Peripheral/ch32v10x_rcc.c:521
  presc = APBAHBPrescTable[tmp];
     b5e:	200007b7          	lui	a5,0x20000
     b62:	00078713          	mv	a4,a5
     b66:	fec42783          	lw	a5,-20(s0)
     b6a:	97ba                	add	a5,a5,a4
     b6c:	0007c783          	lbu	a5,0(a5) # 20000000 <_data_vma>
     b70:	0ff7f793          	andi	a5,a5,255
     b74:	fef42023          	sw	a5,-32(s0)
D:\WCH\代码\3-PIT%20Demo\obj/../Libraries/wch_libraries/Peripheral/ch32v10x_rcc.c:522
  RCC_Clocks->PCLK2_Frequency = RCC_Clocks->HCLK_Frequency >> presc;
     b78:	fdc42783          	lw	a5,-36(s0)
     b7c:	43d8                	lw	a4,4(a5)
     b7e:	fe042783          	lw	a5,-32(s0)
     b82:	00f75733          	srl	a4,a4,a5
     b86:	fdc42783          	lw	a5,-36(s0)
     b8a:	c7d8                	sw	a4,12(a5)
D:\WCH\代码\3-PIT%20Demo\obj/../Libraries/wch_libraries/Peripheral/ch32v10x_rcc.c:523
  tmp = RCC->CFGR0 & CFGR0_ADCPRE_Set_Mask;
     b8c:	400217b7          	lui	a5,0x40021
     b90:	43d8                	lw	a4,4(a5)
     b92:	67b1                	lui	a5,0xc
     b94:	8ff9                	and	a5,a5,a4
     b96:	fef42623          	sw	a5,-20(s0)
D:\WCH\代码\3-PIT%20Demo\obj/../Libraries/wch_libraries/Peripheral/ch32v10x_rcc.c:524
  tmp = tmp >> 14;
     b9a:	fec42783          	lw	a5,-20(s0)
     b9e:	83b9                	srli	a5,a5,0xe
     ba0:	fef42623          	sw	a5,-20(s0)
D:\WCH\代码\3-PIT%20Demo\obj/../Libraries/wch_libraries/Peripheral/ch32v10x_rcc.c:525
  presc = ADCPrescTable[tmp];
     ba4:	200007b7          	lui	a5,0x20000
     ba8:	08878713          	addi	a4,a5,136 # 20000088 <ADCPrescTable>
     bac:	fec42783          	lw	a5,-20(s0)
     bb0:	97ba                	add	a5,a5,a4
     bb2:	0007c783          	lbu	a5,0(a5)
     bb6:	0ff7f793          	andi	a5,a5,255
     bba:	fef42023          	sw	a5,-32(s0)
D:\WCH\代码\3-PIT%20Demo\obj/../Libraries/wch_libraries/Peripheral/ch32v10x_rcc.c:526
  RCC_Clocks->ADCCLK_Frequency = RCC_Clocks->PCLK2_Frequency / presc;
     bbe:	fdc42783          	lw	a5,-36(s0)
     bc2:	47d8                	lw	a4,12(a5)
     bc4:	fe042783          	lw	a5,-32(s0)
     bc8:	02f75733          	divu	a4,a4,a5
     bcc:	fdc42783          	lw	a5,-36(s0)
     bd0:	cb98                	sw	a4,16(a5)
D:\WCH\代码\3-PIT%20Demo\obj/../Libraries/wch_libraries/Peripheral/ch32v10x_rcc.c:527
}
     bd2:	0001                	nop
     bd4:	5432                	lw	s0,44(sp)
     bd6:	6145                	addi	sp,sp,48
     bd8:	8082                	ret

00000bda <RCC_APB2PeriphClockCmd>:
RCC_APB2PeriphClockCmd():
D:\WCH\代码\3-PIT%20Demo\obj/../Libraries/wch_libraries/Peripheral/ch32v10x_rcc.c:570
*                    RCC_APB2Periph_USART1.
*                  NewState: ENABLE or DISABLE
* Return         : None
*******************************************************************************/	
void RCC_APB2PeriphClockCmd(uint32_t RCC_APB2Periph, FunctionalState NewState)
{
     bda:	1101                	addi	sp,sp,-32
     bdc:	ce22                	sw	s0,28(sp)
     bde:	1000                	addi	s0,sp,32
     be0:	fea42623          	sw	a0,-20(s0)
     be4:	feb42423          	sw	a1,-24(s0)
D:\WCH\代码\3-PIT%20Demo\obj/../Libraries/wch_libraries/Peripheral/ch32v10x_rcc.c:571
  if (NewState != DISABLE)
     be8:	fe842783          	lw	a5,-24(s0)
     bec:	cb99                	beqz	a5,c02 <RCC_APB2PeriphClockCmd+0x28>
D:\WCH\代码\3-PIT%20Demo\obj/../Libraries/wch_libraries/Peripheral/ch32v10x_rcc.c:573
  {
    RCC->APB2PCENR |= RCC_APB2Periph;
     bee:	400217b7          	lui	a5,0x40021
     bf2:	4f94                	lw	a3,24(a5)
     bf4:	400217b7          	lui	a5,0x40021
     bf8:	fec42703          	lw	a4,-20(s0)
     bfc:	8f55                	or	a4,a4,a3
     bfe:	cf98                	sw	a4,24(a5)
D:\WCH\代码\3-PIT%20Demo\obj/../Libraries/wch_libraries/Peripheral/ch32v10x_rcc.c:579
  }
  else
  {
    RCC->APB2PCENR &= ~RCC_APB2Periph;
  }
}
     c00:	a821                	j	c18 <RCC_APB2PeriphClockCmd+0x3e>
D:\WCH\代码\3-PIT%20Demo\obj/../Libraries/wch_libraries/Peripheral/ch32v10x_rcc.c:577
    RCC->APB2PCENR &= ~RCC_APB2Periph;
     c02:	400217b7          	lui	a5,0x40021
     c06:	4f94                	lw	a3,24(a5)
     c08:	fec42783          	lw	a5,-20(s0)
     c0c:	fff7c713          	not	a4,a5
     c10:	400217b7          	lui	a5,0x40021
     c14:	8f75                	and	a4,a4,a3
     c16:	cf98                	sw	a4,24(a5)
D:\WCH\代码\3-PIT%20Demo\obj/../Libraries/wch_libraries/Peripheral/ch32v10x_rcc.c:579
}
     c18:	0001                	nop
     c1a:	4472                	lw	s0,28(sp)
     c1c:	6105                	addi	sp,sp,32
     c1e:	8082                	ret

00000c20 <RCC_APB1PeriphClockCmd>:
RCC_APB1PeriphClockCmd():
D:\WCH\代码\3-PIT%20Demo\obj/../Libraries/wch_libraries/Peripheral/ch32v10x_rcc.c:603
*                    RCC_APB1Periph_DAC.                
*                  NewState: ENABLE or DISABLE.
* Return         : None
*******************************************************************************/	
void RCC_APB1PeriphClockCmd(uint32_t RCC_APB1Periph, FunctionalState NewState)
{
     c20:	1101                	addi	sp,sp,-32
     c22:	ce22                	sw	s0,28(sp)
     c24:	1000                	addi	s0,sp,32
     c26:	fea42623          	sw	a0,-20(s0)
     c2a:	feb42423          	sw	a1,-24(s0)
D:\WCH\代码\3-PIT%20Demo\obj/../Libraries/wch_libraries/Peripheral/ch32v10x_rcc.c:604
  if (NewState != DISABLE)
     c2e:	fe842783          	lw	a5,-24(s0)
     c32:	cb99                	beqz	a5,c48 <RCC_APB1PeriphClockCmd+0x28>
D:\WCH\代码\3-PIT%20Demo\obj/../Libraries/wch_libraries/Peripheral/ch32v10x_rcc.c:606
  {
    RCC->APB1PCENR |= RCC_APB1Periph;
     c34:	400217b7          	lui	a5,0x40021
     c38:	4fd4                	lw	a3,28(a5)
     c3a:	400217b7          	lui	a5,0x40021
     c3e:	fec42703          	lw	a4,-20(s0)
     c42:	8f55                	or	a4,a4,a3
     c44:	cfd8                	sw	a4,28(a5)
D:\WCH\代码\3-PIT%20Demo\obj/../Libraries/wch_libraries/Peripheral/ch32v10x_rcc.c:612
  }
  else
  {
    RCC->APB1PCENR &= ~RCC_APB1Periph;
  }
}
     c46:	a821                	j	c5e <RCC_APB1PeriphClockCmd+0x3e>
D:\WCH\代码\3-PIT%20Demo\obj/../Libraries/wch_libraries/Peripheral/ch32v10x_rcc.c:610
    RCC->APB1PCENR &= ~RCC_APB1Periph;
     c48:	400217b7          	lui	a5,0x40021
     c4c:	4fd4                	lw	a3,28(a5)
     c4e:	fec42783          	lw	a5,-20(s0)
     c52:	fff7c713          	not	a4,a5
     c56:	400217b7          	lui	a5,0x40021
     c5a:	8f75                	and	a4,a4,a3
     c5c:	cfd8                	sw	a4,28(a5)
D:\WCH\代码\3-PIT%20Demo\obj/../Libraries/wch_libraries/Peripheral/ch32v10x_rcc.c:612
}
     c5e:	0001                	nop
     c60:	4472                	lw	s0,28(sp)
     c62:	6105                	addi	sp,sp,32
     c64:	8082                	ret

00000c66 <SPI_Init>:
SPI_Init():
D:\WCH\代码\3-PIT%20Demo\obj/../Libraries/wch_libraries/Peripheral/ch32v10x_spi.c:83
*                  SPI_InitStruct: pointer to a SPI_InitTypeDef structure that
*      contains the configuration information for the specified SPI peripheral.
* Return         : None
*******************************************************************************/
void SPI_Init(SPI_TypeDef* SPIx, SPI_InitTypeDef* SPI_InitStruct)
{
     c66:	7179                	addi	sp,sp,-48
     c68:	d622                	sw	s0,44(sp)
     c6a:	1800                	addi	s0,sp,48
     c6c:	fca42e23          	sw	a0,-36(s0)
     c70:	fcb42c23          	sw	a1,-40(s0)
D:\WCH\代码\3-PIT%20Demo\obj/../Libraries/wch_libraries/Peripheral/ch32v10x_spi.c:84
  uint16_t tmpreg = 0;
     c74:	fe041723          	sh	zero,-18(s0)
D:\WCH\代码\3-PIT%20Demo\obj/../Libraries/wch_libraries/Peripheral/ch32v10x_spi.c:86
  
  tmpreg = SPIx->CTLR1;
     c78:	fdc42783          	lw	a5,-36(s0)
     c7c:	0007d783          	lhu	a5,0(a5) # 40021000 <_eusrstack+0x2001c000>
     c80:	fef41723          	sh	a5,-18(s0)
D:\WCH\代码\3-PIT%20Demo\obj/../Libraries/wch_libraries/Peripheral/ch32v10x_spi.c:87
  tmpreg &= CTLR1_CLEAR_Mask;
     c84:	fee45703          	lhu	a4,-18(s0)
     c88:	678d                	lui	a5,0x3
     c8a:	04078793          	addi	a5,a5,64 # 3040 <pwm_gpio_init+0x110>
     c8e:	8ff9                	and	a5,a5,a4
     c90:	fef41723          	sh	a5,-18(s0)
D:\WCH\代码\3-PIT%20Demo\obj/../Libraries/wch_libraries/Peripheral/ch32v10x_spi.c:88
  tmpreg |= (uint16_t)((uint32_t)SPI_InitStruct->SPI_Direction | SPI_InitStruct->SPI_Mode |
     c94:	fd842783          	lw	a5,-40(s0)
     c98:	0007d703          	lhu	a4,0(a5)
     c9c:	fd842783          	lw	a5,-40(s0)
     ca0:	0027d783          	lhu	a5,2(a5)
     ca4:	8fd9                	or	a5,a5,a4
     ca6:	01079713          	slli	a4,a5,0x10
     caa:	8341                	srli	a4,a4,0x10
D:\WCH\代码\3-PIT%20Demo\obj/../Libraries/wch_libraries/Peripheral/ch32v10x_spi.c:89
                  SPI_InitStruct->SPI_DataSize | SPI_InitStruct->SPI_CPOL |  
     cac:	fd842783          	lw	a5,-40(s0)
     cb0:	0047d783          	lhu	a5,4(a5)
D:\WCH\代码\3-PIT%20Demo\obj/../Libraries/wch_libraries/Peripheral/ch32v10x_spi.c:88
  tmpreg |= (uint16_t)((uint32_t)SPI_InitStruct->SPI_Direction | SPI_InitStruct->SPI_Mode |
     cb4:	8fd9                	or	a5,a5,a4
     cb6:	01079713          	slli	a4,a5,0x10
     cba:	8341                	srli	a4,a4,0x10
D:\WCH\代码\3-PIT%20Demo\obj/../Libraries/wch_libraries/Peripheral/ch32v10x_spi.c:89
                  SPI_InitStruct->SPI_DataSize | SPI_InitStruct->SPI_CPOL |  
     cbc:	fd842783          	lw	a5,-40(s0)
     cc0:	0067d783          	lhu	a5,6(a5)
D:\WCH\代码\3-PIT%20Demo\obj/../Libraries/wch_libraries/Peripheral/ch32v10x_spi.c:88
  tmpreg |= (uint16_t)((uint32_t)SPI_InitStruct->SPI_Direction | SPI_InitStruct->SPI_Mode |
     cc4:	8fd9                	or	a5,a5,a4
     cc6:	01079713          	slli	a4,a5,0x10
     cca:	8341                	srli	a4,a4,0x10
D:\WCH\代码\3-PIT%20Demo\obj/../Libraries/wch_libraries/Peripheral/ch32v10x_spi.c:90
                  SPI_InitStruct->SPI_CPHA | SPI_InitStruct->SPI_NSS |  
     ccc:	fd842783          	lw	a5,-40(s0)
     cd0:	0087d783          	lhu	a5,8(a5)
D:\WCH\代码\3-PIT%20Demo\obj/../Libraries/wch_libraries/Peripheral/ch32v10x_spi.c:88
  tmpreg |= (uint16_t)((uint32_t)SPI_InitStruct->SPI_Direction | SPI_InitStruct->SPI_Mode |
     cd4:	8fd9                	or	a5,a5,a4
     cd6:	01079713          	slli	a4,a5,0x10
     cda:	8341                	srli	a4,a4,0x10
D:\WCH\代码\3-PIT%20Demo\obj/../Libraries/wch_libraries/Peripheral/ch32v10x_spi.c:90
                  SPI_InitStruct->SPI_CPHA | SPI_InitStruct->SPI_NSS |  
     cdc:	fd842783          	lw	a5,-40(s0)
     ce0:	00a7d783          	lhu	a5,10(a5)
D:\WCH\代码\3-PIT%20Demo\obj/../Libraries/wch_libraries/Peripheral/ch32v10x_spi.c:88
  tmpreg |= (uint16_t)((uint32_t)SPI_InitStruct->SPI_Direction | SPI_InitStruct->SPI_Mode |
     ce4:	8fd9                	or	a5,a5,a4
     ce6:	01079713          	slli	a4,a5,0x10
     cea:	8341                	srli	a4,a4,0x10
D:\WCH\代码\3-PIT%20Demo\obj/../Libraries/wch_libraries/Peripheral/ch32v10x_spi.c:91
                  SPI_InitStruct->SPI_BaudRatePrescaler | SPI_InitStruct->SPI_FirstBit);
     cec:	fd842783          	lw	a5,-40(s0)
     cf0:	00c7d783          	lhu	a5,12(a5)
D:\WCH\代码\3-PIT%20Demo\obj/../Libraries/wch_libraries/Peripheral/ch32v10x_spi.c:88
  tmpreg |= (uint16_t)((uint32_t)SPI_InitStruct->SPI_Direction | SPI_InitStruct->SPI_Mode |
     cf4:	8fd9                	or	a5,a5,a4
     cf6:	01079713          	slli	a4,a5,0x10
     cfa:	8341                	srli	a4,a4,0x10
D:\WCH\代码\3-PIT%20Demo\obj/../Libraries/wch_libraries/Peripheral/ch32v10x_spi.c:91
                  SPI_InitStruct->SPI_BaudRatePrescaler | SPI_InitStruct->SPI_FirstBit);
     cfc:	fd842783          	lw	a5,-40(s0)
     d00:	00e7d783          	lhu	a5,14(a5)
D:\WCH\代码\3-PIT%20Demo\obj/../Libraries/wch_libraries/Peripheral/ch32v10x_spi.c:88
  tmpreg |= (uint16_t)((uint32_t)SPI_InitStruct->SPI_Direction | SPI_InitStruct->SPI_Mode |
     d04:	8fd9                	or	a5,a5,a4
     d06:	01079713          	slli	a4,a5,0x10
     d0a:	8341                	srli	a4,a4,0x10
     d0c:	fee45783          	lhu	a5,-18(s0)
     d10:	8fd9                	or	a5,a5,a4
     d12:	fef41723          	sh	a5,-18(s0)
D:\WCH\代码\3-PIT%20Demo\obj/../Libraries/wch_libraries/Peripheral/ch32v10x_spi.c:93

  SPIx->CTLR1 = tmpreg;
     d16:	fdc42783          	lw	a5,-36(s0)
     d1a:	fee45703          	lhu	a4,-18(s0)
     d1e:	00e79023          	sh	a4,0(a5)
D:\WCH\代码\3-PIT%20Demo\obj/../Libraries/wch_libraries/Peripheral/ch32v10x_spi.c:94
  SPIx->I2SCFGR &= SPI_Mode_Select;		
     d22:	fdc42783          	lw	a5,-36(s0)
     d26:	01c7d783          	lhu	a5,28(a5)
     d2a:	01079713          	slli	a4,a5,0x10
     d2e:	8341                	srli	a4,a4,0x10
     d30:	77fd                	lui	a5,0xfffff
     d32:	7ff78793          	addi	a5,a5,2047 # fffff7ff <_eusrstack+0xdfffa7ff>
     d36:	8ff9                	and	a5,a5,a4
     d38:	01079713          	slli	a4,a5,0x10
     d3c:	8341                	srli	a4,a4,0x10
     d3e:	fdc42783          	lw	a5,-36(s0)
     d42:	00e79e23          	sh	a4,28(a5)
D:\WCH\代码\3-PIT%20Demo\obj/../Libraries/wch_libraries/Peripheral/ch32v10x_spi.c:95
  SPIx->CRCR = SPI_InitStruct->SPI_CRCPolynomial;
     d46:	fd842783          	lw	a5,-40(s0)
     d4a:	0107d703          	lhu	a4,16(a5)
     d4e:	fdc42783          	lw	a5,-36(s0)
     d52:	00e79823          	sh	a4,16(a5)
D:\WCH\代码\3-PIT%20Demo\obj/../Libraries/wch_libraries/Peripheral/ch32v10x_spi.c:96
}
     d56:	0001                	nop
     d58:	5432                	lw	s0,44(sp)
     d5a:	6145                	addi	sp,sp,48
     d5c:	8082                	ret

00000d5e <SPI_Cmd>:
SPI_Cmd():
D:\WCH\代码\3-PIT%20Demo\obj/../Libraries/wch_libraries/Peripheral/ch32v10x_spi.c:221
* Input          : SPIx: where x can be 1, 2 or 3 to select the SPI peripheral.
*                  NewState: ENABLE or DISABLE.
* Return         : None
*******************************************************************************/
void SPI_Cmd(SPI_TypeDef* SPIx, FunctionalState NewState)
{
     d5e:	1101                	addi	sp,sp,-32
     d60:	ce22                	sw	s0,28(sp)
     d62:	1000                	addi	s0,sp,32
     d64:	fea42623          	sw	a0,-20(s0)
     d68:	feb42423          	sw	a1,-24(s0)
D:\WCH\代码\3-PIT%20Demo\obj/../Libraries/wch_libraries/Peripheral/ch32v10x_spi.c:222
  if (NewState != DISABLE)
     d6c:	fe842783          	lw	a5,-24(s0)
     d70:	c38d                	beqz	a5,d92 <SPI_Cmd+0x34>
D:\WCH\代码\3-PIT%20Demo\obj/../Libraries/wch_libraries/Peripheral/ch32v10x_spi.c:224
  {
    SPIx->CTLR1 |= CTLR1_SPE_Set;
     d72:	fec42783          	lw	a5,-20(s0)
     d76:	0007d783          	lhu	a5,0(a5)
     d7a:	07c2                	slli	a5,a5,0x10
     d7c:	83c1                	srli	a5,a5,0x10
     d7e:	0407e793          	ori	a5,a5,64
     d82:	01079713          	slli	a4,a5,0x10
     d86:	8341                	srli	a4,a4,0x10
     d88:	fec42783          	lw	a5,-20(s0)
     d8c:	00e79023          	sh	a4,0(a5)
D:\WCH\代码\3-PIT%20Demo\obj/../Libraries/wch_libraries/Peripheral/ch32v10x_spi.c:230
  }
  else
  {
    SPIx->CTLR1 &= CTLR1_SPE_Reset;
  }
}
     d90:	a005                	j	db0 <SPI_Cmd+0x52>
D:\WCH\代码\3-PIT%20Demo\obj/../Libraries/wch_libraries/Peripheral/ch32v10x_spi.c:228
    SPIx->CTLR1 &= CTLR1_SPE_Reset;
     d92:	fec42783          	lw	a5,-20(s0)
     d96:	0007d783          	lhu	a5,0(a5)
     d9a:	07c2                	slli	a5,a5,0x10
     d9c:	83c1                	srli	a5,a5,0x10
     d9e:	fbf7f793          	andi	a5,a5,-65
     da2:	01079713          	slli	a4,a5,0x10
     da6:	8341                	srli	a4,a4,0x10
     da8:	fec42783          	lw	a5,-20(s0)
     dac:	00e79023          	sh	a4,0(a5)
D:\WCH\代码\3-PIT%20Demo\obj/../Libraries/wch_libraries/Peripheral/ch32v10x_spi.c:230
}
     db0:	0001                	nop
     db2:	4472                	lw	s0,28(sp)
     db4:	6105                	addi	sp,sp,32
     db6:	8082                	ret

00000db8 <TIM_TimeBaseInit>:
TIM_TimeBaseInit():
D:\WCH\代码\3-PIT%20Demo\obj/../Libraries/wch_libraries/Peripheral/ch32v10x_tim.c:67
*                  TIM_TimeBaseInitStruct: pointer to a TIM_TimeBaseInitTypeDef
*      structure.
* Return         : None
*******************************************************************************/
void TIM_TimeBaseInit(TIM_TypeDef* TIMx, TIM_TimeBaseInitTypeDef* TIM_TimeBaseInitStruct)
{
     db8:	7179                	addi	sp,sp,-48
     dba:	d622                	sw	s0,44(sp)
     dbc:	1800                	addi	s0,sp,48
     dbe:	fca42e23          	sw	a0,-36(s0)
     dc2:	fcb42c23          	sw	a1,-40(s0)
D:\WCH\代码\3-PIT%20Demo\obj/../Libraries/wch_libraries/Peripheral/ch32v10x_tim.c:68
  uint16_t tmpcr1 = 0;
     dc6:	fe041723          	sh	zero,-18(s0)
D:\WCH\代码\3-PIT%20Demo\obj/../Libraries/wch_libraries/Peripheral/ch32v10x_tim.c:70

  tmpcr1 = TIMx->CTLR1;  
     dca:	fdc42783          	lw	a5,-36(s0)
     dce:	0007d783          	lhu	a5,0(a5)
     dd2:	fef41723          	sh	a5,-18(s0)
D:\WCH\代码\3-PIT%20Demo\obj/../Libraries/wch_libraries/Peripheral/ch32v10x_tim.c:72

  if((TIMx == TIM1) || (TIMx == TIM2) || (TIMx == TIM3)|| (TIMx == TIM4)) 
     dd6:	fdc42703          	lw	a4,-36(s0)
     dda:	400137b7          	lui	a5,0x40013
     dde:	c0078793          	addi	a5,a5,-1024 # 40012c00 <_eusrstack+0x2000dc00>
     de2:	02f70863          	beq	a4,a5,e12 <TIM_TimeBaseInit+0x5a>
D:\WCH\代码\3-PIT%20Demo\obj/../Libraries/wch_libraries/Peripheral/ch32v10x_tim.c:72 (discriminator 1)
     de6:	fdc42703          	lw	a4,-36(s0)
     dea:	400007b7          	lui	a5,0x40000
     dee:	02f70263          	beq	a4,a5,e12 <TIM_TimeBaseInit+0x5a>
D:\WCH\代码\3-PIT%20Demo\obj/../Libraries/wch_libraries/Peripheral/ch32v10x_tim.c:72 (discriminator 2)
     df2:	fdc42703          	lw	a4,-36(s0)
     df6:	400007b7          	lui	a5,0x40000
     dfa:	40078793          	addi	a5,a5,1024 # 40000400 <_eusrstack+0x1fffb400>
     dfe:	00f70a63          	beq	a4,a5,e12 <TIM_TimeBaseInit+0x5a>
D:\WCH\代码\3-PIT%20Demo\obj/../Libraries/wch_libraries/Peripheral/ch32v10x_tim.c:72 (discriminator 3)
     e02:	fdc42703          	lw	a4,-36(s0)
     e06:	400017b7          	lui	a5,0x40001
     e0a:	80078793          	addi	a5,a5,-2048 # 40000800 <_eusrstack+0x1fffb800>
     e0e:	02f71163          	bne	a4,a5,e30 <TIM_TimeBaseInit+0x78>
D:\WCH\代码\3-PIT%20Demo\obj/../Libraries/wch_libraries/Peripheral/ch32v10x_tim.c:74
  {
    tmpcr1 &= (uint16_t)(~((uint16_t)(TIM_DIR | TIM_CMS)));
     e12:	fee45783          	lhu	a5,-18(s0)
     e16:	f8f7f793          	andi	a5,a5,-113
     e1a:	fef41723          	sh	a5,-18(s0)
D:\WCH\代码\3-PIT%20Demo\obj/../Libraries/wch_libraries/Peripheral/ch32v10x_tim.c:75
    tmpcr1 |= (uint32_t)TIM_TimeBaseInitStruct->TIM_CounterMode;
     e1e:	fd842783          	lw	a5,-40(s0)
     e22:	0027d703          	lhu	a4,2(a5)
     e26:	fee45783          	lhu	a5,-18(s0)
     e2a:	8fd9                	or	a5,a5,a4
     e2c:	fef41723          	sh	a5,-18(s0)
D:\WCH\代码\3-PIT%20Demo\obj/../Libraries/wch_libraries/Peripheral/ch32v10x_tim.c:78
  }

  tmpcr1 &= (uint16_t)(~((uint16_t)TIM_CTLR1_CKD));
     e30:	fee45783          	lhu	a5,-18(s0)
     e34:	cff7f793          	andi	a5,a5,-769
     e38:	fef41723          	sh	a5,-18(s0)
D:\WCH\代码\3-PIT%20Demo\obj/../Libraries/wch_libraries/Peripheral/ch32v10x_tim.c:79
  tmpcr1 |= (uint32_t)TIM_TimeBaseInitStruct->TIM_ClockDivision;
     e3c:	fd842783          	lw	a5,-40(s0)
     e40:	0067d703          	lhu	a4,6(a5)
     e44:	fee45783          	lhu	a5,-18(s0)
     e48:	8fd9                	or	a5,a5,a4
     e4a:	fef41723          	sh	a5,-18(s0)
D:\WCH\代码\3-PIT%20Demo\obj/../Libraries/wch_libraries/Peripheral/ch32v10x_tim.c:81

  TIMx->CTLR1 = tmpcr1;
     e4e:	fdc42783          	lw	a5,-36(s0)
     e52:	fee45703          	lhu	a4,-18(s0)
     e56:	00e79023          	sh	a4,0(a5)
D:\WCH\代码\3-PIT%20Demo\obj/../Libraries/wch_libraries/Peripheral/ch32v10x_tim.c:82
  TIMx->ATRLR = TIM_TimeBaseInitStruct->TIM_Period ;
     e5a:	fd842783          	lw	a5,-40(s0)
     e5e:	0047d703          	lhu	a4,4(a5)
     e62:	fdc42783          	lw	a5,-36(s0)
     e66:	02e79623          	sh	a4,44(a5)
D:\WCH\代码\3-PIT%20Demo\obj/../Libraries/wch_libraries/Peripheral/ch32v10x_tim.c:83
  TIMx->PSC = TIM_TimeBaseInitStruct->TIM_Prescaler;
     e6a:	fd842783          	lw	a5,-40(s0)
     e6e:	0007d703          	lhu	a4,0(a5)
     e72:	fdc42783          	lw	a5,-36(s0)
     e76:	02e79423          	sh	a4,40(a5)
D:\WCH\代码\3-PIT%20Demo\obj/../Libraries/wch_libraries/Peripheral/ch32v10x_tim.c:85
    
  if (TIMx == TIM1)  
     e7a:	fdc42703          	lw	a4,-36(s0)
     e7e:	400137b7          	lui	a5,0x40013
     e82:	c0078793          	addi	a5,a5,-1024 # 40012c00 <_eusrstack+0x2000dc00>
     e86:	00f71d63          	bne	a4,a5,ea0 <TIM_TimeBaseInit+0xe8>
D:\WCH\代码\3-PIT%20Demo\obj/../Libraries/wch_libraries/Peripheral/ch32v10x_tim.c:87
  {
    TIMx->RPTCR = TIM_TimeBaseInitStruct->TIM_RepetitionCounter;
     e8a:	fd842783          	lw	a5,-40(s0)
     e8e:	0087c783          	lbu	a5,8(a5)
     e92:	01079713          	slli	a4,a5,0x10
     e96:	8341                	srli	a4,a4,0x10
     e98:	fdc42783          	lw	a5,-36(s0)
     e9c:	02e79823          	sh	a4,48(a5)
D:\WCH\代码\3-PIT%20Demo\obj/../Libraries/wch_libraries/Peripheral/ch32v10x_tim.c:90
  }

  TIMx->SWEVGR = TIM_PSCReloadMode_Immediate;           
     ea0:	fdc42783          	lw	a5,-36(s0)
     ea4:	4705                	li	a4,1
     ea6:	00e79a23          	sh	a4,20(a5)
D:\WCH\代码\3-PIT%20Demo\obj/../Libraries/wch_libraries/Peripheral/ch32v10x_tim.c:91
}
     eaa:	0001                	nop
     eac:	5432                	lw	s0,44(sp)
     eae:	6145                	addi	sp,sp,48
     eb0:	8082                	ret

00000eb2 <TIM_OC1Init>:
TIM_OC1Init():
D:\WCH\代码\3-PIT%20Demo\obj/../Libraries/wch_libraries/Peripheral/ch32v10x_tim.c:102
* Input          : TIMx: where x can be 1 to 4 to select the TIM peripheral.
*                  TIM_OCInitStruct: pointer to a TIM_OCInitTypeDef structure.
* Return         : None
*******************************************************************************/
void TIM_OC1Init(TIM_TypeDef* TIMx, TIM_OCInitTypeDef* TIM_OCInitStruct)
{
     eb2:	7179                	addi	sp,sp,-48
     eb4:	d622                	sw	s0,44(sp)
     eb6:	1800                	addi	s0,sp,48
     eb8:	fca42e23          	sw	a0,-36(s0)
     ebc:	fcb42c23          	sw	a1,-40(s0)
D:\WCH\代码\3-PIT%20Demo\obj/../Libraries/wch_libraries/Peripheral/ch32v10x_tim.c:103
  uint16_t tmpccmrx = 0, tmpccer = 0, tmpcr2 = 0;
     ec0:	fe041523          	sh	zero,-22(s0)
     ec4:	fe041723          	sh	zero,-18(s0)
     ec8:	fe041623          	sh	zero,-20(s0)
D:\WCH\代码\3-PIT%20Demo\obj/../Libraries/wch_libraries/Peripheral/ch32v10x_tim.c:105
     
  TIMx->CCER &= (uint16_t)(~(uint16_t)TIM_CC1E);
     ecc:	fdc42783          	lw	a5,-36(s0)
     ed0:	0207d783          	lhu	a5,32(a5)
     ed4:	07c2                	slli	a5,a5,0x10
     ed6:	83c1                	srli	a5,a5,0x10
     ed8:	9bf9                	andi	a5,a5,-2
     eda:	01079713          	slli	a4,a5,0x10
     ede:	8341                	srli	a4,a4,0x10
     ee0:	fdc42783          	lw	a5,-36(s0)
     ee4:	02e79023          	sh	a4,32(a5)
D:\WCH\代码\3-PIT%20Demo\obj/../Libraries/wch_libraries/Peripheral/ch32v10x_tim.c:106
  tmpccer = TIMx->CCER;
     ee8:	fdc42783          	lw	a5,-36(s0)
     eec:	0207d783          	lhu	a5,32(a5)
     ef0:	fef41723          	sh	a5,-18(s0)
D:\WCH\代码\3-PIT%20Demo\obj/../Libraries/wch_libraries/Peripheral/ch32v10x_tim.c:107
  tmpcr2 =  TIMx->CTLR2;
     ef4:	fdc42783          	lw	a5,-36(s0)
     ef8:	0047d783          	lhu	a5,4(a5)
     efc:	fef41623          	sh	a5,-20(s0)
D:\WCH\代码\3-PIT%20Demo\obj/../Libraries/wch_libraries/Peripheral/ch32v10x_tim.c:108
  tmpccmrx = TIMx->CHCTLR1;
     f00:	fdc42783          	lw	a5,-36(s0)
     f04:	0187d783          	lhu	a5,24(a5)
     f08:	fef41523          	sh	a5,-22(s0)
D:\WCH\代码\3-PIT%20Demo\obj/../Libraries/wch_libraries/Peripheral/ch32v10x_tim.c:109
  tmpccmrx &= (uint16_t)(~((uint16_t)TIM_OC1M));
     f0c:	fea45783          	lhu	a5,-22(s0)
     f10:	f8f7f793          	andi	a5,a5,-113
     f14:	fef41523          	sh	a5,-22(s0)
D:\WCH\代码\3-PIT%20Demo\obj/../Libraries/wch_libraries/Peripheral/ch32v10x_tim.c:110
  tmpccmrx &= (uint16_t)(~((uint16_t)TIM_CC1S));
     f18:	fea45783          	lhu	a5,-22(s0)
     f1c:	9bf1                	andi	a5,a5,-4
     f1e:	fef41523          	sh	a5,-22(s0)
D:\WCH\代码\3-PIT%20Demo\obj/../Libraries/wch_libraries/Peripheral/ch32v10x_tim.c:111
  tmpccmrx |= TIM_OCInitStruct->TIM_OCMode;
     f22:	fd842783          	lw	a5,-40(s0)
     f26:	0007d703          	lhu	a4,0(a5)
     f2a:	fea45783          	lhu	a5,-22(s0)
     f2e:	8fd9                	or	a5,a5,a4
     f30:	fef41523          	sh	a5,-22(s0)
D:\WCH\代码\3-PIT%20Demo\obj/../Libraries/wch_libraries/Peripheral/ch32v10x_tim.c:112
  tmpccer &= (uint16_t)(~((uint16_t)TIM_CC1P));
     f34:	fee45783          	lhu	a5,-18(s0)
     f38:	9bf5                	andi	a5,a5,-3
     f3a:	fef41723          	sh	a5,-18(s0)
D:\WCH\代码\3-PIT%20Demo\obj/../Libraries/wch_libraries/Peripheral/ch32v10x_tim.c:113
  tmpccer |= TIM_OCInitStruct->TIM_OCPolarity;
     f3e:	fd842783          	lw	a5,-40(s0)
     f42:	0087d703          	lhu	a4,8(a5)
     f46:	fee45783          	lhu	a5,-18(s0)
     f4a:	8fd9                	or	a5,a5,a4
     f4c:	fef41723          	sh	a5,-18(s0)
D:\WCH\代码\3-PIT%20Demo\obj/../Libraries/wch_libraries/Peripheral/ch32v10x_tim.c:114
  tmpccer |= TIM_OCInitStruct->TIM_OutputState;
     f50:	fd842783          	lw	a5,-40(s0)
     f54:	0027d703          	lhu	a4,2(a5)
     f58:	fee45783          	lhu	a5,-18(s0)
     f5c:	8fd9                	or	a5,a5,a4
     f5e:	fef41723          	sh	a5,-18(s0)
D:\WCH\代码\3-PIT%20Demo\obj/../Libraries/wch_libraries/Peripheral/ch32v10x_tim.c:116
    
  if(TIMx == TIM1)
     f62:	fdc42703          	lw	a4,-36(s0)
     f66:	400137b7          	lui	a5,0x40013
     f6a:	c0078793          	addi	a5,a5,-1024 # 40012c00 <_eusrstack+0x2000dc00>
     f6e:	06f71c63          	bne	a4,a5,fe6 <TIM_OC1Init+0x134>
D:\WCH\代码\3-PIT%20Demo\obj/../Libraries/wch_libraries/Peripheral/ch32v10x_tim.c:118
  {
    tmpccer &= (uint16_t)(~((uint16_t)TIM_CC1NP));
     f72:	fee45783          	lhu	a5,-18(s0)
     f76:	9bdd                	andi	a5,a5,-9
     f78:	fef41723          	sh	a5,-18(s0)
D:\WCH\代码\3-PIT%20Demo\obj/../Libraries/wch_libraries/Peripheral/ch32v10x_tim.c:119
    tmpccer |= TIM_OCInitStruct->TIM_OCNPolarity;
     f7c:	fd842783          	lw	a5,-40(s0)
     f80:	00a7d703          	lhu	a4,10(a5)
     f84:	fee45783          	lhu	a5,-18(s0)
     f88:	8fd9                	or	a5,a5,a4
     f8a:	fef41723          	sh	a5,-18(s0)
D:\WCH\代码\3-PIT%20Demo\obj/../Libraries/wch_libraries/Peripheral/ch32v10x_tim.c:121
 
    tmpccer &= (uint16_t)(~((uint16_t)TIM_CC1NE));    
     f8e:	fee45783          	lhu	a5,-18(s0)
     f92:	9bed                	andi	a5,a5,-5
     f94:	fef41723          	sh	a5,-18(s0)
D:\WCH\代码\3-PIT%20Demo\obj/../Libraries/wch_libraries/Peripheral/ch32v10x_tim.c:122
    tmpccer |= TIM_OCInitStruct->TIM_OutputNState;
     f98:	fd842783          	lw	a5,-40(s0)
     f9c:	0047d703          	lhu	a4,4(a5)
     fa0:	fee45783          	lhu	a5,-18(s0)
     fa4:	8fd9                	or	a5,a5,a4
     fa6:	fef41723          	sh	a5,-18(s0)
D:\WCH\代码\3-PIT%20Demo\obj/../Libraries/wch_libraries/Peripheral/ch32v10x_tim.c:124
    
    tmpcr2 &= (uint16_t)(~((uint16_t)TIM_OIS1));
     faa:	fec45783          	lhu	a5,-20(s0)
     fae:	eff7f793          	andi	a5,a5,-257
     fb2:	fef41623          	sh	a5,-20(s0)
D:\WCH\代码\3-PIT%20Demo\obj/../Libraries/wch_libraries/Peripheral/ch32v10x_tim.c:125
    tmpcr2 &= (uint16_t)(~((uint16_t)TIM_OIS1N));
     fb6:	fec45783          	lhu	a5,-20(s0)
     fba:	dff7f793          	andi	a5,a5,-513
     fbe:	fef41623          	sh	a5,-20(s0)
D:\WCH\代码\3-PIT%20Demo\obj/../Libraries/wch_libraries/Peripheral/ch32v10x_tim.c:127
    
    tmpcr2 |= TIM_OCInitStruct->TIM_OCIdleState;
     fc2:	fd842783          	lw	a5,-40(s0)
     fc6:	00c7d703          	lhu	a4,12(a5)
     fca:	fec45783          	lhu	a5,-20(s0)
     fce:	8fd9                	or	a5,a5,a4
     fd0:	fef41623          	sh	a5,-20(s0)
D:\WCH\代码\3-PIT%20Demo\obj/../Libraries/wch_libraries/Peripheral/ch32v10x_tim.c:128
    tmpcr2 |= TIM_OCInitStruct->TIM_OCNIdleState;
     fd4:	fd842783          	lw	a5,-40(s0)
     fd8:	00e7d703          	lhu	a4,14(a5)
     fdc:	fec45783          	lhu	a5,-20(s0)
     fe0:	8fd9                	or	a5,a5,a4
     fe2:	fef41623          	sh	a5,-20(s0)
D:\WCH\代码\3-PIT%20Demo\obj/../Libraries/wch_libraries/Peripheral/ch32v10x_tim.c:131
  }

  TIMx->CTLR2 = tmpcr2;
     fe6:	fdc42783          	lw	a5,-36(s0)
     fea:	fec45703          	lhu	a4,-20(s0)
     fee:	00e79223          	sh	a4,4(a5)
D:\WCH\代码\3-PIT%20Demo\obj/../Libraries/wch_libraries/Peripheral/ch32v10x_tim.c:132
  TIMx->CHCTLR1 = tmpccmrx;
     ff2:	fdc42783          	lw	a5,-36(s0)
     ff6:	fea45703          	lhu	a4,-22(s0)
     ffa:	00e79c23          	sh	a4,24(a5)
D:\WCH\代码\3-PIT%20Demo\obj/../Libraries/wch_libraries/Peripheral/ch32v10x_tim.c:133
  TIMx->CH1CVR = TIM_OCInitStruct->TIM_Pulse; 
     ffe:	fd842783          	lw	a5,-40(s0)
    1002:	0067d703          	lhu	a4,6(a5)
    1006:	fdc42783          	lw	a5,-36(s0)
    100a:	02e79a23          	sh	a4,52(a5)
D:\WCH\代码\3-PIT%20Demo\obj/../Libraries/wch_libraries/Peripheral/ch32v10x_tim.c:134
  TIMx->CCER = tmpccer;
    100e:	fdc42783          	lw	a5,-36(s0)
    1012:	fee45703          	lhu	a4,-18(s0)
    1016:	02e79023          	sh	a4,32(a5)
D:\WCH\代码\3-PIT%20Demo\obj/../Libraries/wch_libraries/Peripheral/ch32v10x_tim.c:135
}
    101a:	0001                	nop
    101c:	5432                	lw	s0,44(sp)
    101e:	6145                	addi	sp,sp,48
    1020:	8082                	ret

00001022 <TIM_OC2Init>:
TIM_OC2Init():
D:\WCH\代码\3-PIT%20Demo\obj/../Libraries/wch_libraries/Peripheral/ch32v10x_tim.c:146
* Input          : TIMx: where x can be 1 to 4 to select the TIM peripheral.
*                  TIM_OCInitStruct: pointer to a TIM_OCInitTypeDef structure.
* Return         : None
*******************************************************************************/
void TIM_OC2Init(TIM_TypeDef* TIMx, TIM_OCInitTypeDef* TIM_OCInitStruct)
{
    1022:	7179                	addi	sp,sp,-48
    1024:	d622                	sw	s0,44(sp)
    1026:	1800                	addi	s0,sp,48
    1028:	fca42e23          	sw	a0,-36(s0)
    102c:	fcb42c23          	sw	a1,-40(s0)
D:\WCH\代码\3-PIT%20Demo\obj/../Libraries/wch_libraries/Peripheral/ch32v10x_tim.c:147
  uint16_t tmpccmrx = 0, tmpccer = 0, tmpcr2 = 0;
    1030:	fe041523          	sh	zero,-22(s0)
    1034:	fe041723          	sh	zero,-18(s0)
    1038:	fe041623          	sh	zero,-20(s0)
D:\WCH\代码\3-PIT%20Demo\obj/../Libraries/wch_libraries/Peripheral/ch32v10x_tim.c:149
   
  TIMx->CCER &= (uint16_t)(~((uint16_t)TIM_CC2E)); 
    103c:	fdc42783          	lw	a5,-36(s0)
    1040:	0207d783          	lhu	a5,32(a5)
    1044:	07c2                	slli	a5,a5,0x10
    1046:	83c1                	srli	a5,a5,0x10
    1048:	9bbd                	andi	a5,a5,-17
    104a:	01079713          	slli	a4,a5,0x10
    104e:	8341                	srli	a4,a4,0x10
    1050:	fdc42783          	lw	a5,-36(s0)
    1054:	02e79023          	sh	a4,32(a5)
D:\WCH\代码\3-PIT%20Demo\obj/../Libraries/wch_libraries/Peripheral/ch32v10x_tim.c:150
  tmpccer = TIMx->CCER;
    1058:	fdc42783          	lw	a5,-36(s0)
    105c:	0207d783          	lhu	a5,32(a5)
    1060:	fef41723          	sh	a5,-18(s0)
D:\WCH\代码\3-PIT%20Demo\obj/../Libraries/wch_libraries/Peripheral/ch32v10x_tim.c:151
  tmpcr2 =  TIMx->CTLR2;
    1064:	fdc42783          	lw	a5,-36(s0)
    1068:	0047d783          	lhu	a5,4(a5)
    106c:	fef41623          	sh	a5,-20(s0)
D:\WCH\代码\3-PIT%20Demo\obj/../Libraries/wch_libraries/Peripheral/ch32v10x_tim.c:152
  tmpccmrx = TIMx->CHCTLR1;
    1070:	fdc42783          	lw	a5,-36(s0)
    1074:	0187d783          	lhu	a5,24(a5)
    1078:	fef41523          	sh	a5,-22(s0)
D:\WCH\代码\3-PIT%20Demo\obj/../Libraries/wch_libraries/Peripheral/ch32v10x_tim.c:153
  tmpccmrx &= (uint16_t)(~((uint16_t)TIM_OC2M));
    107c:	fea45703          	lhu	a4,-22(s0)
    1080:	77e5                	lui	a5,0xffff9
    1082:	17fd                	addi	a5,a5,-1
    1084:	8ff9                	and	a5,a5,a4
    1086:	fef41523          	sh	a5,-22(s0)
D:\WCH\代码\3-PIT%20Demo\obj/../Libraries/wch_libraries/Peripheral/ch32v10x_tim.c:154
  tmpccmrx &= (uint16_t)(~((uint16_t)TIM_CC2S));
    108a:	fea45783          	lhu	a5,-22(s0)
    108e:	cff7f793          	andi	a5,a5,-769
    1092:	fef41523          	sh	a5,-22(s0)
D:\WCH\代码\3-PIT%20Demo\obj/../Libraries/wch_libraries/Peripheral/ch32v10x_tim.c:155
  tmpccmrx |= (uint16_t)(TIM_OCInitStruct->TIM_OCMode << 8);
    1096:	fd842783          	lw	a5,-40(s0)
    109a:	0007d783          	lhu	a5,0(a5) # ffff9000 <_eusrstack+0xdfff4000>
    109e:	07a2                	slli	a5,a5,0x8
    10a0:	01079713          	slli	a4,a5,0x10
    10a4:	8341                	srli	a4,a4,0x10
    10a6:	fea45783          	lhu	a5,-22(s0)
    10aa:	8fd9                	or	a5,a5,a4
    10ac:	fef41523          	sh	a5,-22(s0)
D:\WCH\代码\3-PIT%20Demo\obj/../Libraries/wch_libraries/Peripheral/ch32v10x_tim.c:156
  tmpccer &= (uint16_t)(~((uint16_t)TIM_CC2P));
    10b0:	fee45783          	lhu	a5,-18(s0)
    10b4:	fdf7f793          	andi	a5,a5,-33
    10b8:	fef41723          	sh	a5,-18(s0)
D:\WCH\代码\3-PIT%20Demo\obj/../Libraries/wch_libraries/Peripheral/ch32v10x_tim.c:157
  tmpccer |= (uint16_t)(TIM_OCInitStruct->TIM_OCPolarity << 4);
    10bc:	fd842783          	lw	a5,-40(s0)
    10c0:	0087d783          	lhu	a5,8(a5)
    10c4:	0792                	slli	a5,a5,0x4
    10c6:	01079713          	slli	a4,a5,0x10
    10ca:	8341                	srli	a4,a4,0x10
    10cc:	fee45783          	lhu	a5,-18(s0)
    10d0:	8fd9                	or	a5,a5,a4
    10d2:	fef41723          	sh	a5,-18(s0)
D:\WCH\代码\3-PIT%20Demo\obj/../Libraries/wch_libraries/Peripheral/ch32v10x_tim.c:158
  tmpccer |= (uint16_t)(TIM_OCInitStruct->TIM_OutputState << 4);
    10d6:	fd842783          	lw	a5,-40(s0)
    10da:	0027d783          	lhu	a5,2(a5)
    10de:	0792                	slli	a5,a5,0x4
    10e0:	01079713          	slli	a4,a5,0x10
    10e4:	8341                	srli	a4,a4,0x10
    10e6:	fee45783          	lhu	a5,-18(s0)
    10ea:	8fd9                	or	a5,a5,a4
    10ec:	fef41723          	sh	a5,-18(s0)
D:\WCH\代码\3-PIT%20Demo\obj/../Libraries/wch_libraries/Peripheral/ch32v10x_tim.c:160
    
  if(TIMx == TIM1)
    10f0:	fdc42703          	lw	a4,-36(s0)
    10f4:	400137b7          	lui	a5,0x40013
    10f8:	c0078793          	addi	a5,a5,-1024 # 40012c00 <_eusrstack+0x2000dc00>
    10fc:	0af71063          	bne	a4,a5,119c <TIM_OC2Init+0x17a>
D:\WCH\代码\3-PIT%20Demo\obj/../Libraries/wch_libraries/Peripheral/ch32v10x_tim.c:162
  {
    tmpccer &= (uint16_t)(~((uint16_t)TIM_CC2NP));
    1100:	fee45783          	lhu	a5,-18(s0)
    1104:	f7f7f793          	andi	a5,a5,-129
    1108:	fef41723          	sh	a5,-18(s0)
D:\WCH\代码\3-PIT%20Demo\obj/../Libraries/wch_libraries/Peripheral/ch32v10x_tim.c:163
    tmpccer |= (uint16_t)(TIM_OCInitStruct->TIM_OCNPolarity << 4);
    110c:	fd842783          	lw	a5,-40(s0)
    1110:	00a7d783          	lhu	a5,10(a5)
    1114:	0792                	slli	a5,a5,0x4
    1116:	01079713          	slli	a4,a5,0x10
    111a:	8341                	srli	a4,a4,0x10
    111c:	fee45783          	lhu	a5,-18(s0)
    1120:	8fd9                	or	a5,a5,a4
    1122:	fef41723          	sh	a5,-18(s0)
D:\WCH\代码\3-PIT%20Demo\obj/../Libraries/wch_libraries/Peripheral/ch32v10x_tim.c:164
    tmpccer &= (uint16_t)(~((uint16_t)TIM_CC2NE));    
    1126:	fee45783          	lhu	a5,-18(s0)
    112a:	fbf7f793          	andi	a5,a5,-65
    112e:	fef41723          	sh	a5,-18(s0)
D:\WCH\代码\3-PIT%20Demo\obj/../Libraries/wch_libraries/Peripheral/ch32v10x_tim.c:165
    tmpccer |= (uint16_t)(TIM_OCInitStruct->TIM_OutputNState << 4);
    1132:	fd842783          	lw	a5,-40(s0)
    1136:	0047d783          	lhu	a5,4(a5)
    113a:	0792                	slli	a5,a5,0x4
    113c:	01079713          	slli	a4,a5,0x10
    1140:	8341                	srli	a4,a4,0x10
    1142:	fee45783          	lhu	a5,-18(s0)
    1146:	8fd9                	or	a5,a5,a4
    1148:	fef41723          	sh	a5,-18(s0)
D:\WCH\代码\3-PIT%20Demo\obj/../Libraries/wch_libraries/Peripheral/ch32v10x_tim.c:167
    
    tmpcr2 &= (uint16_t)(~((uint16_t)TIM_OIS2));
    114c:	fec45783          	lhu	a5,-20(s0)
    1150:	bff7f793          	andi	a5,a5,-1025
    1154:	fef41623          	sh	a5,-20(s0)
D:\WCH\代码\3-PIT%20Demo\obj/../Libraries/wch_libraries/Peripheral/ch32v10x_tim.c:168
    tmpcr2 &= (uint16_t)(~((uint16_t)TIM_OIS2N));
    1158:	fec45703          	lhu	a4,-20(s0)
    115c:	77fd                	lui	a5,0xfffff
    115e:	7ff78793          	addi	a5,a5,2047 # fffff7ff <_eusrstack+0xdfffa7ff>
    1162:	8ff9                	and	a5,a5,a4
    1164:	fef41623          	sh	a5,-20(s0)
D:\WCH\代码\3-PIT%20Demo\obj/../Libraries/wch_libraries/Peripheral/ch32v10x_tim.c:169
    tmpcr2 |= (uint16_t)(TIM_OCInitStruct->TIM_OCIdleState << 2);
    1168:	fd842783          	lw	a5,-40(s0)
    116c:	00c7d783          	lhu	a5,12(a5)
    1170:	078a                	slli	a5,a5,0x2
    1172:	01079713          	slli	a4,a5,0x10
    1176:	8341                	srli	a4,a4,0x10
    1178:	fec45783          	lhu	a5,-20(s0)
    117c:	8fd9                	or	a5,a5,a4
    117e:	fef41623          	sh	a5,-20(s0)
D:\WCH\代码\3-PIT%20Demo\obj/../Libraries/wch_libraries/Peripheral/ch32v10x_tim.c:170
    tmpcr2 |= (uint16_t)(TIM_OCInitStruct->TIM_OCNIdleState << 2);
    1182:	fd842783          	lw	a5,-40(s0)
    1186:	00e7d783          	lhu	a5,14(a5)
    118a:	078a                	slli	a5,a5,0x2
    118c:	01079713          	slli	a4,a5,0x10
    1190:	8341                	srli	a4,a4,0x10
    1192:	fec45783          	lhu	a5,-20(s0)
    1196:	8fd9                	or	a5,a5,a4
    1198:	fef41623          	sh	a5,-20(s0)
D:\WCH\代码\3-PIT%20Demo\obj/../Libraries/wch_libraries/Peripheral/ch32v10x_tim.c:173
  }

  TIMx->CTLR2 = tmpcr2;
    119c:	fdc42783          	lw	a5,-36(s0)
    11a0:	fec45703          	lhu	a4,-20(s0)
    11a4:	00e79223          	sh	a4,4(a5)
D:\WCH\代码\3-PIT%20Demo\obj/../Libraries/wch_libraries/Peripheral/ch32v10x_tim.c:174
  TIMx->CHCTLR1 = tmpccmrx;
    11a8:	fdc42783          	lw	a5,-36(s0)
    11ac:	fea45703          	lhu	a4,-22(s0)
    11b0:	00e79c23          	sh	a4,24(a5)
D:\WCH\代码\3-PIT%20Demo\obj/../Libraries/wch_libraries/Peripheral/ch32v10x_tim.c:175
  TIMx->CH2CVR = TIM_OCInitStruct->TIM_Pulse;
    11b4:	fd842783          	lw	a5,-40(s0)
    11b8:	0067d703          	lhu	a4,6(a5)
    11bc:	fdc42783          	lw	a5,-36(s0)
    11c0:	02e79c23          	sh	a4,56(a5)
D:\WCH\代码\3-PIT%20Demo\obj/../Libraries/wch_libraries/Peripheral/ch32v10x_tim.c:176
  TIMx->CCER = tmpccer;
    11c4:	fdc42783          	lw	a5,-36(s0)
    11c8:	fee45703          	lhu	a4,-18(s0)
    11cc:	02e79023          	sh	a4,32(a5)
D:\WCH\代码\3-PIT%20Demo\obj/../Libraries/wch_libraries/Peripheral/ch32v10x_tim.c:177
}
    11d0:	0001                	nop
    11d2:	5432                	lw	s0,44(sp)
    11d4:	6145                	addi	sp,sp,48
    11d6:	8082                	ret

000011d8 <TIM_OC3Init>:
TIM_OC3Init():
D:\WCH\代码\3-PIT%20Demo\obj/../Libraries/wch_libraries/Peripheral/ch32v10x_tim.c:188
* Input          : TIMx: where x can be 1 to 4 to select the TIM peripheral.
*                  TIM_OCInitStruct: pointer to a TIM_OCInitTypeDef structure.
* Return         : None
*******************************************************************************/
void TIM_OC3Init(TIM_TypeDef* TIMx, TIM_OCInitTypeDef* TIM_OCInitStruct)
{
    11d8:	7179                	addi	sp,sp,-48
    11da:	d622                	sw	s0,44(sp)
    11dc:	1800                	addi	s0,sp,48
    11de:	fca42e23          	sw	a0,-36(s0)
    11e2:	fcb42c23          	sw	a1,-40(s0)
D:\WCH\代码\3-PIT%20Demo\obj/../Libraries/wch_libraries/Peripheral/ch32v10x_tim.c:189
  uint16_t tmpccmrx = 0, tmpccer = 0, tmpcr2 = 0;
    11e6:	fe041523          	sh	zero,-22(s0)
    11ea:	fe041723          	sh	zero,-18(s0)
    11ee:	fe041623          	sh	zero,-20(s0)
D:\WCH\代码\3-PIT%20Demo\obj/../Libraries/wch_libraries/Peripheral/ch32v10x_tim.c:191
   
  TIMx->CCER &= (uint16_t)(~((uint16_t)TIM_CC3E));
    11f2:	fdc42783          	lw	a5,-36(s0)
    11f6:	0207d783          	lhu	a5,32(a5)
    11fa:	07c2                	slli	a5,a5,0x10
    11fc:	83c1                	srli	a5,a5,0x10
    11fe:	eff7f793          	andi	a5,a5,-257
    1202:	01079713          	slli	a4,a5,0x10
    1206:	8341                	srli	a4,a4,0x10
    1208:	fdc42783          	lw	a5,-36(s0)
    120c:	02e79023          	sh	a4,32(a5)
D:\WCH\代码\3-PIT%20Demo\obj/../Libraries/wch_libraries/Peripheral/ch32v10x_tim.c:192
  tmpccer = TIMx->CCER;
    1210:	fdc42783          	lw	a5,-36(s0)
    1214:	0207d783          	lhu	a5,32(a5)
    1218:	fef41723          	sh	a5,-18(s0)
D:\WCH\代码\3-PIT%20Demo\obj/../Libraries/wch_libraries/Peripheral/ch32v10x_tim.c:193
  tmpcr2 =  TIMx->CTLR2;
    121c:	fdc42783          	lw	a5,-36(s0)
    1220:	0047d783          	lhu	a5,4(a5)
    1224:	fef41623          	sh	a5,-20(s0)
D:\WCH\代码\3-PIT%20Demo\obj/../Libraries/wch_libraries/Peripheral/ch32v10x_tim.c:194
  tmpccmrx = TIMx->CHCTLR2;
    1228:	fdc42783          	lw	a5,-36(s0)
    122c:	01c7d783          	lhu	a5,28(a5)
    1230:	fef41523          	sh	a5,-22(s0)
D:\WCH\代码\3-PIT%20Demo\obj/../Libraries/wch_libraries/Peripheral/ch32v10x_tim.c:195
  tmpccmrx &= (uint16_t)(~((uint16_t)TIM_OC3M));
    1234:	fea45783          	lhu	a5,-22(s0)
    1238:	f8f7f793          	andi	a5,a5,-113
    123c:	fef41523          	sh	a5,-22(s0)
D:\WCH\代码\3-PIT%20Demo\obj/../Libraries/wch_libraries/Peripheral/ch32v10x_tim.c:196
  tmpccmrx &= (uint16_t)(~((uint16_t)TIM_CC3S));  
    1240:	fea45783          	lhu	a5,-22(s0)
    1244:	9bf1                	andi	a5,a5,-4
    1246:	fef41523          	sh	a5,-22(s0)
D:\WCH\代码\3-PIT%20Demo\obj/../Libraries/wch_libraries/Peripheral/ch32v10x_tim.c:197
  tmpccmrx |= TIM_OCInitStruct->TIM_OCMode;
    124a:	fd842783          	lw	a5,-40(s0)
    124e:	0007d703          	lhu	a4,0(a5)
    1252:	fea45783          	lhu	a5,-22(s0)
    1256:	8fd9                	or	a5,a5,a4
    1258:	fef41523          	sh	a5,-22(s0)
D:\WCH\代码\3-PIT%20Demo\obj/../Libraries/wch_libraries/Peripheral/ch32v10x_tim.c:198
  tmpccer &= (uint16_t)(~((uint16_t)TIM_CC3P));
    125c:	fee45783          	lhu	a5,-18(s0)
    1260:	dff7f793          	andi	a5,a5,-513
    1264:	fef41723          	sh	a5,-18(s0)
D:\WCH\代码\3-PIT%20Demo\obj/../Libraries/wch_libraries/Peripheral/ch32v10x_tim.c:199
  tmpccer |= (uint16_t)(TIM_OCInitStruct->TIM_OCPolarity << 8);
    1268:	fd842783          	lw	a5,-40(s0)
    126c:	0087d783          	lhu	a5,8(a5)
    1270:	07a2                	slli	a5,a5,0x8
    1272:	01079713          	slli	a4,a5,0x10
    1276:	8341                	srli	a4,a4,0x10
    1278:	fee45783          	lhu	a5,-18(s0)
    127c:	8fd9                	or	a5,a5,a4
    127e:	fef41723          	sh	a5,-18(s0)
D:\WCH\代码\3-PIT%20Demo\obj/../Libraries/wch_libraries/Peripheral/ch32v10x_tim.c:200
  tmpccer |= (uint16_t)(TIM_OCInitStruct->TIM_OutputState << 8);
    1282:	fd842783          	lw	a5,-40(s0)
    1286:	0027d783          	lhu	a5,2(a5)
    128a:	07a2                	slli	a5,a5,0x8
    128c:	01079713          	slli	a4,a5,0x10
    1290:	8341                	srli	a4,a4,0x10
    1292:	fee45783          	lhu	a5,-18(s0)
    1296:	8fd9                	or	a5,a5,a4
    1298:	fef41723          	sh	a5,-18(s0)
D:\WCH\代码\3-PIT%20Demo\obj/../Libraries/wch_libraries/Peripheral/ch32v10x_tim.c:202
    
  if(TIMx == TIM1)
    129c:	fdc42703          	lw	a4,-36(s0)
    12a0:	400137b7          	lui	a5,0x40013
    12a4:	c0078793          	addi	a5,a5,-1024 # 40012c00 <_eusrstack+0x2000dc00>
    12a8:	0af71263          	bne	a4,a5,134c <TIM_OC3Init+0x174>
D:\WCH\代码\3-PIT%20Demo\obj/../Libraries/wch_libraries/Peripheral/ch32v10x_tim.c:204
  {
    tmpccer &= (uint16_t)(~((uint16_t)TIM_CC3NP));
    12ac:	fee45703          	lhu	a4,-18(s0)
    12b0:	77fd                	lui	a5,0xfffff
    12b2:	7ff78793          	addi	a5,a5,2047 # fffff7ff <_eusrstack+0xdfffa7ff>
    12b6:	8ff9                	and	a5,a5,a4
    12b8:	fef41723          	sh	a5,-18(s0)
D:\WCH\代码\3-PIT%20Demo\obj/../Libraries/wch_libraries/Peripheral/ch32v10x_tim.c:205
    tmpccer |= (uint16_t)(TIM_OCInitStruct->TIM_OCNPolarity << 8);
    12bc:	fd842783          	lw	a5,-40(s0)
    12c0:	00a7d783          	lhu	a5,10(a5)
    12c4:	07a2                	slli	a5,a5,0x8
    12c6:	01079713          	slli	a4,a5,0x10
    12ca:	8341                	srli	a4,a4,0x10
    12cc:	fee45783          	lhu	a5,-18(s0)
    12d0:	8fd9                	or	a5,a5,a4
    12d2:	fef41723          	sh	a5,-18(s0)
D:\WCH\代码\3-PIT%20Demo\obj/../Libraries/wch_libraries/Peripheral/ch32v10x_tim.c:206
    tmpccer &= (uint16_t)(~((uint16_t)TIM_CC3NE));
    12d6:	fee45783          	lhu	a5,-18(s0)
    12da:	bff7f793          	andi	a5,a5,-1025
    12de:	fef41723          	sh	a5,-18(s0)
D:\WCH\代码\3-PIT%20Demo\obj/../Libraries/wch_libraries/Peripheral/ch32v10x_tim.c:207
    tmpccer |= (uint16_t)(TIM_OCInitStruct->TIM_OutputNState << 8);
    12e2:	fd842783          	lw	a5,-40(s0)
    12e6:	0047d783          	lhu	a5,4(a5)
    12ea:	07a2                	slli	a5,a5,0x8
    12ec:	01079713          	slli	a4,a5,0x10
    12f0:	8341                	srli	a4,a4,0x10
    12f2:	fee45783          	lhu	a5,-18(s0)
    12f6:	8fd9                	or	a5,a5,a4
    12f8:	fef41723          	sh	a5,-18(s0)
D:\WCH\代码\3-PIT%20Demo\obj/../Libraries/wch_libraries/Peripheral/ch32v10x_tim.c:208
    tmpcr2 &= (uint16_t)(~((uint16_t)TIM_OIS3));
    12fc:	fec45703          	lhu	a4,-20(s0)
    1300:	77fd                	lui	a5,0xfffff
    1302:	17fd                	addi	a5,a5,-1
    1304:	8ff9                	and	a5,a5,a4
    1306:	fef41623          	sh	a5,-20(s0)
D:\WCH\代码\3-PIT%20Demo\obj/../Libraries/wch_libraries/Peripheral/ch32v10x_tim.c:209
    tmpcr2 &= (uint16_t)(~((uint16_t)TIM_OIS3N));
    130a:	fec45703          	lhu	a4,-20(s0)
    130e:	77f9                	lui	a5,0xffffe
    1310:	17fd                	addi	a5,a5,-1
    1312:	8ff9                	and	a5,a5,a4
    1314:	fef41623          	sh	a5,-20(s0)
D:\WCH\代码\3-PIT%20Demo\obj/../Libraries/wch_libraries/Peripheral/ch32v10x_tim.c:210
    tmpcr2 |= (uint16_t)(TIM_OCInitStruct->TIM_OCIdleState << 4);
    1318:	fd842783          	lw	a5,-40(s0)
    131c:	00c7d783          	lhu	a5,12(a5) # ffffe00c <_eusrstack+0xdfff900c>
    1320:	0792                	slli	a5,a5,0x4
    1322:	01079713          	slli	a4,a5,0x10
    1326:	8341                	srli	a4,a4,0x10
    1328:	fec45783          	lhu	a5,-20(s0)
    132c:	8fd9                	or	a5,a5,a4
    132e:	fef41623          	sh	a5,-20(s0)
D:\WCH\代码\3-PIT%20Demo\obj/../Libraries/wch_libraries/Peripheral/ch32v10x_tim.c:211
    tmpcr2 |= (uint16_t)(TIM_OCInitStruct->TIM_OCNIdleState << 4);
    1332:	fd842783          	lw	a5,-40(s0)
    1336:	00e7d783          	lhu	a5,14(a5)
    133a:	0792                	slli	a5,a5,0x4
    133c:	01079713          	slli	a4,a5,0x10
    1340:	8341                	srli	a4,a4,0x10
    1342:	fec45783          	lhu	a5,-20(s0)
    1346:	8fd9                	or	a5,a5,a4
    1348:	fef41623          	sh	a5,-20(s0)
D:\WCH\代码\3-PIT%20Demo\obj/../Libraries/wch_libraries/Peripheral/ch32v10x_tim.c:214
  }

  TIMx->CTLR2 = tmpcr2;
    134c:	fdc42783          	lw	a5,-36(s0)
    1350:	fec45703          	lhu	a4,-20(s0)
    1354:	00e79223          	sh	a4,4(a5)
D:\WCH\代码\3-PIT%20Demo\obj/../Libraries/wch_libraries/Peripheral/ch32v10x_tim.c:215
  TIMx->CHCTLR2 = tmpccmrx;
    1358:	fdc42783          	lw	a5,-36(s0)
    135c:	fea45703          	lhu	a4,-22(s0)
    1360:	00e79e23          	sh	a4,28(a5)
D:\WCH\代码\3-PIT%20Demo\obj/../Libraries/wch_libraries/Peripheral/ch32v10x_tim.c:216
  TIMx->CH3CVR = TIM_OCInitStruct->TIM_Pulse;
    1364:	fd842783          	lw	a5,-40(s0)
    1368:	0067d703          	lhu	a4,6(a5)
    136c:	fdc42783          	lw	a5,-36(s0)
    1370:	02e79e23          	sh	a4,60(a5)
D:\WCH\代码\3-PIT%20Demo\obj/../Libraries/wch_libraries/Peripheral/ch32v10x_tim.c:217
  TIMx->CCER = tmpccer;
    1374:	fdc42783          	lw	a5,-36(s0)
    1378:	fee45703          	lhu	a4,-18(s0)
    137c:	02e79023          	sh	a4,32(a5)
D:\WCH\代码\3-PIT%20Demo\obj/../Libraries/wch_libraries/Peripheral/ch32v10x_tim.c:218
}
    1380:	0001                	nop
    1382:	5432                	lw	s0,44(sp)
    1384:	6145                	addi	sp,sp,48
    1386:	8082                	ret

00001388 <TIM_OC4Init>:
TIM_OC4Init():
D:\WCH\代码\3-PIT%20Demo\obj/../Libraries/wch_libraries/Peripheral/ch32v10x_tim.c:229
* Input          : TIMx: where x can be 1 to 4 to select the TIM peripheral.
*                  TIM_OCInitStruct: pointer to a TIM_OCInitTypeDef structure.
* Return         : None
*******************************************************************************/
void TIM_OC4Init(TIM_TypeDef* TIMx, TIM_OCInitTypeDef* TIM_OCInitStruct)
{
    1388:	7179                	addi	sp,sp,-48
    138a:	d622                	sw	s0,44(sp)
    138c:	1800                	addi	s0,sp,48
    138e:	fca42e23          	sw	a0,-36(s0)
    1392:	fcb42c23          	sw	a1,-40(s0)
D:\WCH\代码\3-PIT%20Demo\obj/../Libraries/wch_libraries/Peripheral/ch32v10x_tim.c:230
  uint16_t tmpccmrx = 0, tmpccer = 0, tmpcr2 = 0;
    1396:	fe041623          	sh	zero,-20(s0)
    139a:	fe041523          	sh	zero,-22(s0)
    139e:	fe041723          	sh	zero,-18(s0)
D:\WCH\代码\3-PIT%20Demo\obj/../Libraries/wch_libraries/Peripheral/ch32v10x_tim.c:232

  TIMx->CCER &= (uint16_t)(~((uint16_t)TIM_CC4E));
    13a2:	fdc42783          	lw	a5,-36(s0)
    13a6:	0207d783          	lhu	a5,32(a5)
    13aa:	01079713          	slli	a4,a5,0x10
    13ae:	8341                	srli	a4,a4,0x10
    13b0:	77fd                	lui	a5,0xfffff
    13b2:	17fd                	addi	a5,a5,-1
    13b4:	8ff9                	and	a5,a5,a4
    13b6:	01079713          	slli	a4,a5,0x10
    13ba:	8341                	srli	a4,a4,0x10
    13bc:	fdc42783          	lw	a5,-36(s0)
    13c0:	02e79023          	sh	a4,32(a5) # fffff020 <_eusrstack+0xdfffa020>
D:\WCH\代码\3-PIT%20Demo\obj/../Libraries/wch_libraries/Peripheral/ch32v10x_tim.c:233
  tmpccer = TIMx->CCER;
    13c4:	fdc42783          	lw	a5,-36(s0)
    13c8:	0207d783          	lhu	a5,32(a5)
    13cc:	fef41523          	sh	a5,-22(s0)
D:\WCH\代码\3-PIT%20Demo\obj/../Libraries/wch_libraries/Peripheral/ch32v10x_tim.c:234
  tmpcr2 =  TIMx->CTLR2;
    13d0:	fdc42783          	lw	a5,-36(s0)
    13d4:	0047d783          	lhu	a5,4(a5)
    13d8:	fef41723          	sh	a5,-18(s0)
D:\WCH\代码\3-PIT%20Demo\obj/../Libraries/wch_libraries/Peripheral/ch32v10x_tim.c:235
  tmpccmrx = TIMx->CHCTLR2;
    13dc:	fdc42783          	lw	a5,-36(s0)
    13e0:	01c7d783          	lhu	a5,28(a5)
    13e4:	fef41623          	sh	a5,-20(s0)
D:\WCH\代码\3-PIT%20Demo\obj/../Libraries/wch_libraries/Peripheral/ch32v10x_tim.c:236
  tmpccmrx &= (uint16_t)(~((uint16_t)TIM_OC4M));
    13e8:	fec45703          	lhu	a4,-20(s0)
    13ec:	77e5                	lui	a5,0xffff9
    13ee:	17fd                	addi	a5,a5,-1
    13f0:	8ff9                	and	a5,a5,a4
    13f2:	fef41623          	sh	a5,-20(s0)
D:\WCH\代码\3-PIT%20Demo\obj/../Libraries/wch_libraries/Peripheral/ch32v10x_tim.c:237
  tmpccmrx &= (uint16_t)(~((uint16_t)TIM_CC4S));
    13f6:	fec45783          	lhu	a5,-20(s0)
    13fa:	cff7f793          	andi	a5,a5,-769
    13fe:	fef41623          	sh	a5,-20(s0)
D:\WCH\代码\3-PIT%20Demo\obj/../Libraries/wch_libraries/Peripheral/ch32v10x_tim.c:238
  tmpccmrx |= (uint16_t)(TIM_OCInitStruct->TIM_OCMode << 8);
    1402:	fd842783          	lw	a5,-40(s0)
    1406:	0007d783          	lhu	a5,0(a5) # ffff9000 <_eusrstack+0xdfff4000>
    140a:	07a2                	slli	a5,a5,0x8
    140c:	01079713          	slli	a4,a5,0x10
    1410:	8341                	srli	a4,a4,0x10
    1412:	fec45783          	lhu	a5,-20(s0)
    1416:	8fd9                	or	a5,a5,a4
    1418:	fef41623          	sh	a5,-20(s0)
D:\WCH\代码\3-PIT%20Demo\obj/../Libraries/wch_libraries/Peripheral/ch32v10x_tim.c:239
  tmpccer &= (uint16_t)(~((uint16_t)TIM_CC4P));
    141c:	fea45703          	lhu	a4,-22(s0)
    1420:	77f9                	lui	a5,0xffffe
    1422:	17fd                	addi	a5,a5,-1
    1424:	8ff9                	and	a5,a5,a4
    1426:	fef41523          	sh	a5,-22(s0)
D:\WCH\代码\3-PIT%20Demo\obj/../Libraries/wch_libraries/Peripheral/ch32v10x_tim.c:240
  tmpccer |= (uint16_t)(TIM_OCInitStruct->TIM_OCPolarity << 12);
    142a:	fd842783          	lw	a5,-40(s0)
    142e:	0087d783          	lhu	a5,8(a5) # ffffe008 <_eusrstack+0xdfff9008>
    1432:	07b2                	slli	a5,a5,0xc
    1434:	01079713          	slli	a4,a5,0x10
    1438:	8341                	srli	a4,a4,0x10
    143a:	fea45783          	lhu	a5,-22(s0)
    143e:	8fd9                	or	a5,a5,a4
    1440:	fef41523          	sh	a5,-22(s0)
D:\WCH\代码\3-PIT%20Demo\obj/../Libraries/wch_libraries/Peripheral/ch32v10x_tim.c:241
  tmpccer |= (uint16_t)(TIM_OCInitStruct->TIM_OutputState << 12);
    1444:	fd842783          	lw	a5,-40(s0)
    1448:	0027d783          	lhu	a5,2(a5)
    144c:	07b2                	slli	a5,a5,0xc
    144e:	01079713          	slli	a4,a5,0x10
    1452:	8341                	srli	a4,a4,0x10
    1454:	fea45783          	lhu	a5,-22(s0)
    1458:	8fd9                	or	a5,a5,a4
    145a:	fef41523          	sh	a5,-22(s0)
D:\WCH\代码\3-PIT%20Demo\obj/../Libraries/wch_libraries/Peripheral/ch32v10x_tim.c:243
    
  if(TIMx == TIM1)
    145e:	fdc42703          	lw	a4,-36(s0)
    1462:	400137b7          	lui	a5,0x40013
    1466:	c0078793          	addi	a5,a5,-1024 # 40012c00 <_eusrstack+0x2000dc00>
    146a:	02f71663          	bne	a4,a5,1496 <TIM_OC4Init+0x10e>
D:\WCH\代码\3-PIT%20Demo\obj/../Libraries/wch_libraries/Peripheral/ch32v10x_tim.c:245
  {
    tmpcr2 &= (uint16_t)(~((uint16_t)TIM_OIS4));
    146e:	fee45703          	lhu	a4,-18(s0)
    1472:	77f1                	lui	a5,0xffffc
    1474:	17fd                	addi	a5,a5,-1
    1476:	8ff9                	and	a5,a5,a4
    1478:	fef41723          	sh	a5,-18(s0)
D:\WCH\代码\3-PIT%20Demo\obj/../Libraries/wch_libraries/Peripheral/ch32v10x_tim.c:246
    tmpcr2 |= (uint16_t)(TIM_OCInitStruct->TIM_OCIdleState << 6);
    147c:	fd842783          	lw	a5,-40(s0)
    1480:	00c7d783          	lhu	a5,12(a5) # ffffc00c <_eusrstack+0xdfff700c>
    1484:	079a                	slli	a5,a5,0x6
    1486:	01079713          	slli	a4,a5,0x10
    148a:	8341                	srli	a4,a4,0x10
    148c:	fee45783          	lhu	a5,-18(s0)
    1490:	8fd9                	or	a5,a5,a4
    1492:	fef41723          	sh	a5,-18(s0)
D:\WCH\代码\3-PIT%20Demo\obj/../Libraries/wch_libraries/Peripheral/ch32v10x_tim.c:249
  }

  TIMx->CTLR2 = tmpcr2; 
    1496:	fdc42783          	lw	a5,-36(s0)
    149a:	fee45703          	lhu	a4,-18(s0)
    149e:	00e79223          	sh	a4,4(a5)
D:\WCH\代码\3-PIT%20Demo\obj/../Libraries/wch_libraries/Peripheral/ch32v10x_tim.c:250
  TIMx->CHCTLR2 = tmpccmrx;
    14a2:	fdc42783          	lw	a5,-36(s0)
    14a6:	fec45703          	lhu	a4,-20(s0)
    14aa:	00e79e23          	sh	a4,28(a5)
D:\WCH\代码\3-PIT%20Demo\obj/../Libraries/wch_libraries/Peripheral/ch32v10x_tim.c:251
  TIMx->CH4CVR = TIM_OCInitStruct->TIM_Pulse;
    14ae:	fd842783          	lw	a5,-40(s0)
    14b2:	0067d703          	lhu	a4,6(a5)
    14b6:	fdc42783          	lw	a5,-36(s0)
    14ba:	04e79023          	sh	a4,64(a5)
D:\WCH\代码\3-PIT%20Demo\obj/../Libraries/wch_libraries/Peripheral/ch32v10x_tim.c:252
  TIMx->CCER = tmpccer;
    14be:	fdc42783          	lw	a5,-36(s0)
    14c2:	fea45703          	lhu	a4,-22(s0)
    14c6:	02e79023          	sh	a4,32(a5)
D:\WCH\代码\3-PIT%20Demo\obj/../Libraries/wch_libraries/Peripheral/ch32v10x_tim.c:253
}
    14ca:	0001                	nop
    14cc:	5432                	lw	s0,44(sp)
    14ce:	6145                	addi	sp,sp,48
    14d0:	8082                	ret

000014d2 <TIM_Cmd>:
TIM_Cmd():
D:\WCH\代码\3-PIT%20Demo\obj/../Libraries/wch_libraries/Peripheral/ch32v10x_tim.c:433
* Input          : TIMx: where x can be 1 to 4 to select the TIM peripheral.
*                  NewState: ENABLE or DISABLE.
* Return         : None
*******************************************************************************/
void TIM_Cmd(TIM_TypeDef* TIMx, FunctionalState NewState)
{ 
    14d2:	1101                	addi	sp,sp,-32
    14d4:	ce22                	sw	s0,28(sp)
    14d6:	1000                	addi	s0,sp,32
    14d8:	fea42623          	sw	a0,-20(s0)
    14dc:	feb42423          	sw	a1,-24(s0)
D:\WCH\代码\3-PIT%20Demo\obj/../Libraries/wch_libraries/Peripheral/ch32v10x_tim.c:434
  if (NewState != DISABLE)
    14e0:	fe842783          	lw	a5,-24(s0)
    14e4:	c38d                	beqz	a5,1506 <TIM_Cmd+0x34>
D:\WCH\代码\3-PIT%20Demo\obj/../Libraries/wch_libraries/Peripheral/ch32v10x_tim.c:436
  {
    TIMx->CTLR1 |= TIM_CEN;
    14e6:	fec42783          	lw	a5,-20(s0)
    14ea:	0007d783          	lhu	a5,0(a5)
    14ee:	07c2                	slli	a5,a5,0x10
    14f0:	83c1                	srli	a5,a5,0x10
    14f2:	0017e793          	ori	a5,a5,1
    14f6:	01079713          	slli	a4,a5,0x10
    14fa:	8341                	srli	a4,a4,0x10
    14fc:	fec42783          	lw	a5,-20(s0)
    1500:	00e79023          	sh	a4,0(a5)
D:\WCH\代码\3-PIT%20Demo\obj/../Libraries/wch_libraries/Peripheral/ch32v10x_tim.c:442
  }
  else
  {
    TIMx->CTLR1 &= (uint16_t)(~((uint16_t)TIM_CEN));
  }
}
    1504:	a839                	j	1522 <TIM_Cmd+0x50>
D:\WCH\代码\3-PIT%20Demo\obj/../Libraries/wch_libraries/Peripheral/ch32v10x_tim.c:440
    TIMx->CTLR1 &= (uint16_t)(~((uint16_t)TIM_CEN));
    1506:	fec42783          	lw	a5,-20(s0)
    150a:	0007d783          	lhu	a5,0(a5)
    150e:	07c2                	slli	a5,a5,0x10
    1510:	83c1                	srli	a5,a5,0x10
    1512:	9bf9                	andi	a5,a5,-2
    1514:	01079713          	slli	a4,a5,0x10
    1518:	8341                	srli	a4,a4,0x10
    151a:	fec42783          	lw	a5,-20(s0)
    151e:	00e79023          	sh	a4,0(a5)
D:\WCH\代码\3-PIT%20Demo\obj/../Libraries/wch_libraries/Peripheral/ch32v10x_tim.c:442
}
    1522:	0001                	nop
    1524:	4472                	lw	s0,28(sp)
    1526:	6105                	addi	sp,sp,32
    1528:	8082                	ret

0000152a <TIM_CtrlPWMOutputs>:
TIM_CtrlPWMOutputs():
D:\WCH\代码\3-PIT%20Demo\obj/../Libraries/wch_libraries/Peripheral/ch32v10x_tim.c:452
* Input          : TIMx: where x can be 1 to 4 to select the TIM peripheral.
*                  NewState: ENABLE or DISABLE.
* Return         : None
*******************************************************************************/
void TIM_CtrlPWMOutputs(TIM_TypeDef* TIMx, FunctionalState NewState)
{
    152a:	1101                	addi	sp,sp,-32
    152c:	ce22                	sw	s0,28(sp)
    152e:	1000                	addi	s0,sp,32
    1530:	fea42623          	sw	a0,-20(s0)
    1534:	feb42423          	sw	a1,-24(s0)
D:\WCH\代码\3-PIT%20Demo\obj/../Libraries/wch_libraries/Peripheral/ch32v10x_tim.c:453
  if (NewState != DISABLE)
    1538:	fe842783          	lw	a5,-24(s0)
    153c:	c395                	beqz	a5,1560 <TIM_CtrlPWMOutputs+0x36>
D:\WCH\代码\3-PIT%20Demo\obj/../Libraries/wch_libraries/Peripheral/ch32v10x_tim.c:455
  {
    TIMx->BDTR |= TIM_MOE;
    153e:	fec42783          	lw	a5,-20(s0)
    1542:	0447d783          	lhu	a5,68(a5)
    1546:	01079713          	slli	a4,a5,0x10
    154a:	8341                	srli	a4,a4,0x10
    154c:	77e1                	lui	a5,0xffff8
    154e:	8fd9                	or	a5,a5,a4
    1550:	01079713          	slli	a4,a5,0x10
    1554:	8341                	srli	a4,a4,0x10
    1556:	fec42783          	lw	a5,-20(s0)
    155a:	04e79223          	sh	a4,68(a5) # ffff8044 <_eusrstack+0xdfff3044>
D:\WCH\代码\3-PIT%20Demo\obj/../Libraries/wch_libraries/Peripheral/ch32v10x_tim.c:461
  }
  else
  {
    TIMx->BDTR &= (uint16_t)(~((uint16_t)TIM_MOE));
  }  
}
    155e:	a015                	j	1582 <TIM_CtrlPWMOutputs+0x58>
D:\WCH\代码\3-PIT%20Demo\obj/../Libraries/wch_libraries/Peripheral/ch32v10x_tim.c:459
    TIMx->BDTR &= (uint16_t)(~((uint16_t)TIM_MOE));
    1560:	fec42783          	lw	a5,-20(s0)
    1564:	0447d783          	lhu	a5,68(a5)
    1568:	01079713          	slli	a4,a5,0x10
    156c:	8341                	srli	a4,a4,0x10
    156e:	67a1                	lui	a5,0x8
    1570:	17fd                	addi	a5,a5,-1
    1572:	8ff9                	and	a5,a5,a4
    1574:	01079713          	slli	a4,a5,0x10
    1578:	8341                	srli	a4,a4,0x10
    157a:	fec42783          	lw	a5,-20(s0)
    157e:	04e79223          	sh	a4,68(a5) # 8044 <_data_lma+0x13c8>
D:\WCH\代码\3-PIT%20Demo\obj/../Libraries/wch_libraries/Peripheral/ch32v10x_tim.c:461
}
    1582:	0001                	nop
    1584:	4472                	lw	s0,28(sp)
    1586:	6105                	addi	sp,sp,32
    1588:	8082                	ret

0000158a <TIM_ITConfig>:
TIM_ITConfig():
D:\WCH\代码\3-PIT%20Demo\obj/../Libraries/wch_libraries/Peripheral/ch32v10x_tim.c:480
*                    TIM_IT_Break: TIM Break Interrupt source.
*                  NewState: ENABLE or DISABLE.
* Return         : None
*******************************************************************************/
void TIM_ITConfig(TIM_TypeDef* TIMx, uint16_t TIM_IT, FunctionalState NewState)
{  
    158a:	1101                	addi	sp,sp,-32
    158c:	ce22                	sw	s0,28(sp)
    158e:	1000                	addi	s0,sp,32
    1590:	fea42623          	sw	a0,-20(s0)
    1594:	87ae                	mv	a5,a1
    1596:	fec42223          	sw	a2,-28(s0)
    159a:	fef41523          	sh	a5,-22(s0)
D:\WCH\代码\3-PIT%20Demo\obj/../Libraries/wch_libraries/Peripheral/ch32v10x_tim.c:481
  if (NewState != DISABLE)
    159e:	fe442783          	lw	a5,-28(s0)
    15a2:	c39d                	beqz	a5,15c8 <TIM_ITConfig+0x3e>
D:\WCH\代码\3-PIT%20Demo\obj/../Libraries/wch_libraries/Peripheral/ch32v10x_tim.c:483
  {
    TIMx->DMAINTENR |= TIM_IT;
    15a4:	fec42783          	lw	a5,-20(s0)
    15a8:	00c7d783          	lhu	a5,12(a5)
    15ac:	01079713          	slli	a4,a5,0x10
    15b0:	8341                	srli	a4,a4,0x10
    15b2:	fea45783          	lhu	a5,-22(s0)
    15b6:	8fd9                	or	a5,a5,a4
    15b8:	01079713          	slli	a4,a5,0x10
    15bc:	8341                	srli	a4,a4,0x10
    15be:	fec42783          	lw	a5,-20(s0)
    15c2:	00e79623          	sh	a4,12(a5)
D:\WCH\代码\3-PIT%20Demo\obj/../Libraries/wch_libraries/Peripheral/ch32v10x_tim.c:489
  }
  else
  {
    TIMx->DMAINTENR &= (uint16_t)~TIM_IT;
  }
}
    15c6:	a035                	j	15f2 <TIM_ITConfig+0x68>
D:\WCH\代码\3-PIT%20Demo\obj/../Libraries/wch_libraries/Peripheral/ch32v10x_tim.c:487
    TIMx->DMAINTENR &= (uint16_t)~TIM_IT;
    15c8:	fec42783          	lw	a5,-20(s0)
    15cc:	00c7d783          	lhu	a5,12(a5)
    15d0:	01079713          	slli	a4,a5,0x10
    15d4:	8341                	srli	a4,a4,0x10
    15d6:	fea45783          	lhu	a5,-22(s0)
    15da:	fff7c793          	not	a5,a5
    15de:	07c2                	slli	a5,a5,0x10
    15e0:	83c1                	srli	a5,a5,0x10
    15e2:	8ff9                	and	a5,a5,a4
    15e4:	01079713          	slli	a4,a5,0x10
    15e8:	8341                	srli	a4,a4,0x10
    15ea:	fec42783          	lw	a5,-20(s0)
    15ee:	00e79623          	sh	a4,12(a5)
D:\WCH\代码\3-PIT%20Demo\obj/../Libraries/wch_libraries/Peripheral/ch32v10x_tim.c:489
}
    15f2:	0001                	nop
    15f4:	4472                	lw	s0,28(sp)
    15f6:	6105                	addi	sp,sp,32
    15f8:	8082                	ret

000015fa <TIM_OC1PreloadConfig>:
TIM_OC1PreloadConfig():
D:\WCH\代码\3-PIT%20Demo\obj/../Libraries/wch_libraries/Peripheral/ch32v10x_tim.c:981
*                    TIM_OCPreload_Enable.
*                    TIM_OCPreload_Disable.
* Return         : None
*******************************************************************************/
void TIM_OC1PreloadConfig(TIM_TypeDef* TIMx, uint16_t TIM_OCPreload)
{
    15fa:	7179                	addi	sp,sp,-48
    15fc:	d622                	sw	s0,44(sp)
    15fe:	1800                	addi	s0,sp,48
    1600:	fca42e23          	sw	a0,-36(s0)
    1604:	87ae                	mv	a5,a1
    1606:	fcf41d23          	sh	a5,-38(s0)
D:\WCH\代码\3-PIT%20Demo\obj/../Libraries/wch_libraries/Peripheral/ch32v10x_tim.c:982
  uint16_t tmpccmr1 = 0;
    160a:	fe041723          	sh	zero,-18(s0)
D:\WCH\代码\3-PIT%20Demo\obj/../Libraries/wch_libraries/Peripheral/ch32v10x_tim.c:984

  tmpccmr1 = TIMx->CHCTLR1;
    160e:	fdc42783          	lw	a5,-36(s0)
    1612:	0187d783          	lhu	a5,24(a5)
    1616:	fef41723          	sh	a5,-18(s0)
D:\WCH\代码\3-PIT%20Demo\obj/../Libraries/wch_libraries/Peripheral/ch32v10x_tim.c:985
  tmpccmr1 &= (uint16_t)~((uint16_t)TIM_OC1PE);
    161a:	fee45783          	lhu	a5,-18(s0)
    161e:	9bdd                	andi	a5,a5,-9
    1620:	fef41723          	sh	a5,-18(s0)
D:\WCH\代码\3-PIT%20Demo\obj/../Libraries/wch_libraries/Peripheral/ch32v10x_tim.c:986
  tmpccmr1 |= TIM_OCPreload;
    1624:	fee45703          	lhu	a4,-18(s0)
    1628:	fda45783          	lhu	a5,-38(s0)
    162c:	8fd9                	or	a5,a5,a4
    162e:	fef41723          	sh	a5,-18(s0)
D:\WCH\代码\3-PIT%20Demo\obj/../Libraries/wch_libraries/Peripheral/ch32v10x_tim.c:987
  TIMx->CHCTLR1 = tmpccmr1;
    1632:	fdc42783          	lw	a5,-36(s0)
    1636:	fee45703          	lhu	a4,-18(s0)
    163a:	00e79c23          	sh	a4,24(a5)
D:\WCH\代码\3-PIT%20Demo\obj/../Libraries/wch_libraries/Peripheral/ch32v10x_tim.c:988
}
    163e:	0001                	nop
    1640:	5432                	lw	s0,44(sp)
    1642:	6145                	addi	sp,sp,48
    1644:	8082                	ret

00001646 <TIM_OC2PreloadConfig>:
TIM_OC2PreloadConfig():
D:\WCH\代码\3-PIT%20Demo\obj/../Libraries/wch_libraries/Peripheral/ch32v10x_tim.c:1000
*                    TIM_OCPreload_Enable.
*                    TIM_OCPreload_Disable.
* Return         : None
*******************************************************************************/
void TIM_OC2PreloadConfig(TIM_TypeDef* TIMx, uint16_t TIM_OCPreload)
{
    1646:	7179                	addi	sp,sp,-48
    1648:	d622                	sw	s0,44(sp)
    164a:	1800                	addi	s0,sp,48
    164c:	fca42e23          	sw	a0,-36(s0)
    1650:	87ae                	mv	a5,a1
    1652:	fcf41d23          	sh	a5,-38(s0)
D:\WCH\代码\3-PIT%20Demo\obj/../Libraries/wch_libraries/Peripheral/ch32v10x_tim.c:1001
  uint16_t tmpccmr1 = 0;
    1656:	fe041723          	sh	zero,-18(s0)
D:\WCH\代码\3-PIT%20Demo\obj/../Libraries/wch_libraries/Peripheral/ch32v10x_tim.c:1003

  tmpccmr1 = TIMx->CHCTLR1;
    165a:	fdc42783          	lw	a5,-36(s0)
    165e:	0187d783          	lhu	a5,24(a5)
    1662:	fef41723          	sh	a5,-18(s0)
D:\WCH\代码\3-PIT%20Demo\obj/../Libraries/wch_libraries/Peripheral/ch32v10x_tim.c:1004
  tmpccmr1 &= (uint16_t)~((uint16_t)TIM_OC2PE);
    1666:	fee45703          	lhu	a4,-18(s0)
    166a:	77fd                	lui	a5,0xfffff
    166c:	7ff78793          	addi	a5,a5,2047 # fffff7ff <_eusrstack+0xdfffa7ff>
    1670:	8ff9                	and	a5,a5,a4
    1672:	fef41723          	sh	a5,-18(s0)
D:\WCH\代码\3-PIT%20Demo\obj/../Libraries/wch_libraries/Peripheral/ch32v10x_tim.c:1005
  tmpccmr1 |= (uint16_t)(TIM_OCPreload << 8);	
    1676:	fda45783          	lhu	a5,-38(s0)
    167a:	07a2                	slli	a5,a5,0x8
    167c:	01079713          	slli	a4,a5,0x10
    1680:	8341                	srli	a4,a4,0x10
    1682:	fee45783          	lhu	a5,-18(s0)
    1686:	8fd9                	or	a5,a5,a4
    1688:	fef41723          	sh	a5,-18(s0)
D:\WCH\代码\3-PIT%20Demo\obj/../Libraries/wch_libraries/Peripheral/ch32v10x_tim.c:1006
  TIMx->CHCTLR1 = tmpccmr1;
    168c:	fdc42783          	lw	a5,-36(s0)
    1690:	fee45703          	lhu	a4,-18(s0)
    1694:	00e79c23          	sh	a4,24(a5)
D:\WCH\代码\3-PIT%20Demo\obj/../Libraries/wch_libraries/Peripheral/ch32v10x_tim.c:1007
}
    1698:	0001                	nop
    169a:	5432                	lw	s0,44(sp)
    169c:	6145                	addi	sp,sp,48
    169e:	8082                	ret

000016a0 <TIM_OC3PreloadConfig>:
TIM_OC3PreloadConfig():
D:\WCH\代码\3-PIT%20Demo\obj/../Libraries/wch_libraries/Peripheral/ch32v10x_tim.c:1019
*                    TIM_OCPreload_Enable.
*                    TIM_OCPreload_Disable.
* Return         : None
*******************************************************************************/
void TIM_OC3PreloadConfig(TIM_TypeDef* TIMx, uint16_t TIM_OCPreload)
{
    16a0:	7179                	addi	sp,sp,-48
    16a2:	d622                	sw	s0,44(sp)
    16a4:	1800                	addi	s0,sp,48
    16a6:	fca42e23          	sw	a0,-36(s0)
    16aa:	87ae                	mv	a5,a1
    16ac:	fcf41d23          	sh	a5,-38(s0)
D:\WCH\代码\3-PIT%20Demo\obj/../Libraries/wch_libraries/Peripheral/ch32v10x_tim.c:1020
  uint16_t tmpccmr2 = 0;
    16b0:	fe041723          	sh	zero,-18(s0)
D:\WCH\代码\3-PIT%20Demo\obj/../Libraries/wch_libraries/Peripheral/ch32v10x_tim.c:1022

  tmpccmr2 = TIMx->CHCTLR2;
    16b4:	fdc42783          	lw	a5,-36(s0)
    16b8:	01c7d783          	lhu	a5,28(a5)
    16bc:	fef41723          	sh	a5,-18(s0)
D:\WCH\代码\3-PIT%20Demo\obj/../Libraries/wch_libraries/Peripheral/ch32v10x_tim.c:1023
  tmpccmr2 &= (uint16_t)~((uint16_t)TIM_OC3PE);
    16c0:	fee45783          	lhu	a5,-18(s0)
    16c4:	9bdd                	andi	a5,a5,-9
    16c6:	fef41723          	sh	a5,-18(s0)
D:\WCH\代码\3-PIT%20Demo\obj/../Libraries/wch_libraries/Peripheral/ch32v10x_tim.c:1024
  tmpccmr2 |= TIM_OCPreload;
    16ca:	fee45703          	lhu	a4,-18(s0)
    16ce:	fda45783          	lhu	a5,-38(s0)
    16d2:	8fd9                	or	a5,a5,a4
    16d4:	fef41723          	sh	a5,-18(s0)
D:\WCH\代码\3-PIT%20Demo\obj/../Libraries/wch_libraries/Peripheral/ch32v10x_tim.c:1025
  TIMx->CHCTLR2 = tmpccmr2;
    16d8:	fdc42783          	lw	a5,-36(s0)
    16dc:	fee45703          	lhu	a4,-18(s0)
    16e0:	00e79e23          	sh	a4,28(a5)
D:\WCH\代码\3-PIT%20Demo\obj/../Libraries/wch_libraries/Peripheral/ch32v10x_tim.c:1026
}
    16e4:	0001                	nop
    16e6:	5432                	lw	s0,44(sp)
    16e8:	6145                	addi	sp,sp,48
    16ea:	8082                	ret

000016ec <TIM_OC4PreloadConfig>:
TIM_OC4PreloadConfig():
D:\WCH\代码\3-PIT%20Demo\obj/../Libraries/wch_libraries/Peripheral/ch32v10x_tim.c:1038
*                    TIM_OCPreload_Enable.
*                    TIM_OCPreload_Disable.
* Return         : None
*******************************************************************************/
void TIM_OC4PreloadConfig(TIM_TypeDef* TIMx, uint16_t TIM_OCPreload)
{
    16ec:	7179                	addi	sp,sp,-48
    16ee:	d622                	sw	s0,44(sp)
    16f0:	1800                	addi	s0,sp,48
    16f2:	fca42e23          	sw	a0,-36(s0)
    16f6:	87ae                	mv	a5,a1
    16f8:	fcf41d23          	sh	a5,-38(s0)
D:\WCH\代码\3-PIT%20Demo\obj/../Libraries/wch_libraries/Peripheral/ch32v10x_tim.c:1039
  uint16_t tmpccmr2 = 0;
    16fc:	fe041723          	sh	zero,-18(s0)
D:\WCH\代码\3-PIT%20Demo\obj/../Libraries/wch_libraries/Peripheral/ch32v10x_tim.c:1041

  tmpccmr2 = TIMx->CHCTLR2;
    1700:	fdc42783          	lw	a5,-36(s0)
    1704:	01c7d783          	lhu	a5,28(a5)
    1708:	fef41723          	sh	a5,-18(s0)
D:\WCH\代码\3-PIT%20Demo\obj/../Libraries/wch_libraries/Peripheral/ch32v10x_tim.c:1042
  tmpccmr2 &= (uint16_t)~((uint16_t)TIM_OC4PE);
    170c:	fee45703          	lhu	a4,-18(s0)
    1710:	77fd                	lui	a5,0xfffff
    1712:	7ff78793          	addi	a5,a5,2047 # fffff7ff <_eusrstack+0xdfffa7ff>
    1716:	8ff9                	and	a5,a5,a4
    1718:	fef41723          	sh	a5,-18(s0)
D:\WCH\代码\3-PIT%20Demo\obj/../Libraries/wch_libraries/Peripheral/ch32v10x_tim.c:1043
  tmpccmr2 |= (uint16_t)(TIM_OCPreload << 8);
    171c:	fda45783          	lhu	a5,-38(s0)
    1720:	07a2                	slli	a5,a5,0x8
    1722:	01079713          	slli	a4,a5,0x10
    1726:	8341                	srli	a4,a4,0x10
    1728:	fee45783          	lhu	a5,-18(s0)
    172c:	8fd9                	or	a5,a5,a4
    172e:	fef41723          	sh	a5,-18(s0)
D:\WCH\代码\3-PIT%20Demo\obj/../Libraries/wch_libraries/Peripheral/ch32v10x_tim.c:1044
  TIMx->CHCTLR2 = tmpccmr2;
    1732:	fdc42783          	lw	a5,-36(s0)
    1736:	fee45703          	lhu	a4,-18(s0)
    173a:	00e79e23          	sh	a4,28(a5)
D:\WCH\代码\3-PIT%20Demo\obj/../Libraries/wch_libraries/Peripheral/ch32v10x_tim.c:1045
}
    173e:	0001                	nop
    1740:	5432                	lw	s0,44(sp)
    1742:	6145                	addi	sp,sp,48
    1744:	8082                	ret

00001746 <TIM_OC1FastConfig>:
TIM_OC1FastConfig():
D:\WCH\代码\3-PIT%20Demo\obj/../Libraries/wch_libraries/Peripheral/ch32v10x_tim.c:1057
*                    TIM_OCFast_Enable: TIM output compare fast enable.
*                    TIM_OCFast_Disable: TIM output compare fast disable.
* Return         : None
*******************************************************************************/
void TIM_OC1FastConfig(TIM_TypeDef* TIMx, uint16_t TIM_OCFast)
{
    1746:	7179                	addi	sp,sp,-48
    1748:	d622                	sw	s0,44(sp)
    174a:	1800                	addi	s0,sp,48
    174c:	fca42e23          	sw	a0,-36(s0)
    1750:	87ae                	mv	a5,a1
    1752:	fcf41d23          	sh	a5,-38(s0)
D:\WCH\代码\3-PIT%20Demo\obj/../Libraries/wch_libraries/Peripheral/ch32v10x_tim.c:1058
  uint16_t tmpccmr1 = 0;
    1756:	fe041723          	sh	zero,-18(s0)
D:\WCH\代码\3-PIT%20Demo\obj/../Libraries/wch_libraries/Peripheral/ch32v10x_tim.c:1060

  tmpccmr1 = TIMx->CHCTLR1;
    175a:	fdc42783          	lw	a5,-36(s0)
    175e:	0187d783          	lhu	a5,24(a5)
    1762:	fef41723          	sh	a5,-18(s0)
D:\WCH\代码\3-PIT%20Demo\obj/../Libraries/wch_libraries/Peripheral/ch32v10x_tim.c:1061
  tmpccmr1 &= (uint16_t)~((uint16_t)TIM_OC1FE);
    1766:	fee45783          	lhu	a5,-18(s0)
    176a:	9bed                	andi	a5,a5,-5
    176c:	fef41723          	sh	a5,-18(s0)
D:\WCH\代码\3-PIT%20Demo\obj/../Libraries/wch_libraries/Peripheral/ch32v10x_tim.c:1062
  tmpccmr1 |= TIM_OCFast;
    1770:	fee45703          	lhu	a4,-18(s0)
    1774:	fda45783          	lhu	a5,-38(s0)
    1778:	8fd9                	or	a5,a5,a4
    177a:	fef41723          	sh	a5,-18(s0)
D:\WCH\代码\3-PIT%20Demo\obj/../Libraries/wch_libraries/Peripheral/ch32v10x_tim.c:1063
  TIMx->CHCTLR1 = tmpccmr1;
    177e:	fdc42783          	lw	a5,-36(s0)
    1782:	fee45703          	lhu	a4,-18(s0)
    1786:	00e79c23          	sh	a4,24(a5)
D:\WCH\代码\3-PIT%20Demo\obj/../Libraries/wch_libraries/Peripheral/ch32v10x_tim.c:1064
}
    178a:	0001                	nop
    178c:	5432                	lw	s0,44(sp)
    178e:	6145                	addi	sp,sp,48
    1790:	8082                	ret

00001792 <TIM_OC2FastConfig>:
TIM_OC2FastConfig():
D:\WCH\代码\3-PIT%20Demo\obj/../Libraries/wch_libraries/Peripheral/ch32v10x_tim.c:1076
*                    TIM_OCFast_Enable: TIM output compare fast enable.
*                    TIM_OCFast_Disable: TIM output compare fast disable.
* Return         : None
*******************************************************************************/
void TIM_OC2FastConfig(TIM_TypeDef* TIMx, uint16_t TIM_OCFast)
{
    1792:	7179                	addi	sp,sp,-48
    1794:	d622                	sw	s0,44(sp)
    1796:	1800                	addi	s0,sp,48
    1798:	fca42e23          	sw	a0,-36(s0)
    179c:	87ae                	mv	a5,a1
    179e:	fcf41d23          	sh	a5,-38(s0)
D:\WCH\代码\3-PIT%20Demo\obj/../Libraries/wch_libraries/Peripheral/ch32v10x_tim.c:1077
  uint16_t tmpccmr1 = 0;
    17a2:	fe041723          	sh	zero,-18(s0)
D:\WCH\代码\3-PIT%20Demo\obj/../Libraries/wch_libraries/Peripheral/ch32v10x_tim.c:1079

  tmpccmr1 = TIMx->CHCTLR1;
    17a6:	fdc42783          	lw	a5,-36(s0)
    17aa:	0187d783          	lhu	a5,24(a5)
    17ae:	fef41723          	sh	a5,-18(s0)
D:\WCH\代码\3-PIT%20Demo\obj/../Libraries/wch_libraries/Peripheral/ch32v10x_tim.c:1080
  tmpccmr1 &= (uint16_t)~((uint16_t)TIM_OC2FE);
    17b2:	fee45783          	lhu	a5,-18(s0)
    17b6:	bff7f793          	andi	a5,a5,-1025
    17ba:	fef41723          	sh	a5,-18(s0)
D:\WCH\代码\3-PIT%20Demo\obj/../Libraries/wch_libraries/Peripheral/ch32v10x_tim.c:1081
  tmpccmr1 |= (uint16_t)(TIM_OCFast << 8);
    17be:	fda45783          	lhu	a5,-38(s0)
    17c2:	07a2                	slli	a5,a5,0x8
    17c4:	01079713          	slli	a4,a5,0x10
    17c8:	8341                	srli	a4,a4,0x10
    17ca:	fee45783          	lhu	a5,-18(s0)
    17ce:	8fd9                	or	a5,a5,a4
    17d0:	fef41723          	sh	a5,-18(s0)
D:\WCH\代码\3-PIT%20Demo\obj/../Libraries/wch_libraries/Peripheral/ch32v10x_tim.c:1082
  TIMx->CHCTLR1 = tmpccmr1;
    17d4:	fdc42783          	lw	a5,-36(s0)
    17d8:	fee45703          	lhu	a4,-18(s0)
    17dc:	00e79c23          	sh	a4,24(a5)
D:\WCH\代码\3-PIT%20Demo\obj/../Libraries/wch_libraries/Peripheral/ch32v10x_tim.c:1083
}
    17e0:	0001                	nop
    17e2:	5432                	lw	s0,44(sp)
    17e4:	6145                	addi	sp,sp,48
    17e6:	8082                	ret

000017e8 <TIM_OC3FastConfig>:
TIM_OC3FastConfig():
D:\WCH\代码\3-PIT%20Demo\obj/../Libraries/wch_libraries/Peripheral/ch32v10x_tim.c:1095
*                    TIM_OCFast_Enable: TIM output compare fast enable.
*                    TIM_OCFast_Disable: TIM output compare fast disable.
* Return         : None
*******************************************************************************/
void TIM_OC3FastConfig(TIM_TypeDef* TIMx, uint16_t TIM_OCFast)
{
    17e8:	7179                	addi	sp,sp,-48
    17ea:	d622                	sw	s0,44(sp)
    17ec:	1800                	addi	s0,sp,48
    17ee:	fca42e23          	sw	a0,-36(s0)
    17f2:	87ae                	mv	a5,a1
    17f4:	fcf41d23          	sh	a5,-38(s0)
D:\WCH\代码\3-PIT%20Demo\obj/../Libraries/wch_libraries/Peripheral/ch32v10x_tim.c:1096
  uint16_t tmpccmr2 = 0;
    17f8:	fe041723          	sh	zero,-18(s0)
D:\WCH\代码\3-PIT%20Demo\obj/../Libraries/wch_libraries/Peripheral/ch32v10x_tim.c:1098

  tmpccmr2 = TIMx->CHCTLR2;
    17fc:	fdc42783          	lw	a5,-36(s0)
    1800:	01c7d783          	lhu	a5,28(a5)
    1804:	fef41723          	sh	a5,-18(s0)
D:\WCH\代码\3-PIT%20Demo\obj/../Libraries/wch_libraries/Peripheral/ch32v10x_tim.c:1099
  tmpccmr2 &= (uint16_t)~((uint16_t)TIM_OC3FE);
    1808:	fee45783          	lhu	a5,-18(s0)
    180c:	9bed                	andi	a5,a5,-5
    180e:	fef41723          	sh	a5,-18(s0)
D:\WCH\代码\3-PIT%20Demo\obj/../Libraries/wch_libraries/Peripheral/ch32v10x_tim.c:1100
  tmpccmr2 |= TIM_OCFast;	
    1812:	fee45703          	lhu	a4,-18(s0)
    1816:	fda45783          	lhu	a5,-38(s0)
    181a:	8fd9                	or	a5,a5,a4
    181c:	fef41723          	sh	a5,-18(s0)
D:\WCH\代码\3-PIT%20Demo\obj/../Libraries/wch_libraries/Peripheral/ch32v10x_tim.c:1101
  TIMx->CHCTLR2 = tmpccmr2;
    1820:	fdc42783          	lw	a5,-36(s0)
    1824:	fee45703          	lhu	a4,-18(s0)
    1828:	00e79e23          	sh	a4,28(a5)
D:\WCH\代码\3-PIT%20Demo\obj/../Libraries/wch_libraries/Peripheral/ch32v10x_tim.c:1102
}
    182c:	0001                	nop
    182e:	5432                	lw	s0,44(sp)
    1830:	6145                	addi	sp,sp,48
    1832:	8082                	ret

00001834 <TIM_OC4FastConfig>:
TIM_OC4FastConfig():
D:\WCH\代码\3-PIT%20Demo\obj/../Libraries/wch_libraries/Peripheral/ch32v10x_tim.c:1114
*                    TIM_OCFast_Enable: TIM output compare fast enable.
*                    TIM_OCFast_Disable: TIM output compare fast disable.
* Return         : None
*******************************************************************************/
void TIM_OC4FastConfig(TIM_TypeDef* TIMx, uint16_t TIM_OCFast)
{
    1834:	7179                	addi	sp,sp,-48
    1836:	d622                	sw	s0,44(sp)
    1838:	1800                	addi	s0,sp,48
    183a:	fca42e23          	sw	a0,-36(s0)
    183e:	87ae                	mv	a5,a1
    1840:	fcf41d23          	sh	a5,-38(s0)
D:\WCH\代码\3-PIT%20Demo\obj/../Libraries/wch_libraries/Peripheral/ch32v10x_tim.c:1115
  uint16_t tmpccmr2 = 0;
    1844:	fe041723          	sh	zero,-18(s0)
D:\WCH\代码\3-PIT%20Demo\obj/../Libraries/wch_libraries/Peripheral/ch32v10x_tim.c:1117

  tmpccmr2 = TIMx->CHCTLR2;
    1848:	fdc42783          	lw	a5,-36(s0)
    184c:	01c7d783          	lhu	a5,28(a5)
    1850:	fef41723          	sh	a5,-18(s0)
D:\WCH\代码\3-PIT%20Demo\obj/../Libraries/wch_libraries/Peripheral/ch32v10x_tim.c:1118
  tmpccmr2 &= (uint16_t)~((uint16_t)TIM_OC4FE);
    1854:	fee45783          	lhu	a5,-18(s0)
    1858:	bff7f793          	andi	a5,a5,-1025
    185c:	fef41723          	sh	a5,-18(s0)
D:\WCH\代码\3-PIT%20Demo\obj/../Libraries/wch_libraries/Peripheral/ch32v10x_tim.c:1119
  tmpccmr2 |= (uint16_t)(TIM_OCFast << 8);
    1860:	fda45783          	lhu	a5,-38(s0)
    1864:	07a2                	slli	a5,a5,0x8
    1866:	01079713          	slli	a4,a5,0x10
    186a:	8341                	srli	a4,a4,0x10
    186c:	fee45783          	lhu	a5,-18(s0)
    1870:	8fd9                	or	a5,a5,a4
    1872:	fef41723          	sh	a5,-18(s0)
D:\WCH\代码\3-PIT%20Demo\obj/../Libraries/wch_libraries/Peripheral/ch32v10x_tim.c:1120
  TIMx->CHCTLR2 = tmpccmr2;
    1876:	fdc42783          	lw	a5,-36(s0)
    187a:	fee45703          	lhu	a4,-18(s0)
    187e:	00e79e23          	sh	a4,28(a5)
D:\WCH\代码\3-PIT%20Demo\obj/../Libraries/wch_libraries/Peripheral/ch32v10x_tim.c:1121
}
    1882:	0001                	nop
    1884:	5432                	lw	s0,44(sp)
    1886:	6145                	addi	sp,sp,48
    1888:	8082                	ret

0000188a <TIM_GetITStatus>:
TIM_GetITStatus():
D:\WCH\代码\3-PIT%20Demo\obj/../Libraries/wch_libraries/Peripheral/ch32v10x_tim.c:1853
*                    TIM_IT_Trigger: TIM Trigger Interrupt source.
*                    TIM_IT_Break: TIM Break Interrupt source.
* Return         : bitstatus: SET or RESET.
*******************************************************************************/
ITStatus TIM_GetITStatus(TIM_TypeDef* TIMx, uint16_t TIM_IT)
{
    188a:	7179                	addi	sp,sp,-48
    188c:	d622                	sw	s0,44(sp)
    188e:	1800                	addi	s0,sp,48
    1890:	fca42e23          	sw	a0,-36(s0)
    1894:	87ae                	mv	a5,a1
    1896:	fcf41d23          	sh	a5,-38(s0)
D:\WCH\代码\3-PIT%20Demo\obj/../Libraries/wch_libraries/Peripheral/ch32v10x_tim.c:1854
  ITStatus bitstatus = RESET;  
    189a:	fe042623          	sw	zero,-20(s0)
D:\WCH\代码\3-PIT%20Demo\obj/../Libraries/wch_libraries/Peripheral/ch32v10x_tim.c:1855
  uint16_t itstatus = 0x0, itenable = 0x0;
    189e:	fe041523          	sh	zero,-22(s0)
    18a2:	fe041423          	sh	zero,-24(s0)
D:\WCH\代码\3-PIT%20Demo\obj/../Libraries/wch_libraries/Peripheral/ch32v10x_tim.c:1857
   
  itstatus = TIMx->INTFR & TIM_IT;
    18a6:	fdc42783          	lw	a5,-36(s0)
    18aa:	0107d783          	lhu	a5,16(a5)
    18ae:	01079713          	slli	a4,a5,0x10
    18b2:	8341                	srli	a4,a4,0x10
    18b4:	fda45783          	lhu	a5,-38(s0)
    18b8:	8ff9                	and	a5,a5,a4
    18ba:	fef41523          	sh	a5,-22(s0)
D:\WCH\代码\3-PIT%20Demo\obj/../Libraries/wch_libraries/Peripheral/ch32v10x_tim.c:1859
  
  itenable = TIMx->DMAINTENR & TIM_IT;
    18be:	fdc42783          	lw	a5,-36(s0)
    18c2:	00c7d783          	lhu	a5,12(a5)
    18c6:	01079713          	slli	a4,a5,0x10
    18ca:	8341                	srli	a4,a4,0x10
    18cc:	fda45783          	lhu	a5,-38(s0)
    18d0:	8ff9                	and	a5,a5,a4
    18d2:	fef41423          	sh	a5,-24(s0)
D:\WCH\代码\3-PIT%20Demo\obj/../Libraries/wch_libraries/Peripheral/ch32v10x_tim.c:1860
  if ((itstatus != (uint16_t)RESET) && (itenable != (uint16_t)RESET))
    18d6:	fea45783          	lhu	a5,-22(s0)
    18da:	cb81                	beqz	a5,18ea <TIM_GetITStatus+0x60>
D:\WCH\代码\3-PIT%20Demo\obj/../Libraries/wch_libraries/Peripheral/ch32v10x_tim.c:1860 (discriminator 1)
    18dc:	fe845783          	lhu	a5,-24(s0)
    18e0:	c789                	beqz	a5,18ea <TIM_GetITStatus+0x60>
D:\WCH\代码\3-PIT%20Demo\obj/../Libraries/wch_libraries/Peripheral/ch32v10x_tim.c:1862
  {
    bitstatus = SET;
    18e2:	4785                	li	a5,1
    18e4:	fef42623          	sw	a5,-20(s0)
    18e8:	a019                	j	18ee <TIM_GetITStatus+0x64>
D:\WCH\代码\3-PIT%20Demo\obj/../Libraries/wch_libraries/Peripheral/ch32v10x_tim.c:1866
  }
  else
  {
    bitstatus = RESET;
    18ea:	fe042623          	sw	zero,-20(s0)
D:\WCH\代码\3-PIT%20Demo\obj/../Libraries/wch_libraries/Peripheral/ch32v10x_tim.c:1869
  }
	
  return bitstatus;
    18ee:	fec42783          	lw	a5,-20(s0)
D:\WCH\代码\3-PIT%20Demo\obj/../Libraries/wch_libraries/Peripheral/ch32v10x_tim.c:1870
}
    18f2:	853e                	mv	a0,a5
    18f4:	5432                	lw	s0,44(sp)
    18f6:	6145                	addi	sp,sp,48
    18f8:	8082                	ret

000018fa <TIM_ClearITPendingBit>:
TIM_ClearITPendingBit():
D:\WCH\代码\3-PIT%20Demo\obj/../Libraries/wch_libraries/Peripheral/ch32v10x_tim.c:1888
*                    TIM_IT_Trigger: TIM Trigger Interrupt source.
*                    TIM_IT_Break: TIM Break Interrupt source.
* Return         : None
*******************************************************************************/
void TIM_ClearITPendingBit(TIM_TypeDef* TIMx, uint16_t TIM_IT)
{
    18fa:	1101                	addi	sp,sp,-32
    18fc:	ce22                	sw	s0,28(sp)
    18fe:	1000                	addi	s0,sp,32
    1900:	fea42623          	sw	a0,-20(s0)
    1904:	87ae                	mv	a5,a1
    1906:	fef41523          	sh	a5,-22(s0)
D:\WCH\代码\3-PIT%20Demo\obj/../Libraries/wch_libraries/Peripheral/ch32v10x_tim.c:1889
  TIMx->INTFR = (uint16_t)~TIM_IT;
    190a:	fea45783          	lhu	a5,-22(s0)
    190e:	fff7c793          	not	a5,a5
    1912:	01079713          	slli	a4,a5,0x10
    1916:	8341                	srli	a4,a4,0x10
    1918:	fec42783          	lw	a5,-20(s0)
    191c:	00e79823          	sh	a4,16(a5)
D:\WCH\代码\3-PIT%20Demo\obj/../Libraries/wch_libraries/Peripheral/ch32v10x_tim.c:1890
}
    1920:	0001                	nop
    1922:	4472                	lw	s0,28(sp)
    1924:	6105                	addi	sp,sp,32
    1926:	8082                	ret

00001928 <USART_Init>:
USART_Init():
D:\WCH\代码\3-PIT%20Demo\obj/../Libraries/wch_libraries/Peripheral/ch32v10x_usart.c:105
*                  USART_InitStruct: pointer to a USART_InitTypeDef structure
*      that contains the configuration information for the specified USART peripheral. 
* Return         : None
*******************************************************************************/
void USART_Init(USART_TypeDef* USARTx, USART_InitTypeDef* USART_InitStruct)
{
    1928:	715d                	addi	sp,sp,-80
    192a:	c686                	sw	ra,76(sp)
    192c:	c4a2                	sw	s0,72(sp)
    192e:	0880                	addi	s0,sp,80
    1930:	faa42e23          	sw	a0,-68(s0)
    1934:	fab42c23          	sw	a1,-72(s0)
D:\WCH\代码\3-PIT%20Demo\obj/../Libraries/wch_libraries/Peripheral/ch32v10x_usart.c:106
  uint32_t tmpreg = 0x00, apbclock = 0x00;
    1938:	fe042623          	sw	zero,-20(s0)
    193c:	fe042423          	sw	zero,-24(s0)
D:\WCH\代码\3-PIT%20Demo\obj/../Libraries/wch_libraries/Peripheral/ch32v10x_usart.c:107
  uint32_t integerdivider = 0x00;
    1940:	fe042223          	sw	zero,-28(s0)
D:\WCH\代码\3-PIT%20Demo\obj/../Libraries/wch_libraries/Peripheral/ch32v10x_usart.c:108
  uint32_t fractionaldivider = 0x00;
    1944:	fe042023          	sw	zero,-32(s0)
D:\WCH\代码\3-PIT%20Demo\obj/../Libraries/wch_libraries/Peripheral/ch32v10x_usart.c:109
  uint32_t usartxbase = 0;
    1948:	fc042e23          	sw	zero,-36(s0)
D:\WCH\代码\3-PIT%20Demo\obj/../Libraries/wch_libraries/Peripheral/ch32v10x_usart.c:116

  if (USART_InitStruct->USART_HardwareFlowControl != USART_HardwareFlowControl_None)
  {
  }

  usartxbase = (uint32_t)USARTx;
    194c:	fbc42783          	lw	a5,-68(s0)
    1950:	fcf42e23          	sw	a5,-36(s0)
D:\WCH\代码\3-PIT%20Demo\obj/../Libraries/wch_libraries/Peripheral/ch32v10x_usart.c:117
  tmpreg = USARTx->CTLR2;
    1954:	fbc42783          	lw	a5,-68(s0)
    1958:	0107d783          	lhu	a5,16(a5)
    195c:	07c2                	slli	a5,a5,0x10
    195e:	83c1                	srli	a5,a5,0x10
    1960:	fef42623          	sw	a5,-20(s0)
D:\WCH\代码\3-PIT%20Demo\obj/../Libraries/wch_libraries/Peripheral/ch32v10x_usart.c:118
  tmpreg &= CTLR2_STOP_CLEAR_Mask;
    1964:	fec42703          	lw	a4,-20(s0)
    1968:	67b5                	lui	a5,0xd
    196a:	17fd                	addi	a5,a5,-1
    196c:	8ff9                	and	a5,a5,a4
    196e:	fef42623          	sw	a5,-20(s0)
D:\WCH\代码\3-PIT%20Demo\obj/../Libraries/wch_libraries/Peripheral/ch32v10x_usart.c:119
  tmpreg |= (uint32_t)USART_InitStruct->USART_StopBits;  
    1972:	fb842783          	lw	a5,-72(s0)
    1976:	0067d783          	lhu	a5,6(a5) # d006 <_data_lma+0x638a>
    197a:	873e                	mv	a4,a5
    197c:	fec42783          	lw	a5,-20(s0)
    1980:	8fd9                	or	a5,a5,a4
    1982:	fef42623          	sw	a5,-20(s0)
D:\WCH\代码\3-PIT%20Demo\obj/../Libraries/wch_libraries/Peripheral/ch32v10x_usart.c:121
	
  USARTx->CTLR2 = (uint16_t)tmpreg;
    1986:	fec42783          	lw	a5,-20(s0)
    198a:	01079713          	slli	a4,a5,0x10
    198e:	8341                	srli	a4,a4,0x10
    1990:	fbc42783          	lw	a5,-68(s0)
    1994:	00e79823          	sh	a4,16(a5)
D:\WCH\代码\3-PIT%20Demo\obj/../Libraries/wch_libraries/Peripheral/ch32v10x_usart.c:122
  tmpreg = USARTx->CTLR1;
    1998:	fbc42783          	lw	a5,-68(s0)
    199c:	00c7d783          	lhu	a5,12(a5)
    19a0:	07c2                	slli	a5,a5,0x10
    19a2:	83c1                	srli	a5,a5,0x10
    19a4:	fef42623          	sw	a5,-20(s0)
D:\WCH\代码\3-PIT%20Demo\obj/../Libraries/wch_libraries/Peripheral/ch32v10x_usart.c:123
  tmpreg &= CTLR1_CLEAR_Mask;
    19a8:	fec42703          	lw	a4,-20(s0)
    19ac:	67bd                	lui	a5,0xf
    19ae:	9f378793          	addi	a5,a5,-1549 # e9f3 <_data_lma+0x7d77>
    19b2:	8ff9                	and	a5,a5,a4
    19b4:	fef42623          	sw	a5,-20(s0)
D:\WCH\代码\3-PIT%20Demo\obj/../Libraries/wch_libraries/Peripheral/ch32v10x_usart.c:124
  tmpreg |= (uint32_t)USART_InitStruct->USART_WordLength | USART_InitStruct->USART_Parity |
    19b8:	fb842783          	lw	a5,-72(s0)
    19bc:	0047d703          	lhu	a4,4(a5)
    19c0:	fb842783          	lw	a5,-72(s0)
    19c4:	0087d783          	lhu	a5,8(a5)
    19c8:	8fd9                	or	a5,a5,a4
    19ca:	01079713          	slli	a4,a5,0x10
    19ce:	8341                	srli	a4,a4,0x10
D:\WCH\代码\3-PIT%20Demo\obj/../Libraries/wch_libraries/Peripheral/ch32v10x_usart.c:125
            USART_InitStruct->USART_Mode;
    19d0:	fb842783          	lw	a5,-72(s0)
    19d4:	00a7d783          	lhu	a5,10(a5)
D:\WCH\代码\3-PIT%20Demo\obj/../Libraries/wch_libraries/Peripheral/ch32v10x_usart.c:124
  tmpreg |= (uint32_t)USART_InitStruct->USART_WordLength | USART_InitStruct->USART_Parity |
    19d8:	8fd9                	or	a5,a5,a4
    19da:	07c2                	slli	a5,a5,0x10
    19dc:	83c1                	srli	a5,a5,0x10
    19de:	873e                	mv	a4,a5
    19e0:	fec42783          	lw	a5,-20(s0)
    19e4:	8fd9                	or	a5,a5,a4
    19e6:	fef42623          	sw	a5,-20(s0)
D:\WCH\代码\3-PIT%20Demo\obj/../Libraries/wch_libraries/Peripheral/ch32v10x_usart.c:126
  USARTx->CTLR1 = (uint16_t)tmpreg;
    19ea:	fec42783          	lw	a5,-20(s0)
    19ee:	01079713          	slli	a4,a5,0x10
    19f2:	8341                	srli	a4,a4,0x10
    19f4:	fbc42783          	lw	a5,-68(s0)
    19f8:	00e79623          	sh	a4,12(a5)
D:\WCH\代码\3-PIT%20Demo\obj/../Libraries/wch_libraries/Peripheral/ch32v10x_usart.c:128
 
  tmpreg = USARTx->CTLR3;
    19fc:	fbc42783          	lw	a5,-68(s0)
    1a00:	0147d783          	lhu	a5,20(a5)
    1a04:	07c2                	slli	a5,a5,0x10
    1a06:	83c1                	srli	a5,a5,0x10
    1a08:	fef42623          	sw	a5,-20(s0)
D:\WCH\代码\3-PIT%20Demo\obj/../Libraries/wch_libraries/Peripheral/ch32v10x_usart.c:129
  tmpreg &= CTLR3_CLEAR_Mask;
    1a0c:	fec42703          	lw	a4,-20(s0)
    1a10:	67c1                	lui	a5,0x10
    1a12:	cff78793          	addi	a5,a5,-769 # fcff <_data_lma+0x9083>
    1a16:	8ff9                	and	a5,a5,a4
    1a18:	fef42623          	sw	a5,-20(s0)
D:\WCH\代码\3-PIT%20Demo\obj/../Libraries/wch_libraries/Peripheral/ch32v10x_usart.c:130
  tmpreg |= USART_InitStruct->USART_HardwareFlowControl;
    1a1c:	fb842783          	lw	a5,-72(s0)
    1a20:	00c7d783          	lhu	a5,12(a5)
    1a24:	873e                	mv	a4,a5
    1a26:	fec42783          	lw	a5,-20(s0)
    1a2a:	8fd9                	or	a5,a5,a4
    1a2c:	fef42623          	sw	a5,-20(s0)
D:\WCH\代码\3-PIT%20Demo\obj/../Libraries/wch_libraries/Peripheral/ch32v10x_usart.c:131
  USARTx->CTLR3 = (uint16_t)tmpreg;
    1a30:	fec42783          	lw	a5,-20(s0)
    1a34:	01079713          	slli	a4,a5,0x10
    1a38:	8341                	srli	a4,a4,0x10
    1a3a:	fbc42783          	lw	a5,-68(s0)
    1a3e:	00e79a23          	sh	a4,20(a5)
D:\WCH\代码\3-PIT%20Demo\obj/../Libraries/wch_libraries/Peripheral/ch32v10x_usart.c:133

  RCC_GetClocksFreq(&RCC_ClocksStatus);
    1a42:	fc840793          	addi	a5,s0,-56
    1a46:	853e                	mv	a0,a5
    1a48:	f79fe0ef          	jal	ra,9c0 <RCC_GetClocksFreq>
D:\WCH\代码\3-PIT%20Demo\obj/../Libraries/wch_libraries/Peripheral/ch32v10x_usart.c:135
	
  if (usartxbase == USART1_BASE)
    1a4c:	fdc42703          	lw	a4,-36(s0)
    1a50:	400147b7          	lui	a5,0x40014
    1a54:	80078793          	addi	a5,a5,-2048 # 40013800 <_eusrstack+0x2000e800>
    1a58:	00f71763          	bne	a4,a5,1a66 <USART_Init+0x13e>
D:\WCH\代码\3-PIT%20Demo\obj/../Libraries/wch_libraries/Peripheral/ch32v10x_usart.c:137
  {
    apbclock = RCC_ClocksStatus.PCLK2_Frequency;
    1a5c:	fd442783          	lw	a5,-44(s0)
    1a60:	fef42423          	sw	a5,-24(s0)
    1a64:	a029                	j	1a6e <USART_Init+0x146>
D:\WCH\代码\3-PIT%20Demo\obj/../Libraries/wch_libraries/Peripheral/ch32v10x_usart.c:141
  }
  else
  {
    apbclock = RCC_ClocksStatus.PCLK1_Frequency;
    1a66:	fd042783          	lw	a5,-48(s0)
    1a6a:	fef42423          	sw	a5,-24(s0)
D:\WCH\代码\3-PIT%20Demo\obj/../Libraries/wch_libraries/Peripheral/ch32v10x_usart.c:144
  }
  
  if ((USARTx->CTLR1 & CTLR1_OVER8_Set) != 0)
    1a6e:	fbc42783          	lw	a5,-68(s0)
    1a72:	00c7d783          	lhu	a5,12(a5)
    1a76:	07c2                	slli	a5,a5,0x10
    1a78:	83c1                	srli	a5,a5,0x10
    1a7a:	07c2                	slli	a5,a5,0x10
    1a7c:	87c1                	srai	a5,a5,0x10
    1a7e:	0207d263          	bgez	a5,1aa2 <USART_Init+0x17a>
D:\WCH\代码\3-PIT%20Demo\obj/../Libraries/wch_libraries/Peripheral/ch32v10x_usart.c:146
  {
    integerdivider = ((25 * apbclock) / (2 * (USART_InitStruct->USART_BaudRate)));    
    1a82:	fe842703          	lw	a4,-24(s0)
    1a86:	87ba                	mv	a5,a4
    1a88:	0786                	slli	a5,a5,0x1
    1a8a:	97ba                	add	a5,a5,a4
    1a8c:	078e                	slli	a5,a5,0x3
    1a8e:	973e                	add	a4,a4,a5
    1a90:	fb842783          	lw	a5,-72(s0)
    1a94:	439c                	lw	a5,0(a5)
    1a96:	0786                	slli	a5,a5,0x1
    1a98:	02f757b3          	divu	a5,a4,a5
    1a9c:	fef42223          	sw	a5,-28(s0)
    1aa0:	a005                	j	1ac0 <USART_Init+0x198>
D:\WCH\代码\3-PIT%20Demo\obj/../Libraries/wch_libraries/Peripheral/ch32v10x_usart.c:150
  }
  else 
  {
    integerdivider = ((25 * apbclock) / (4 * (USART_InitStruct->USART_BaudRate)));    
    1aa2:	fe842703          	lw	a4,-24(s0)
    1aa6:	87ba                	mv	a5,a4
    1aa8:	0786                	slli	a5,a5,0x1
    1aaa:	97ba                	add	a5,a5,a4
    1aac:	078e                	slli	a5,a5,0x3
    1aae:	973e                	add	a4,a4,a5
    1ab0:	fb842783          	lw	a5,-72(s0)
    1ab4:	439c                	lw	a5,0(a5)
    1ab6:	078a                	slli	a5,a5,0x2
    1ab8:	02f757b3          	divu	a5,a4,a5
    1abc:	fef42223          	sw	a5,-28(s0)
D:\WCH\代码\3-PIT%20Demo\obj/../Libraries/wch_libraries/Peripheral/ch32v10x_usart.c:152
  }
  tmpreg = (integerdivider / 100) << 4;
    1ac0:	fe442703          	lw	a4,-28(s0)
    1ac4:	06400793          	li	a5,100
    1ac8:	02f757b3          	divu	a5,a4,a5
    1acc:	0792                	slli	a5,a5,0x4
    1ace:	fef42623          	sw	a5,-20(s0)
D:\WCH\代码\3-PIT%20Demo\obj/../Libraries/wch_libraries/Peripheral/ch32v10x_usart.c:154

  fractionaldivider = integerdivider - (100 * (tmpreg >> 4));
    1ad2:	fec42783          	lw	a5,-20(s0)
    1ad6:	0047d713          	srli	a4,a5,0x4
    1ada:	06400793          	li	a5,100
    1ade:	02f707b3          	mul	a5,a4,a5
    1ae2:	fe442703          	lw	a4,-28(s0)
    1ae6:	40f707b3          	sub	a5,a4,a5
    1aea:	fef42023          	sw	a5,-32(s0)
D:\WCH\代码\3-PIT%20Demo\obj/../Libraries/wch_libraries/Peripheral/ch32v10x_usart.c:156

  if ((USARTx->CTLR1 & CTLR1_OVER8_Set) != 0)
    1aee:	fbc42783          	lw	a5,-68(s0)
    1af2:	00c7d783          	lhu	a5,12(a5)
    1af6:	07c2                	slli	a5,a5,0x10
    1af8:	83c1                	srli	a5,a5,0x10
    1afa:	07c2                	slli	a5,a5,0x10
    1afc:	87c1                	srai	a5,a5,0x10
    1afe:	0207d263          	bgez	a5,1b22 <USART_Init+0x1fa>
D:\WCH\代码\3-PIT%20Demo\obj/../Libraries/wch_libraries/Peripheral/ch32v10x_usart.c:158
  {
    tmpreg |= ((((fractionaldivider * 8) + 50) / 100)) & ((uint8_t)0x07);
    1b02:	fe042783          	lw	a5,-32(s0)
    1b06:	078e                	slli	a5,a5,0x3
    1b08:	03278713          	addi	a4,a5,50
    1b0c:	06400793          	li	a5,100
    1b10:	02f757b3          	divu	a5,a4,a5
    1b14:	8b9d                	andi	a5,a5,7
    1b16:	fec42703          	lw	a4,-20(s0)
    1b1a:	8fd9                	or	a5,a5,a4
    1b1c:	fef42623          	sw	a5,-20(s0)
    1b20:	a005                	j	1b40 <USART_Init+0x218>
D:\WCH\代码\3-PIT%20Demo\obj/../Libraries/wch_libraries/Peripheral/ch32v10x_usart.c:162
  }
  else 
  {
    tmpreg |= ((((fractionaldivider * 16) + 50) / 100)) & ((uint8_t)0x0F);
    1b22:	fe042783          	lw	a5,-32(s0)
    1b26:	0792                	slli	a5,a5,0x4
    1b28:	03278713          	addi	a4,a5,50
    1b2c:	06400793          	li	a5,100
    1b30:	02f757b3          	divu	a5,a4,a5
    1b34:	8bbd                	andi	a5,a5,15
    1b36:	fec42703          	lw	a4,-20(s0)
    1b3a:	8fd9                	or	a5,a5,a4
    1b3c:	fef42623          	sw	a5,-20(s0)
D:\WCH\代码\3-PIT%20Demo\obj/../Libraries/wch_libraries/Peripheral/ch32v10x_usart.c:165
  }
  
  USARTx->BRR = (uint16_t)tmpreg;
    1b40:	fec42783          	lw	a5,-20(s0)
    1b44:	01079713          	slli	a4,a5,0x10
    1b48:	8341                	srli	a4,a4,0x10
    1b4a:	fbc42783          	lw	a5,-68(s0)
    1b4e:	00e79423          	sh	a4,8(a5)
D:\WCH\代码\3-PIT%20Demo\obj/../Libraries/wch_libraries/Peripheral/ch32v10x_usart.c:166
}
    1b52:	0001                	nop
    1b54:	40b6                	lw	ra,76(sp)
    1b56:	4426                	lw	s0,72(sp)
    1b58:	6161                	addi	sp,sp,80
    1b5a:	8082                	ret

00001b5c <USART_Cmd>:
USART_Cmd():
D:\WCH\代码\3-PIT%20Demo\obj/../Libraries/wch_libraries/Peripheral/ch32v10x_usart.c:229
* Input          : USARTx: where x can be 1, 2, 3 to select the USART peripheral.
*                  NewState: ENABLE or DISABLE.
* Return         : None
*******************************************************************************/
void USART_Cmd(USART_TypeDef* USARTx, FunctionalState NewState)
{
    1b5c:	1101                	addi	sp,sp,-32
    1b5e:	ce22                	sw	s0,28(sp)
    1b60:	1000                	addi	s0,sp,32
    1b62:	fea42623          	sw	a0,-20(s0)
    1b66:	feb42423          	sw	a1,-24(s0)
D:\WCH\代码\3-PIT%20Demo\obj/../Libraries/wch_libraries/Peripheral/ch32v10x_usart.c:230
  if (NewState != DISABLE)
    1b6a:	fe842783          	lw	a5,-24(s0)
    1b6e:	c395                	beqz	a5,1b92 <USART_Cmd+0x36>
D:\WCH\代码\3-PIT%20Demo\obj/../Libraries/wch_libraries/Peripheral/ch32v10x_usart.c:232
  {
    USARTx->CTLR1 |= CTLR1_UE_Set;
    1b70:	fec42783          	lw	a5,-20(s0)
    1b74:	00c7d783          	lhu	a5,12(a5)
    1b78:	01079713          	slli	a4,a5,0x10
    1b7c:	8341                	srli	a4,a4,0x10
    1b7e:	6789                	lui	a5,0x2
    1b80:	8fd9                	or	a5,a5,a4
    1b82:	01079713          	slli	a4,a5,0x10
    1b86:	8341                	srli	a4,a4,0x10
    1b88:	fec42783          	lw	a5,-20(s0)
    1b8c:	00e79623          	sh	a4,12(a5) # 200c <encoder_spi_r_reg_byte+0x110>
D:\WCH\代码\3-PIT%20Demo\obj/../Libraries/wch_libraries/Peripheral/ch32v10x_usart.c:238
  }
  else
  {
    USARTx->CTLR1 &= CTLR1_UE_Reset;
  }
}
    1b90:	a015                	j	1bb4 <USART_Cmd+0x58>
D:\WCH\代码\3-PIT%20Demo\obj/../Libraries/wch_libraries/Peripheral/ch32v10x_usart.c:236
    USARTx->CTLR1 &= CTLR1_UE_Reset;
    1b92:	fec42783          	lw	a5,-20(s0)
    1b96:	00c7d783          	lhu	a5,12(a5)
    1b9a:	01079713          	slli	a4,a5,0x10
    1b9e:	8341                	srli	a4,a4,0x10
    1ba0:	77f9                	lui	a5,0xffffe
    1ba2:	17fd                	addi	a5,a5,-1
    1ba4:	8ff9                	and	a5,a5,a4
    1ba6:	01079713          	slli	a4,a5,0x10
    1baa:	8341                	srli	a4,a4,0x10
    1bac:	fec42783          	lw	a5,-20(s0)
    1bb0:	00e79623          	sh	a4,12(a5) # ffffe00c <_eusrstack+0xdfff900c>
D:\WCH\代码\3-PIT%20Demo\obj/../Libraries/wch_libraries/Peripheral/ch32v10x_usart.c:238
}
    1bb4:	0001                	nop
    1bb6:	4472                	lw	s0,28(sp)
    1bb8:	6105                	addi	sp,sp,32
    1bba:	8082                	ret

00001bbc <USART_SendData>:
USART_SendData():
D:\WCH\代码\3-PIT%20Demo\obj/../Libraries/wch_libraries/Peripheral/ch32v10x_usart.c:404
* Input          : USARTx: where x can be 1, 2, 3 to select the USART peripheral.
*                  Data: the data to transmit..
* Return         : None
*******************************************************************************/
void USART_SendData(USART_TypeDef* USARTx, uint16_t Data)
{
    1bbc:	1101                	addi	sp,sp,-32
    1bbe:	ce22                	sw	s0,28(sp)
    1bc0:	1000                	addi	s0,sp,32
    1bc2:	fea42623          	sw	a0,-20(s0)
    1bc6:	87ae                	mv	a5,a1
    1bc8:	fef41523          	sh	a5,-22(s0)
D:\WCH\代码\3-PIT%20Demo\obj/../Libraries/wch_libraries/Peripheral/ch32v10x_usart.c:405
  USARTx->DATAR = (Data & (uint16_t)0x01FF);
    1bcc:	fea45783          	lhu	a5,-22(s0)
    1bd0:	1ff7f793          	andi	a5,a5,511
    1bd4:	01079713          	slli	a4,a5,0x10
    1bd8:	8341                	srli	a4,a4,0x10
    1bda:	fec42783          	lw	a5,-20(s0)
    1bde:	00e79223          	sh	a4,4(a5)
D:\WCH\代码\3-PIT%20Demo\obj/../Libraries/wch_libraries/Peripheral/ch32v10x_usart.c:406
}
    1be2:	0001                	nop
    1be4:	4472                	lw	s0,28(sp)
    1be6:	6105                	addi	sp,sp,32
    1be8:	8082                	ret

00001bea <USART_ReceiveData>:
USART_ReceiveData():
D:\WCH\代码\3-PIT%20Demo\obj/../Libraries/wch_libraries/Peripheral/ch32v10x_usart.c:415
* Description    : Returns the most recent received data by the USARTx peripheral.
* Input          : USARTx: where x can be 1, 2, 3 to select the USART peripheral.
* Return         : The received data.
*******************************************************************************/
uint16_t USART_ReceiveData(USART_TypeDef* USARTx)
{
    1bea:	1101                	addi	sp,sp,-32
    1bec:	ce22                	sw	s0,28(sp)
    1bee:	1000                	addi	s0,sp,32
    1bf0:	fea42623          	sw	a0,-20(s0)
D:\WCH\代码\3-PIT%20Demo\obj/../Libraries/wch_libraries/Peripheral/ch32v10x_usart.c:416
  return (uint16_t)(USARTx->DATAR & (uint16_t)0x01FF);
    1bf4:	fec42783          	lw	a5,-20(s0)
    1bf8:	0047d783          	lhu	a5,4(a5)
    1bfc:	07c2                	slli	a5,a5,0x10
    1bfe:	83c1                	srli	a5,a5,0x10
    1c00:	1ff7f793          	andi	a5,a5,511
    1c04:	07c2                	slli	a5,a5,0x10
    1c06:	83c1                	srli	a5,a5,0x10
D:\WCH\代码\3-PIT%20Demo\obj/../Libraries/wch_libraries/Peripheral/ch32v10x_usart.c:417
}
    1c08:	853e                	mv	a0,a5
    1c0a:	4472                	lw	s0,28(sp)
    1c0c:	6105                	addi	sp,sp,32
    1c0e:	8082                	ret

00001c10 <USART_GetFlagStatus>:
USART_GetFlagStatus():
D:\WCH\代码\3-PIT%20Demo\obj/../Libraries/wch_libraries/Peripheral/ch32v10x_usart.c:603
*                    USART_FLAG_FE: Framing Error flag.
*                    USART_FLAG_PE: Parity Error flag.
* Return         : bitstatus: SET or RESET.
*******************************************************************************/
FlagStatus USART_GetFlagStatus(USART_TypeDef* USARTx, uint16_t USART_FLAG)
{
    1c10:	7179                	addi	sp,sp,-48
    1c12:	d622                	sw	s0,44(sp)
    1c14:	1800                	addi	s0,sp,48
    1c16:	fca42e23          	sw	a0,-36(s0)
    1c1a:	87ae                	mv	a5,a1
    1c1c:	fcf41d23          	sh	a5,-38(s0)
D:\WCH\代码\3-PIT%20Demo\obj/../Libraries/wch_libraries/Peripheral/ch32v10x_usart.c:604
  FlagStatus bitstatus = RESET;
    1c20:	fe042623          	sw	zero,-20(s0)
D:\WCH\代码\3-PIT%20Demo\obj/../Libraries/wch_libraries/Peripheral/ch32v10x_usart.c:610

  if (USART_FLAG == USART_FLAG_CTS)
  {
  }  
  
  if ((USARTx->STATR & USART_FLAG) != (uint16_t)RESET)
    1c24:	fdc42783          	lw	a5,-36(s0)
    1c28:	0007d783          	lhu	a5,0(a5)
    1c2c:	01079713          	slli	a4,a5,0x10
    1c30:	8341                	srli	a4,a4,0x10
    1c32:	fda45783          	lhu	a5,-38(s0)
    1c36:	8ff9                	and	a5,a5,a4
    1c38:	07c2                	slli	a5,a5,0x10
    1c3a:	83c1                	srli	a5,a5,0x10
    1c3c:	c789                	beqz	a5,1c46 <USART_GetFlagStatus+0x36>
D:\WCH\代码\3-PIT%20Demo\obj/../Libraries/wch_libraries/Peripheral/ch32v10x_usart.c:612
  {
    bitstatus = SET;
    1c3e:	4785                	li	a5,1
    1c40:	fef42623          	sw	a5,-20(s0)
    1c44:	a019                	j	1c4a <USART_GetFlagStatus+0x3a>
D:\WCH\代码\3-PIT%20Demo\obj/../Libraries/wch_libraries/Peripheral/ch32v10x_usart.c:616
  }
  else
  {
    bitstatus = RESET;
    1c46:	fe042623          	sw	zero,-20(s0)
D:\WCH\代码\3-PIT%20Demo\obj/../Libraries/wch_libraries/Peripheral/ch32v10x_usart.c:618
  }
  return bitstatus;
    1c4a:	fec42783          	lw	a5,-20(s0)
D:\WCH\代码\3-PIT%20Demo\obj/../Libraries/wch_libraries/Peripheral/ch32v10x_usart.c:619
}
    1c4e:	853e                	mv	a0,a5
    1c50:	5432                	lw	s0,44(sp)
    1c52:	6145                	addi	sp,sp,48
    1c54:	8082                	ret

00001c56 <USART_GetITStatus>:
USART_GetITStatus():
D:\WCH\代码\3-PIT%20Demo\obj/../Libraries/wch_libraries/Peripheral/ch32v10x_usart.c:660
*                    USART_IT_FE: Framing Error interrupt.
*                    USART_IT_PE: Parity Error interrupt.
* Return         : bitstatus: SET or RESET.
*******************************************************************************/
ITStatus USART_GetITStatus(USART_TypeDef* USARTx, uint16_t USART_IT)
{
    1c56:	7179                	addi	sp,sp,-48
    1c58:	d622                	sw	s0,44(sp)
    1c5a:	1800                	addi	s0,sp,48
    1c5c:	fca42e23          	sw	a0,-36(s0)
    1c60:	87ae                	mv	a5,a1
    1c62:	fcf41d23          	sh	a5,-38(s0)
D:\WCH\代码\3-PIT%20Demo\obj/../Libraries/wch_libraries/Peripheral/ch32v10x_usart.c:661
  uint32_t bitpos = 0x00, itmask = 0x00, usartreg = 0x00;
    1c66:	fe042223          	sw	zero,-28(s0)
    1c6a:	fe042623          	sw	zero,-20(s0)
    1c6e:	fe042023          	sw	zero,-32(s0)
D:\WCH\代码\3-PIT%20Demo\obj/../Libraries/wch_libraries/Peripheral/ch32v10x_usart.c:662
  ITStatus bitstatus = RESET;
    1c72:	fe042423          	sw	zero,-24(s0)
D:\WCH\代码\3-PIT%20Demo\obj/../Libraries/wch_libraries/Peripheral/ch32v10x_usart.c:668

  if (USART_IT == USART_IT_CTS)
  {
  }   
  
  usartreg = (((uint8_t)USART_IT) >> 0x05);
    1c76:	fda45783          	lhu	a5,-38(s0)
    1c7a:	0ff7f793          	andi	a5,a5,255
    1c7e:	8395                	srli	a5,a5,0x5
    1c80:	0ff7f793          	andi	a5,a5,255
    1c84:	fef42023          	sw	a5,-32(s0)
D:\WCH\代码\3-PIT%20Demo\obj/../Libraries/wch_libraries/Peripheral/ch32v10x_usart.c:669
  itmask = USART_IT & IT_Mask;
    1c88:	fda45783          	lhu	a5,-38(s0)
    1c8c:	8bfd                	andi	a5,a5,31
    1c8e:	fef42623          	sw	a5,-20(s0)
D:\WCH\代码\3-PIT%20Demo\obj/../Libraries/wch_libraries/Peripheral/ch32v10x_usart.c:670
  itmask = (uint32_t)0x01 << itmask;
    1c92:	fec42783          	lw	a5,-20(s0)
    1c96:	4705                	li	a4,1
    1c98:	00f717b3          	sll	a5,a4,a5
    1c9c:	fef42623          	sw	a5,-20(s0)
D:\WCH\代码\3-PIT%20Demo\obj/../Libraries/wch_libraries/Peripheral/ch32v10x_usart.c:672
  
  if (usartreg == 0x01) 
    1ca0:	fe042703          	lw	a4,-32(s0)
    1ca4:	4785                	li	a5,1
    1ca6:	00f71f63          	bne	a4,a5,1cc4 <USART_GetITStatus+0x6e>
D:\WCH\代码\3-PIT%20Demo\obj/../Libraries/wch_libraries/Peripheral/ch32v10x_usart.c:674
  {
    itmask &= USARTx->CTLR1;
    1caa:	fdc42783          	lw	a5,-36(s0)
    1cae:	00c7d783          	lhu	a5,12(a5)
    1cb2:	07c2                	slli	a5,a5,0x10
    1cb4:	83c1                	srli	a5,a5,0x10
    1cb6:	873e                	mv	a4,a5
    1cb8:	fec42783          	lw	a5,-20(s0)
    1cbc:	8ff9                	and	a5,a5,a4
    1cbe:	fef42623          	sw	a5,-20(s0)
    1cc2:	a83d                	j	1d00 <USART_GetITStatus+0xaa>
D:\WCH\代码\3-PIT%20Demo\obj/../Libraries/wch_libraries/Peripheral/ch32v10x_usart.c:676
  }
  else if (usartreg == 0x02) 
    1cc4:	fe042703          	lw	a4,-32(s0)
    1cc8:	4789                	li	a5,2
    1cca:	00f71f63          	bne	a4,a5,1ce8 <USART_GetITStatus+0x92>
D:\WCH\代码\3-PIT%20Demo\obj/../Libraries/wch_libraries/Peripheral/ch32v10x_usart.c:678
  {
    itmask &= USARTx->CTLR2;
    1cce:	fdc42783          	lw	a5,-36(s0)
    1cd2:	0107d783          	lhu	a5,16(a5)
    1cd6:	07c2                	slli	a5,a5,0x10
    1cd8:	83c1                	srli	a5,a5,0x10
    1cda:	873e                	mv	a4,a5
    1cdc:	fec42783          	lw	a5,-20(s0)
    1ce0:	8ff9                	and	a5,a5,a4
    1ce2:	fef42623          	sw	a5,-20(s0)
    1ce6:	a829                	j	1d00 <USART_GetITStatus+0xaa>
D:\WCH\代码\3-PIT%20Demo\obj/../Libraries/wch_libraries/Peripheral/ch32v10x_usart.c:682
  }
  else 
  {
    itmask &= USARTx->CTLR3;
    1ce8:	fdc42783          	lw	a5,-36(s0)
    1cec:	0147d783          	lhu	a5,20(a5)
    1cf0:	07c2                	slli	a5,a5,0x10
    1cf2:	83c1                	srli	a5,a5,0x10
    1cf4:	873e                	mv	a4,a5
    1cf6:	fec42783          	lw	a5,-20(s0)
    1cfa:	8ff9                	and	a5,a5,a4
    1cfc:	fef42623          	sw	a5,-20(s0)
D:\WCH\代码\3-PIT%20Demo\obj/../Libraries/wch_libraries/Peripheral/ch32v10x_usart.c:685
  }
  
  bitpos = USART_IT >> 0x08;
    1d00:	fda45783          	lhu	a5,-38(s0)
    1d04:	83a1                	srli	a5,a5,0x8
    1d06:	07c2                	slli	a5,a5,0x10
    1d08:	83c1                	srli	a5,a5,0x10
    1d0a:	fef42223          	sw	a5,-28(s0)
D:\WCH\代码\3-PIT%20Demo\obj/../Libraries/wch_libraries/Peripheral/ch32v10x_usart.c:686
  bitpos = (uint32_t)0x01 << bitpos;
    1d0e:	fe442783          	lw	a5,-28(s0)
    1d12:	4705                	li	a4,1
    1d14:	00f717b3          	sll	a5,a4,a5
    1d18:	fef42223          	sw	a5,-28(s0)
D:\WCH\代码\3-PIT%20Demo\obj/../Libraries/wch_libraries/Peripheral/ch32v10x_usart.c:687
  bitpos &= USARTx->STATR;
    1d1c:	fdc42783          	lw	a5,-36(s0)
    1d20:	0007d783          	lhu	a5,0(a5)
    1d24:	07c2                	slli	a5,a5,0x10
    1d26:	83c1                	srli	a5,a5,0x10
    1d28:	873e                	mv	a4,a5
    1d2a:	fe442783          	lw	a5,-28(s0)
    1d2e:	8ff9                	and	a5,a5,a4
    1d30:	fef42223          	sw	a5,-28(s0)
D:\WCH\代码\3-PIT%20Demo\obj/../Libraries/wch_libraries/Peripheral/ch32v10x_usart.c:689
	
  if ((itmask != (uint16_t)RESET)&&(bitpos != (uint16_t)RESET))
    1d34:	fec42783          	lw	a5,-20(s0)
    1d38:	cb81                	beqz	a5,1d48 <USART_GetITStatus+0xf2>
D:\WCH\代码\3-PIT%20Demo\obj/../Libraries/wch_libraries/Peripheral/ch32v10x_usart.c:689 (discriminator 1)
    1d3a:	fe442783          	lw	a5,-28(s0)
    1d3e:	c789                	beqz	a5,1d48 <USART_GetITStatus+0xf2>
D:\WCH\代码\3-PIT%20Demo\obj/../Libraries/wch_libraries/Peripheral/ch32v10x_usart.c:691
  {
    bitstatus = SET;
    1d40:	4785                	li	a5,1
    1d42:	fef42423          	sw	a5,-24(s0)
    1d46:	a019                	j	1d4c <USART_GetITStatus+0xf6>
D:\WCH\代码\3-PIT%20Demo\obj/../Libraries/wch_libraries/Peripheral/ch32v10x_usart.c:695
  }
  else
  {
    bitstatus = RESET;
    1d48:	fe042423          	sw	zero,-24(s0)
D:\WCH\代码\3-PIT%20Demo\obj/../Libraries/wch_libraries/Peripheral/ch32v10x_usart.c:698
  }
  
  return bitstatus;  
    1d4c:	fe842783          	lw	a5,-24(s0)
D:\WCH\代码\3-PIT%20Demo\obj/../Libraries/wch_libraries/Peripheral/ch32v10x_usart.c:699
}
    1d50:	853e                	mv	a0,a5
    1d52:	5432                	lw	s0,44(sp)
    1d54:	6145                	addi	sp,sp,48
    1d56:	8082                	ret

00001d58 <USART_ClearITPendingBit>:
USART_ClearITPendingBit():
D:\WCH\代码\3-PIT%20Demo\obj/../Libraries/wch_libraries/Peripheral/ch32v10x_usart.c:713
*                    USART_IT_TC:   Transmission complete interrupt.
*                    USART_IT_RXNE: Receive Data register not empty interrupt.
* Return         : None
*******************************************************************************/
void USART_ClearITPendingBit(USART_TypeDef* USARTx, uint16_t USART_IT)
{
    1d58:	7179                	addi	sp,sp,-48
    1d5a:	d622                	sw	s0,44(sp)
    1d5c:	1800                	addi	s0,sp,48
    1d5e:	fca42e23          	sw	a0,-36(s0)
    1d62:	87ae                	mv	a5,a1
    1d64:	fcf41d23          	sh	a5,-38(s0)
D:\WCH\代码\3-PIT%20Demo\obj/../Libraries/wch_libraries/Peripheral/ch32v10x_usart.c:714
  uint16_t bitpos = 0x00, itmask = 0x00;
    1d68:	fe041723          	sh	zero,-18(s0)
    1d6c:	fe041623          	sh	zero,-20(s0)
D:\WCH\代码\3-PIT%20Demo\obj/../Libraries/wch_libraries/Peripheral/ch32v10x_usart.c:720

  if (USART_IT == USART_IT_CTS)
  {
  }   
  
  bitpos = USART_IT >> 0x08;
    1d70:	fda45783          	lhu	a5,-38(s0)
    1d74:	83a1                	srli	a5,a5,0x8
    1d76:	fef41723          	sh	a5,-18(s0)
D:\WCH\代码\3-PIT%20Demo\obj/../Libraries/wch_libraries/Peripheral/ch32v10x_usart.c:721
  itmask = ((uint16_t)0x01 << (uint16_t)bitpos);
    1d7a:	fee45783          	lhu	a5,-18(s0)
    1d7e:	4705                	li	a4,1
    1d80:	00f717b3          	sll	a5,a4,a5
    1d84:	fef41623          	sh	a5,-20(s0)
D:\WCH\代码\3-PIT%20Demo\obj/../Libraries/wch_libraries/Peripheral/ch32v10x_usart.c:722
  USARTx->STATR = (uint16_t)~itmask;
    1d88:	fec45783          	lhu	a5,-20(s0)
    1d8c:	fff7c793          	not	a5,a5
    1d90:	01079713          	slli	a4,a5,0x10
    1d94:	8341                	srli	a4,a4,0x10
    1d96:	fdc42783          	lw	a5,-36(s0)
    1d9a:	00e79023          	sh	a4,0(a5)
D:\WCH\代码\3-PIT%20Demo\obj/../Libraries/wch_libraries/Peripheral/ch32v10x_usart.c:723
}
    1d9e:	0001                	nop
    1da0:	5432                	lw	s0,44(sp)
    1da2:	6145                	addi	sp,sp,48
    1da4:	8082                	ret

00001da6 <spi_wr_byte>:
spi_wr_byte():
D:\WCH\代码\3-pit%20demo\obj/../Libraries/seekfree_peripheral/SEEKFREE_ABSOLUTE_ENCODER.c:41
//  @return     uint8       return 返回status状态
//  @since      v1.0
//  Sample usage:
//-------------------------------------------------------------------------------------------------------------------
uint8 spi_wr_byte(uint8 byte)
{
    1da6:	1101                	addi	sp,sp,-32
    1da8:	ce06                	sw	ra,28(sp)
    1daa:	cc22                	sw	s0,24(sp)
    1dac:	1000                	addi	s0,sp,32
    1dae:	87aa                	mv	a5,a0
    1db0:	fef407a3          	sb	a5,-17(s0)
D:\WCH\代码\3-pit%20demo\obj/../Libraries/seekfree_peripheral/SEEKFREE_ABSOLUTE_ENCODER.c:42
    spi_mosi(ABS_ENCODER_SPI_NUM, &byte, &byte, 1);
    1db4:	fef40713          	addi	a4,s0,-17
    1db8:	fef40793          	addi	a5,s0,-17
    1dbc:	4685                	li	a3,1
    1dbe:	863a                	mv	a2,a4
    1dc0:	85be                	mv	a1,a5
    1dc2:	4505                	li	a0,1
    1dc4:	355010ef          	jal	ra,3918 <spi_mosi>
D:\WCH\代码\3-pit%20demo\obj/../Libraries/seekfree_peripheral/SEEKFREE_ABSOLUTE_ENCODER.c:43
    return(byte);
    1dc8:	fef44783          	lbu	a5,-17(s0)
D:\WCH\代码\3-pit%20demo\obj/../Libraries/seekfree_peripheral/SEEKFREE_ABSOLUTE_ENCODER.c:44
}
    1dcc:	853e                	mv	a0,a5
    1dce:	40f2                	lw	ra,28(sp)
    1dd0:	4462                	lw	s0,24(sp)
    1dd2:	6105                	addi	sp,sp,32
    1dd4:	8082                	ret

00001dd6 <encoder_spi_w_reg_byte>:
encoder_spi_w_reg_byte():
D:\WCH\代码\3-pit%20demo\obj/../Libraries/seekfree_peripheral/SEEKFREE_ABSOLUTE_ENCODER.c:88
//  @return     uint8       0：程序  1：失败
//  @since      v1.0
//  Sample usage:
//-------------------------------------------------------------------------------------------------------------------
uint8 encoder_spi_w_reg_byte(uint8 cmd, uint8 val, PIN_enum cs_pin)
{
    1dd6:	7179                	addi	sp,sp,-48
    1dd8:	d606                	sw	ra,44(sp)
    1dda:	d422                	sw	s0,40(sp)
    1ddc:	1800                	addi	s0,sp,48
    1dde:	87aa                	mv	a5,a0
    1de0:	872e                	mv	a4,a1
    1de2:	fcc42c23          	sw	a2,-40(s0)
    1de6:	fcf40fa3          	sb	a5,-33(s0)
    1dea:	87ba                	mv	a5,a4
    1dec:	fcf40f23          	sb	a5,-34(s0)
D:\WCH\代码\3-pit%20demo\obj/../Libraries/seekfree_peripheral/SEEKFREE_ABSOLUTE_ENCODER.c:90
    uint8 dat;
    GPIO_PIN_RESET(cs_pin);
    1df0:	fd842783          	lw	a5,-40(s0)
    1df4:	8bfd                	andi	a5,a5,31
    1df6:	4705                	li	a4,1
    1df8:	00f717b3          	sll	a5,a4,a5
    1dfc:	01079693          	slli	a3,a5,0x10
    1e00:	82c1                	srli	a3,a3,0x10
    1e02:	fd842783          	lw	a5,-40(s0)
    1e06:	8395                	srli	a5,a5,0x5
    1e08:	0ff7f793          	andi	a5,a5,255
    1e0c:	0077f713          	andi	a4,a5,7
    1e10:	679d                	lui	a5,0x7
    1e12:	070a                	slli	a4,a4,0x2
    1e14:	9c878793          	addi	a5,a5,-1592 # 69c8 <GPION>
    1e18:	97ba                	add	a5,a5,a4
    1e1a:	439c                	lw	a5,0(a5)
    1e1c:	8736                	mv	a4,a3
    1e1e:	cbd8                	sw	a4,20(a5)
D:\WCH\代码\3-pit%20demo\obj/../Libraries/seekfree_peripheral/SEEKFREE_ABSOLUTE_ENCODER.c:91
    cmd |= ABS_ENCODER_SPI_W;
    1e20:	fdf44783          	lbu	a5,-33(s0)
    1e24:	f807e793          	ori	a5,a5,-128
    1e28:	fcf40fa3          	sb	a5,-33(s0)
D:\WCH\代码\3-pit%20demo\obj/../Libraries/seekfree_peripheral/SEEKFREE_ABSOLUTE_ENCODER.c:92
    spi_wr_byte(cmd);
    1e2c:	fdf44783          	lbu	a5,-33(s0)
    1e30:	853e                	mv	a0,a5
    1e32:	3f95                	jal	1da6 <spi_wr_byte>
D:\WCH\代码\3-pit%20demo\obj/../Libraries/seekfree_peripheral/SEEKFREE_ABSOLUTE_ENCODER.c:93
    spi_wr_byte(val);
    1e34:	fde44783          	lbu	a5,-34(s0)
    1e38:	853e                	mv	a0,a5
    1e3a:	37b5                	jal	1da6 <spi_wr_byte>
D:\WCH\代码\3-pit%20demo\obj/../Libraries/seekfree_peripheral/SEEKFREE_ABSOLUTE_ENCODER.c:94
    GPIO_PIN_SET(cs_pin);
    1e3c:	fd842783          	lw	a5,-40(s0)
    1e40:	8bfd                	andi	a5,a5,31
    1e42:	4705                	li	a4,1
    1e44:	00f717b3          	sll	a5,a4,a5
    1e48:	01079693          	slli	a3,a5,0x10
    1e4c:	82c1                	srli	a3,a3,0x10
    1e4e:	fd842783          	lw	a5,-40(s0)
    1e52:	8395                	srli	a5,a5,0x5
    1e54:	0ff7f793          	andi	a5,a5,255
    1e58:	0077f713          	andi	a4,a5,7
    1e5c:	679d                	lui	a5,0x7
    1e5e:	070a                	slli	a4,a4,0x2
    1e60:	9c878793          	addi	a5,a5,-1592 # 69c8 <GPION>
    1e64:	97ba                	add	a5,a5,a4
    1e66:	439c                	lw	a5,0(a5)
    1e68:	8736                	mv	a4,a3
    1e6a:	cb98                	sw	a4,16(a5)
D:\WCH\代码\3-pit%20demo\obj/../Libraries/seekfree_peripheral/SEEKFREE_ABSOLUTE_ENCODER.c:95
    systick_delay_us(1);
    1e6c:	4505                	li	a0,1
    1e6e:	36d010ef          	jal	ra,39da <systick_delay>
D:\WCH\代码\3-pit%20demo\obj/../Libraries/seekfree_peripheral/SEEKFREE_ABSOLUTE_ENCODER.c:96
    GPIO_PIN_RESET(cs_pin);
    1e72:	fd842783          	lw	a5,-40(s0)
    1e76:	8bfd                	andi	a5,a5,31
    1e78:	4705                	li	a4,1
    1e7a:	00f717b3          	sll	a5,a4,a5
    1e7e:	01079693          	slli	a3,a5,0x10
    1e82:	82c1                	srli	a3,a3,0x10
    1e84:	fd842783          	lw	a5,-40(s0)
    1e88:	8395                	srli	a5,a5,0x5
    1e8a:	0ff7f793          	andi	a5,a5,255
    1e8e:	0077f713          	andi	a4,a5,7
    1e92:	679d                	lui	a5,0x7
    1e94:	070a                	slli	a4,a4,0x2
    1e96:	9c878793          	addi	a5,a5,-1592 # 69c8 <GPION>
    1e9a:	97ba                	add	a5,a5,a4
    1e9c:	439c                	lw	a5,0(a5)
    1e9e:	8736                	mv	a4,a3
    1ea0:	cbd8                	sw	a4,20(a5)
D:\WCH\代码\3-pit%20demo\obj/../Libraries/seekfree_peripheral/SEEKFREE_ABSOLUTE_ENCODER.c:97
    dat = spi_wr_byte(0x00);
    1ea2:	4501                	li	a0,0
    1ea4:	3709                	jal	1da6 <spi_wr_byte>
    1ea6:	87aa                	mv	a5,a0
    1ea8:	fef407a3          	sb	a5,-17(s0)
D:\WCH\代码\3-pit%20demo\obj/../Libraries/seekfree_peripheral/SEEKFREE_ABSOLUTE_ENCODER.c:98
    spi_wr_byte(0x00);
    1eac:	4501                	li	a0,0
    1eae:	3de5                	jal	1da6 <spi_wr_byte>
D:\WCH\代码\3-pit%20demo\obj/../Libraries/seekfree_peripheral/SEEKFREE_ABSOLUTE_ENCODER.c:99
    GPIO_PIN_SET(cs_pin);
    1eb0:	fd842783          	lw	a5,-40(s0)
    1eb4:	8bfd                	andi	a5,a5,31
    1eb6:	4705                	li	a4,1
    1eb8:	00f717b3          	sll	a5,a4,a5
    1ebc:	01079693          	slli	a3,a5,0x10
    1ec0:	82c1                	srli	a3,a3,0x10
    1ec2:	fd842783          	lw	a5,-40(s0)
    1ec6:	8395                	srli	a5,a5,0x5
    1ec8:	0ff7f793          	andi	a5,a5,255
    1ecc:	0077f713          	andi	a4,a5,7
    1ed0:	679d                	lui	a5,0x7
    1ed2:	070a                	slli	a4,a4,0x2
    1ed4:	9c878793          	addi	a5,a5,-1592 # 69c8 <GPION>
    1ed8:	97ba                	add	a5,a5,a4
    1eda:	439c                	lw	a5,0(a5)
    1edc:	8736                	mv	a4,a3
    1ede:	cb98                	sw	a4,16(a5)
D:\WCH\代码\3-pit%20demo\obj/../Libraries/seekfree_peripheral/SEEKFREE_ABSOLUTE_ENCODER.c:101
    
    if(val != dat)  return 1;   //写入失败
    1ee0:	fde44703          	lbu	a4,-34(s0)
    1ee4:	fef44783          	lbu	a5,-17(s0)
    1ee8:	00f70463          	beq	a4,a5,1ef0 <encoder_spi_w_reg_byte+0x11a>
D:\WCH\代码\3-pit%20demo\obj/../Libraries/seekfree_peripheral/SEEKFREE_ABSOLUTE_ENCODER.c:101 (discriminator 1)
    1eec:	4785                	li	a5,1
    1eee:	a011                	j	1ef2 <encoder_spi_w_reg_byte+0x11c>
D:\WCH\代码\3-pit%20demo\obj/../Libraries/seekfree_peripheral/SEEKFREE_ABSOLUTE_ENCODER.c:102
    return 0;                   //写入成功
    1ef0:	4781                	li	a5,0
D:\WCH\代码\3-pit%20demo\obj/../Libraries/seekfree_peripheral/SEEKFREE_ABSOLUTE_ENCODER.c:103
}
    1ef2:	853e                	mv	a0,a5
    1ef4:	50b2                	lw	ra,44(sp)
    1ef6:	5422                	lw	s0,40(sp)
    1ef8:	6145                	addi	sp,sp,48
    1efa:	8082                	ret

00001efc <encoder_spi_r_reg_byte>:
encoder_spi_r_reg_byte():
D:\WCH\代码\3-pit%20demo\obj/../Libraries/seekfree_peripheral/SEEKFREE_ABSOLUTE_ENCODER.c:114
//  @return     void
//  @since      v1.0
//  Sample usage:
//-------------------------------------------------------------------------------------------------------------------
void encoder_spi_r_reg_byte(uint8 cmd, uint8 *val, PIN_enum cs_pin)
{
    1efc:	1101                	addi	sp,sp,-32
    1efe:	ce06                	sw	ra,28(sp)
    1f00:	cc22                	sw	s0,24(sp)
    1f02:	1000                	addi	s0,sp,32
    1f04:	87aa                	mv	a5,a0
    1f06:	feb42423          	sw	a1,-24(s0)
    1f0a:	fec42223          	sw	a2,-28(s0)
    1f0e:	fef407a3          	sb	a5,-17(s0)
D:\WCH\代码\3-pit%20demo\obj/../Libraries/seekfree_peripheral/SEEKFREE_ABSOLUTE_ENCODER.c:115
    GPIO_PIN_RESET(cs_pin);
    1f12:	fe442783          	lw	a5,-28(s0)
    1f16:	8bfd                	andi	a5,a5,31
    1f18:	4705                	li	a4,1
    1f1a:	00f717b3          	sll	a5,a4,a5
    1f1e:	01079693          	slli	a3,a5,0x10
    1f22:	82c1                	srli	a3,a3,0x10
    1f24:	fe442783          	lw	a5,-28(s0)
    1f28:	8395                	srli	a5,a5,0x5
    1f2a:	0ff7f793          	andi	a5,a5,255
    1f2e:	0077f713          	andi	a4,a5,7
    1f32:	679d                	lui	a5,0x7
    1f34:	070a                	slli	a4,a4,0x2
    1f36:	9c878793          	addi	a5,a5,-1592 # 69c8 <GPION>
    1f3a:	97ba                	add	a5,a5,a4
    1f3c:	439c                	lw	a5,0(a5)
    1f3e:	8736                	mv	a4,a3
    1f40:	cbd8                	sw	a4,20(a5)
D:\WCH\代码\3-pit%20demo\obj/../Libraries/seekfree_peripheral/SEEKFREE_ABSOLUTE_ENCODER.c:116
    cmd |= ABS_ENCODER_SPI_R;
    1f42:	fef44783          	lbu	a5,-17(s0)
    1f46:	0407e793          	ori	a5,a5,64
    1f4a:	fef407a3          	sb	a5,-17(s0)
D:\WCH\代码\3-pit%20demo\obj/../Libraries/seekfree_peripheral/SEEKFREE_ABSOLUTE_ENCODER.c:117
    spi_wr_byte(cmd);
    1f4e:	fef44783          	lbu	a5,-17(s0)
    1f52:	853e                	mv	a0,a5
    1f54:	3d89                	jal	1da6 <spi_wr_byte>
D:\WCH\代码\3-pit%20demo\obj/../Libraries/seekfree_peripheral/SEEKFREE_ABSOLUTE_ENCODER.c:118
    spi_wr_byte(0x00);
    1f56:	4501                	li	a0,0
    1f58:	35b9                	jal	1da6 <spi_wr_byte>
D:\WCH\代码\3-pit%20demo\obj/../Libraries/seekfree_peripheral/SEEKFREE_ABSOLUTE_ENCODER.c:120

    GPIO_PIN_SET(cs_pin);
    1f5a:	fe442783          	lw	a5,-28(s0)
    1f5e:	8bfd                	andi	a5,a5,31
    1f60:	4705                	li	a4,1
    1f62:	00f717b3          	sll	a5,a4,a5
    1f66:	01079693          	slli	a3,a5,0x10
    1f6a:	82c1                	srli	a3,a3,0x10
    1f6c:	fe442783          	lw	a5,-28(s0)
    1f70:	8395                	srli	a5,a5,0x5
    1f72:	0ff7f793          	andi	a5,a5,255
    1f76:	0077f713          	andi	a4,a5,7
    1f7a:	679d                	lui	a5,0x7
    1f7c:	070a                	slli	a4,a4,0x2
    1f7e:	9c878793          	addi	a5,a5,-1592 # 69c8 <GPION>
    1f82:	97ba                	add	a5,a5,a4
    1f84:	439c                	lw	a5,0(a5)
    1f86:	8736                	mv	a4,a3
    1f88:	cb98                	sw	a4,16(a5)
D:\WCH\代码\3-pit%20demo\obj/../Libraries/seekfree_peripheral/SEEKFREE_ABSOLUTE_ENCODER.c:121
    systick_delay_us(1);
    1f8a:	4505                	li	a0,1
    1f8c:	24f010ef          	jal	ra,39da <systick_delay>
D:\WCH\代码\3-pit%20demo\obj/../Libraries/seekfree_peripheral/SEEKFREE_ABSOLUTE_ENCODER.c:122
    GPIO_PIN_RESET(cs_pin);
    1f90:	fe442783          	lw	a5,-28(s0)
    1f94:	8bfd                	andi	a5,a5,31
    1f96:	4705                	li	a4,1
    1f98:	00f717b3          	sll	a5,a4,a5
    1f9c:	01079693          	slli	a3,a5,0x10
    1fa0:	82c1                	srli	a3,a3,0x10
    1fa2:	fe442783          	lw	a5,-28(s0)
    1fa6:	8395                	srli	a5,a5,0x5
    1fa8:	0ff7f793          	andi	a5,a5,255
    1fac:	0077f713          	andi	a4,a5,7
    1fb0:	679d                	lui	a5,0x7
    1fb2:	070a                	slli	a4,a4,0x2
    1fb4:	9c878793          	addi	a5,a5,-1592 # 69c8 <GPION>
    1fb8:	97ba                	add	a5,a5,a4
    1fba:	439c                	lw	a5,0(a5)
    1fbc:	8736                	mv	a4,a3
    1fbe:	cbd8                	sw	a4,20(a5)
D:\WCH\代码\3-pit%20demo\obj/../Libraries/seekfree_peripheral/SEEKFREE_ABSOLUTE_ENCODER.c:123
    *val = spi_wr_byte(0x00);
    1fc0:	4501                	li	a0,0
    1fc2:	33d5                	jal	1da6 <spi_wr_byte>
    1fc4:	87aa                	mv	a5,a0
    1fc6:	873e                	mv	a4,a5
    1fc8:	fe842783          	lw	a5,-24(s0)
    1fcc:	00e78023          	sb	a4,0(a5)
D:\WCH\代码\3-pit%20demo\obj/../Libraries/seekfree_peripheral/SEEKFREE_ABSOLUTE_ENCODER.c:124
    spi_wr_byte(0x00);
    1fd0:	4501                	li	a0,0
    1fd2:	3bd1                	jal	1da6 <spi_wr_byte>
D:\WCH\代码\3-pit%20demo\obj/../Libraries/seekfree_peripheral/SEEKFREE_ABSOLUTE_ENCODER.c:125
    GPIO_PIN_SET(cs_pin);
    1fd4:	fe442783          	lw	a5,-28(s0)
    1fd8:	8bfd                	andi	a5,a5,31
    1fda:	4705                	li	a4,1
    1fdc:	00f717b3          	sll	a5,a4,a5
    1fe0:	01079693          	slli	a3,a5,0x10
    1fe4:	82c1                	srli	a3,a3,0x10
    1fe6:	fe442783          	lw	a5,-28(s0)
    1fea:	8395                	srli	a5,a5,0x5
    1fec:	0ff7f793          	andi	a5,a5,255
    1ff0:	0077f713          	andi	a4,a5,7
    1ff4:	679d                	lui	a5,0x7
    1ff6:	070a                	slli	a4,a4,0x2
    1ff8:	9c878793          	addi	a5,a5,-1592 # 69c8 <GPION>
    1ffc:	97ba                	add	a5,a5,a4
    1ffe:	439c                	lw	a5,0(a5)
    2000:	8736                	mv	a4,a3
    2002:	cb98                	sw	a4,16(a5)
D:\WCH\代码\3-pit%20demo\obj/../Libraries/seekfree_peripheral/SEEKFREE_ABSOLUTE_ENCODER.c:126
}
    2004:	0001                	nop
    2006:	40f2                	lw	ra,28(sp)
    2008:	4462                	lw	s0,24(sp)
    200a:	6105                	addi	sp,sp,32
    200c:	8082                	ret

0000200e <set_zero_position_spi>:
set_zero_position_spi():
D:\WCH\代码\3-pit%20demo\obj/../Libraries/seekfree_peripheral/SEEKFREE_ABSOLUTE_ENCODER.c:136
//  @return     void
//  @since      v1.0
//  Sample usage:
//-------------------------------------------------------------------------------------------------------------------
void set_zero_position_spi(uint16 zero_position, PIN_enum cs_pin)
{    
    200e:	1101                	addi	sp,sp,-32
    2010:	ce06                	sw	ra,28(sp)
    2012:	cc22                	sw	s0,24(sp)
    2014:	1000                	addi	s0,sp,32
    2016:	87aa                	mv	a5,a0
    2018:	feb42423          	sw	a1,-24(s0)
    201c:	fef41723          	sh	a5,-18(s0)
D:\WCH\代码\3-pit%20demo\obj/../Libraries/seekfree_peripheral/SEEKFREE_ABSOLUTE_ENCODER.c:137
    zero_position = (uint16)(4096 - zero_position);
    2020:	fee45783          	lhu	a5,-18(s0)
    2024:	6705                	lui	a4,0x1
    2026:	40f707b3          	sub	a5,a4,a5
    202a:	fef41723          	sh	a5,-18(s0)
D:\WCH\代码\3-pit%20demo\obj/../Libraries/seekfree_peripheral/SEEKFREE_ABSOLUTE_ENCODER.c:138
    zero_position = zero_position << 4;
    202e:	fee45783          	lhu	a5,-18(s0)
    2032:	0792                	slli	a5,a5,0x4
    2034:	fef41723          	sh	a5,-18(s0)
D:\WCH\代码\3-pit%20demo\obj/../Libraries/seekfree_peripheral/SEEKFREE_ABSOLUTE_ENCODER.c:139
    encoder_spi_w_reg_byte(ZERO_L_REG,(uint8)zero_position, cs_pin);//设置零位
    2038:	fee45783          	lhu	a5,-18(s0)
    203c:	0ff7f793          	andi	a5,a5,255
    2040:	fe842603          	lw	a2,-24(s0)
    2044:	85be                	mv	a1,a5
    2046:	4501                	li	a0,0
    2048:	3379                	jal	1dd6 <encoder_spi_w_reg_byte>
D:\WCH\代码\3-pit%20demo\obj/../Libraries/seekfree_peripheral/SEEKFREE_ABSOLUTE_ENCODER.c:140
    encoder_spi_w_reg_byte(ZERO_H_REG,zero_position>>8, cs_pin);
    204a:	fee45783          	lhu	a5,-18(s0)
    204e:	83a1                	srli	a5,a5,0x8
    2050:	07c2                	slli	a5,a5,0x10
    2052:	83c1                	srli	a5,a5,0x10
    2054:	0ff7f793          	andi	a5,a5,255
    2058:	fe842603          	lw	a2,-24(s0)
    205c:	85be                	mv	a1,a5
    205e:	4505                	li	a0,1
    2060:	3b9d                	jal	1dd6 <encoder_spi_w_reg_byte>
D:\WCH\代码\3-pit%20demo\obj/../Libraries/seekfree_peripheral/SEEKFREE_ABSOLUTE_ENCODER.c:141
}
    2062:	0001                	nop
    2064:	40f2                	lw	ra,28(sp)
    2066:	4462                	lw	s0,24(sp)
    2068:	6105                	addi	sp,sp,32
    206a:	8082                	ret

0000206c <encoder1_speed_spi>:
encoder1_speed_spi():
D:\WCH\代码\3-pit%20demo\obj/../Libraries/seekfree_peripheral/SEEKFREE_ABSOLUTE_ENCODER.c:172
//  @return     uint16       返回角度值0-1023
//  @since      v1.0
//  Sample usage:
//-------------------------------------------------------------------------------------------------------------------
int16 encoder1_speed_spi(PIN_enum cs_pin)
{    static uint16 old_angle ,new_angle;
    206c:	7179                	addi	sp,sp,-48
    206e:	d606                	sw	ra,44(sp)
    2070:	d422                	sw	s0,40(sp)
    2072:	1800                	addi	s0,sp,48
    2074:	fca42e23          	sw	a0,-36(s0)
D:\WCH\代码\3-pit%20demo\obj/../Libraries/seekfree_peripheral/SEEKFREE_ABSOLUTE_ENCODER.c:176
    uint16 angle_diff;

    //获取本次角度数据
    GPIO_PIN_RESET(cs_pin);
    2078:	fdc42783          	lw	a5,-36(s0)
    207c:	8bfd                	andi	a5,a5,31
    207e:	4705                	li	a4,1
    2080:	00f717b3          	sll	a5,a4,a5
    2084:	01079693          	slli	a3,a5,0x10
    2088:	82c1                	srli	a3,a3,0x10
    208a:	fdc42783          	lw	a5,-36(s0)
    208e:	8395                	srli	a5,a5,0x5
    2090:	0ff7f793          	andi	a5,a5,255
    2094:	0077f713          	andi	a4,a5,7
    2098:	679d                	lui	a5,0x7
    209a:	070a                	slli	a4,a4,0x2
    209c:	9c878793          	addi	a5,a5,-1592 # 69c8 <GPION>
    20a0:	97ba                	add	a5,a5,a4
    20a2:	439c                	lw	a5,0(a5)
    20a4:	8736                	mv	a4,a3
    20a6:	cbd8                	sw	a4,20(a5)
D:\WCH\代码\3-pit%20demo\obj/../Libraries/seekfree_peripheral/SEEKFREE_ABSOLUTE_ENCODER.c:177
    new_angle = (uint16)spi_wr_byte(0x00);
    20a8:	4501                	li	a0,0
    20aa:	39f5                	jal	1da6 <spi_wr_byte>
    20ac:	87aa                	mv	a5,a0
    20ae:	01079713          	slli	a4,a5,0x10
    20b2:	8341                	srli	a4,a4,0x10
    20b4:	80e19e23          	sh	a4,-2020(gp) # 200000a4 <new_angle.5740>
D:\WCH\代码\3-pit%20demo\obj/../Libraries/seekfree_peripheral/SEEKFREE_ABSOLUTE_ENCODER.c:178
    new_angle <<= 8;                           //存储高八位
    20b8:	81c1d783          	lhu	a5,-2020(gp) # 200000a4 <new_angle.5740>
    20bc:	07a2                	slli	a5,a5,0x8
    20be:	01079713          	slli	a4,a5,0x10
    20c2:	8341                	srli	a4,a4,0x10
    20c4:	80e19e23          	sh	a4,-2020(gp) # 200000a4 <new_angle.5740>
D:\WCH\代码\3-pit%20demo\obj/../Libraries/seekfree_peripheral/SEEKFREE_ABSOLUTE_ENCODER.c:179
    new_angle |= (uint16)spi_wr_byte(0x00);    //存储低八位
    20c8:	4501                	li	a0,0
    20ca:	39f1                	jal	1da6 <spi_wr_byte>
    20cc:	87aa                	mv	a5,a0
    20ce:	01079713          	slli	a4,a5,0x10
    20d2:	8341                	srli	a4,a4,0x10
    20d4:	81c1d783          	lhu	a5,-2020(gp) # 200000a4 <new_angle.5740>
    20d8:	8fd9                	or	a5,a5,a4
    20da:	01079713          	slli	a4,a5,0x10
    20de:	8341                	srli	a4,a4,0x10
    20e0:	80e19e23          	sh	a4,-2020(gp) # 200000a4 <new_angle.5740>
D:\WCH\代码\3-pit%20demo\obj/../Libraries/seekfree_peripheral/SEEKFREE_ABSOLUTE_ENCODER.c:180
    GPIO_PIN_SET(cs_pin);
    20e4:	fdc42783          	lw	a5,-36(s0)
    20e8:	8bfd                	andi	a5,a5,31
    20ea:	4705                	li	a4,1
    20ec:	00f717b3          	sll	a5,a4,a5
    20f0:	01079693          	slli	a3,a5,0x10
    20f4:	82c1                	srli	a3,a3,0x10
    20f6:	fdc42783          	lw	a5,-36(s0)
    20fa:	8395                	srli	a5,a5,0x5
    20fc:	0ff7f793          	andi	a5,a5,255
    2100:	0077f713          	andi	a4,a5,7
    2104:	679d                	lui	a5,0x7
    2106:	070a                	slli	a4,a4,0x2
    2108:	9c878793          	addi	a5,a5,-1592 # 69c8 <GPION>
    210c:	97ba                	add	a5,a5,a4
    210e:	439c                	lw	a5,0(a5)
    2110:	8736                	mv	a4,a3
    2112:	cb98                	sw	a4,16(a5)
D:\WCH\代码\3-pit%20demo\obj/../Libraries/seekfree_peripheral/SEEKFREE_ABSOLUTE_ENCODER.c:181
    new_angle >>= 6;
    2114:	81c1d783          	lhu	a5,-2020(gp) # 200000a4 <new_angle.5740>
    2118:	8399                	srli	a5,a5,0x6
    211a:	01079713          	slli	a4,a5,0x10
    211e:	8341                	srli	a4,a4,0x10
    2120:	80e19e23          	sh	a4,-2020(gp) # 200000a4 <new_angle.5740>
D:\WCH\代码\3-pit%20demo\obj/../Libraries/seekfree_peripheral/SEEKFREE_ABSOLUTE_ENCODER.c:183

    angle_diff = (old_angle - new_angle)&0x3ff;
    2124:	81e1d703          	lhu	a4,-2018(gp) # 200000a6 <old_angle.5739>
    2128:	81c1d783          	lhu	a5,-2020(gp) # 200000a4 <new_angle.5740>
    212c:	40f707b3          	sub	a5,a4,a5
    2130:	07c2                	slli	a5,a5,0x10
    2132:	83c1                	srli	a5,a5,0x10
    2134:	3ff7f793          	andi	a5,a5,1023
    2138:	fef41723          	sh	a5,-18(s0)
D:\WCH\代码\3-pit%20demo\obj/../Libraries/seekfree_peripheral/SEEKFREE_ABSOLUTE_ENCODER.c:184
    old_angle = new_angle;                      //保存这次
    213c:	81c1d703          	lhu	a4,-2020(gp) # 200000a4 <new_angle.5740>
    2140:	80e19f23          	sh	a4,-2018(gp) # 200000a6 <old_angle.5739>
D:\WCH\代码\3-pit%20demo\obj/../Libraries/seekfree_peripheral/SEEKFREE_ABSOLUTE_ENCODER.c:187


    return ((int16)angle_diff - ((angle_diff & 0x200)<<1));
    2144:	fee45783          	lhu	a5,-18(s0)
    2148:	0786                	slli	a5,a5,0x1
    214a:	07c2                	slli	a5,a5,0x10
    214c:	83c1                	srli	a5,a5,0x10
    214e:	4007f793          	andi	a5,a5,1024
    2152:	07c2                	slli	a5,a5,0x10
    2154:	83c1                	srli	a5,a5,0x10
    2156:	fee45703          	lhu	a4,-18(s0)
    215a:	40f707b3          	sub	a5,a4,a5
    215e:	07c2                	slli	a5,a5,0x10
    2160:	83c1                	srli	a5,a5,0x10
    2162:	07c2                	slli	a5,a5,0x10
    2164:	87c1                	srai	a5,a5,0x10
D:\WCH\代码\3-pit%20demo\obj/../Libraries/seekfree_peripheral/SEEKFREE_ABSOLUTE_ENCODER.c:188
}
    2166:	853e                	mv	a0,a5
    2168:	50b2                	lw	ra,44(sp)
    216a:	5422                	lw	s0,40(sp)
    216c:	6145                	addi	sp,sp,48
    216e:	8082                	ret

00002170 <encoder2_speed_spi>:
encoder2_speed_spi():
D:\WCH\代码\3-pit%20demo\obj/../Libraries/seekfree_peripheral/SEEKFREE_ABSOLUTE_ENCODER.c:198
//  @return     uint16       返回角度值0-1023
//  @since      v1.0
//  Sample usage:
//-------------------------------------------------------------------------------------------------------------------
int16 encoder2_speed_spi(PIN_enum cs_pin)
{
    2170:	7179                	addi	sp,sp,-48
    2172:	d606                	sw	ra,44(sp)
    2174:	d422                	sw	s0,40(sp)
    2176:	1800                	addi	s0,sp,48
    2178:	fca42e23          	sw	a0,-36(s0)
D:\WCH\代码\3-pit%20demo\obj/../Libraries/seekfree_peripheral/SEEKFREE_ABSOLUTE_ENCODER.c:203
    static uint16 old_angle ,new_angle;
    uint16 angle_diff;

    //获取本次角度数据
    GPIO_PIN_RESET(cs_pin);
    217c:	fdc42783          	lw	a5,-36(s0)
    2180:	8bfd                	andi	a5,a5,31
    2182:	4705                	li	a4,1
    2184:	00f717b3          	sll	a5,a4,a5
    2188:	01079693          	slli	a3,a5,0x10
    218c:	82c1                	srli	a3,a3,0x10
    218e:	fdc42783          	lw	a5,-36(s0)
    2192:	8395                	srli	a5,a5,0x5
    2194:	0ff7f793          	andi	a5,a5,255
    2198:	0077f713          	andi	a4,a5,7
    219c:	679d                	lui	a5,0x7
    219e:	070a                	slli	a4,a4,0x2
    21a0:	9c878793          	addi	a5,a5,-1592 # 69c8 <GPION>
    21a4:	97ba                	add	a5,a5,a4
    21a6:	439c                	lw	a5,0(a5)
    21a8:	8736                	mv	a4,a3
    21aa:	cbd8                	sw	a4,20(a5)
D:\WCH\代码\3-pit%20demo\obj/../Libraries/seekfree_peripheral/SEEKFREE_ABSOLUTE_ENCODER.c:204
    new_angle = (uint16)spi_wr_byte(0x00);
    21ac:	4501                	li	a0,0
    21ae:	3ee5                	jal	1da6 <spi_wr_byte>
    21b0:	87aa                	mv	a5,a0
    21b2:	01079713          	slli	a4,a5,0x10
    21b6:	8341                	srli	a4,a4,0x10
    21b8:	82e19023          	sh	a4,-2016(gp) # 200000a8 <new_angle.5746>
D:\WCH\代码\3-pit%20demo\obj/../Libraries/seekfree_peripheral/SEEKFREE_ABSOLUTE_ENCODER.c:205
    new_angle <<= 8;                           //存储高八位
    21bc:	8201d783          	lhu	a5,-2016(gp) # 200000a8 <new_angle.5746>
    21c0:	07a2                	slli	a5,a5,0x8
    21c2:	01079713          	slli	a4,a5,0x10
    21c6:	8341                	srli	a4,a4,0x10
    21c8:	82e19023          	sh	a4,-2016(gp) # 200000a8 <new_angle.5746>
D:\WCH\代码\3-pit%20demo\obj/../Libraries/seekfree_peripheral/SEEKFREE_ABSOLUTE_ENCODER.c:206
    new_angle |= (uint16)spi_wr_byte(0x00);    //存储低八位
    21cc:	4501                	li	a0,0
    21ce:	3ee1                	jal	1da6 <spi_wr_byte>
    21d0:	87aa                	mv	a5,a0
    21d2:	01079713          	slli	a4,a5,0x10
    21d6:	8341                	srli	a4,a4,0x10
    21d8:	8201d783          	lhu	a5,-2016(gp) # 200000a8 <new_angle.5746>
    21dc:	8fd9                	or	a5,a5,a4
    21de:	01079713          	slli	a4,a5,0x10
    21e2:	8341                	srli	a4,a4,0x10
    21e4:	82e19023          	sh	a4,-2016(gp) # 200000a8 <new_angle.5746>
D:\WCH\代码\3-pit%20demo\obj/../Libraries/seekfree_peripheral/SEEKFREE_ABSOLUTE_ENCODER.c:207
    GPIO_PIN_SET(cs_pin);
    21e8:	fdc42783          	lw	a5,-36(s0)
    21ec:	8bfd                	andi	a5,a5,31
    21ee:	4705                	li	a4,1
    21f0:	00f717b3          	sll	a5,a4,a5
    21f4:	01079693          	slli	a3,a5,0x10
    21f8:	82c1                	srli	a3,a3,0x10
    21fa:	fdc42783          	lw	a5,-36(s0)
    21fe:	8395                	srli	a5,a5,0x5
    2200:	0ff7f793          	andi	a5,a5,255
    2204:	0077f713          	andi	a4,a5,7
    2208:	679d                	lui	a5,0x7
    220a:	070a                	slli	a4,a4,0x2
    220c:	9c878793          	addi	a5,a5,-1592 # 69c8 <GPION>
    2210:	97ba                	add	a5,a5,a4
    2212:	439c                	lw	a5,0(a5)
    2214:	8736                	mv	a4,a3
    2216:	cb98                	sw	a4,16(a5)
D:\WCH\代码\3-pit%20demo\obj/../Libraries/seekfree_peripheral/SEEKFREE_ABSOLUTE_ENCODER.c:208
    new_angle >>= 6;
    2218:	8201d783          	lhu	a5,-2016(gp) # 200000a8 <new_angle.5746>
    221c:	8399                	srli	a5,a5,0x6
    221e:	01079713          	slli	a4,a5,0x10
    2222:	8341                	srli	a4,a4,0x10
    2224:	82e19023          	sh	a4,-2016(gp) # 200000a8 <new_angle.5746>
D:\WCH\代码\3-pit%20demo\obj/../Libraries/seekfree_peripheral/SEEKFREE_ABSOLUTE_ENCODER.c:210

    angle_diff = (old_angle - new_angle)&0x3ff;
    2228:	8221d703          	lhu	a4,-2014(gp) # 200000aa <old_angle.5745>
    222c:	8201d783          	lhu	a5,-2016(gp) # 200000a8 <new_angle.5746>
    2230:	40f707b3          	sub	a5,a4,a5
    2234:	07c2                	slli	a5,a5,0x10
    2236:	83c1                	srli	a5,a5,0x10
    2238:	3ff7f793          	andi	a5,a5,1023
    223c:	fef41723          	sh	a5,-18(s0)
D:\WCH\代码\3-pit%20demo\obj/../Libraries/seekfree_peripheral/SEEKFREE_ABSOLUTE_ENCODER.c:211
    old_angle = new_angle;                      //保存这次
    2240:	8201d703          	lhu	a4,-2016(gp) # 200000a8 <new_angle.5746>
    2244:	82e19123          	sh	a4,-2014(gp) # 200000aa <old_angle.5745>
D:\WCH\代码\3-pit%20demo\obj/../Libraries/seekfree_peripheral/SEEKFREE_ABSOLUTE_ENCODER.c:214


    return ((int16)angle_diff - ((angle_diff & 0x200)<<1));
    2248:	fee45783          	lhu	a5,-18(s0)
    224c:	0786                	slli	a5,a5,0x1
    224e:	07c2                	slli	a5,a5,0x10
    2250:	83c1                	srli	a5,a5,0x10
    2252:	4007f793          	andi	a5,a5,1024
    2256:	07c2                	slli	a5,a5,0x10
    2258:	83c1                	srli	a5,a5,0x10
    225a:	fee45703          	lhu	a4,-18(s0)
    225e:	40f707b3          	sub	a5,a4,a5
    2262:	07c2                	slli	a5,a5,0x10
    2264:	83c1                	srli	a5,a5,0x10
    2266:	07c2                	slli	a5,a5,0x10
    2268:	87c1                	srai	a5,a5,0x10
D:\WCH\代码\3-pit%20demo\obj/../Libraries/seekfree_peripheral/SEEKFREE_ABSOLUTE_ENCODER.c:215
}
    226a:	853e                	mv	a0,a5
    226c:	50b2                	lw	ra,44(sp)
    226e:	5422                	lw	s0,40(sp)
    2270:	6145                	addi	sp,sp,48
    2272:	8082                	ret

00002274 <encoder3_speed_spi>:
encoder3_speed_spi():
D:\WCH\代码\3-pit%20demo\obj/../Libraries/seekfree_peripheral/SEEKFREE_ABSOLUTE_ENCODER.c:225
//  @return     uint16       返回角度值0-1023
//  @since      v1.0
//  Sample usage:
//-------------------------------------------------------------------------------------------------------------------
int16 encoder3_speed_spi(PIN_enum cs_pin)
{
    2274:	7179                	addi	sp,sp,-48
    2276:	d606                	sw	ra,44(sp)
    2278:	d422                	sw	s0,40(sp)
    227a:	1800                	addi	s0,sp,48
    227c:	fca42e23          	sw	a0,-36(s0)
D:\WCH\代码\3-pit%20demo\obj/../Libraries/seekfree_peripheral/SEEKFREE_ABSOLUTE_ENCODER.c:230
    static uint16 old_angle ,new_angle;
    uint16 angle_diff;

    //获取本次角度数据
    GPIO_PIN_RESET(cs_pin);
    2280:	fdc42783          	lw	a5,-36(s0)
    2284:	8bfd                	andi	a5,a5,31
    2286:	4705                	li	a4,1
    2288:	00f717b3          	sll	a5,a4,a5
    228c:	01079693          	slli	a3,a5,0x10
    2290:	82c1                	srli	a3,a3,0x10
    2292:	fdc42783          	lw	a5,-36(s0)
    2296:	8395                	srli	a5,a5,0x5
    2298:	0ff7f793          	andi	a5,a5,255
    229c:	0077f713          	andi	a4,a5,7
    22a0:	679d                	lui	a5,0x7
    22a2:	070a                	slli	a4,a4,0x2
    22a4:	9c878793          	addi	a5,a5,-1592 # 69c8 <GPION>
    22a8:	97ba                	add	a5,a5,a4
    22aa:	439c                	lw	a5,0(a5)
    22ac:	8736                	mv	a4,a3
    22ae:	cbd8                	sw	a4,20(a5)
D:\WCH\代码\3-pit%20demo\obj/../Libraries/seekfree_peripheral/SEEKFREE_ABSOLUTE_ENCODER.c:231
    new_angle = (uint16)spi_wr_byte(0x00);
    22b0:	4501                	li	a0,0
    22b2:	3cd5                	jal	1da6 <spi_wr_byte>
    22b4:	87aa                	mv	a5,a0
    22b6:	01079713          	slli	a4,a5,0x10
    22ba:	8341                	srli	a4,a4,0x10
    22bc:	82e19223          	sh	a4,-2012(gp) # 200000ac <new_angle.5752>
D:\WCH\代码\3-pit%20demo\obj/../Libraries/seekfree_peripheral/SEEKFREE_ABSOLUTE_ENCODER.c:232
    new_angle <<= 8;                           //存储高八位
    22c0:	8241d783          	lhu	a5,-2012(gp) # 200000ac <new_angle.5752>
    22c4:	07a2                	slli	a5,a5,0x8
    22c6:	01079713          	slli	a4,a5,0x10
    22ca:	8341                	srli	a4,a4,0x10
    22cc:	82e19223          	sh	a4,-2012(gp) # 200000ac <new_angle.5752>
D:\WCH\代码\3-pit%20demo\obj/../Libraries/seekfree_peripheral/SEEKFREE_ABSOLUTE_ENCODER.c:233
    new_angle |= (uint16)spi_wr_byte(0x00);    //存储低八位
    22d0:	4501                	li	a0,0
    22d2:	3cd1                	jal	1da6 <spi_wr_byte>
    22d4:	87aa                	mv	a5,a0
    22d6:	01079713          	slli	a4,a5,0x10
    22da:	8341                	srli	a4,a4,0x10
    22dc:	8241d783          	lhu	a5,-2012(gp) # 200000ac <new_angle.5752>
    22e0:	8fd9                	or	a5,a5,a4
    22e2:	01079713          	slli	a4,a5,0x10
    22e6:	8341                	srli	a4,a4,0x10
    22e8:	82e19223          	sh	a4,-2012(gp) # 200000ac <new_angle.5752>
D:\WCH\代码\3-pit%20demo\obj/../Libraries/seekfree_peripheral/SEEKFREE_ABSOLUTE_ENCODER.c:234
    GPIO_PIN_SET(cs_pin);
    22ec:	fdc42783          	lw	a5,-36(s0)
    22f0:	8bfd                	andi	a5,a5,31
    22f2:	4705                	li	a4,1
    22f4:	00f717b3          	sll	a5,a4,a5
    22f8:	01079693          	slli	a3,a5,0x10
    22fc:	82c1                	srli	a3,a3,0x10
    22fe:	fdc42783          	lw	a5,-36(s0)
    2302:	8395                	srli	a5,a5,0x5
    2304:	0ff7f793          	andi	a5,a5,255
    2308:	0077f713          	andi	a4,a5,7
    230c:	679d                	lui	a5,0x7
    230e:	070a                	slli	a4,a4,0x2
    2310:	9c878793          	addi	a5,a5,-1592 # 69c8 <GPION>
    2314:	97ba                	add	a5,a5,a4
    2316:	439c                	lw	a5,0(a5)
    2318:	8736                	mv	a4,a3
    231a:	cb98                	sw	a4,16(a5)
D:\WCH\代码\3-pit%20demo\obj/../Libraries/seekfree_peripheral/SEEKFREE_ABSOLUTE_ENCODER.c:235
    new_angle >>= 6;
    231c:	8241d783          	lhu	a5,-2012(gp) # 200000ac <new_angle.5752>
    2320:	8399                	srli	a5,a5,0x6
    2322:	01079713          	slli	a4,a5,0x10
    2326:	8341                	srli	a4,a4,0x10
    2328:	82e19223          	sh	a4,-2012(gp) # 200000ac <new_angle.5752>
D:\WCH\代码\3-pit%20demo\obj/../Libraries/seekfree_peripheral/SEEKFREE_ABSOLUTE_ENCODER.c:237

    angle_diff = (old_angle - new_angle)&0x3ff;
    232c:	8261d703          	lhu	a4,-2010(gp) # 200000ae <old_angle.5751>
    2330:	8241d783          	lhu	a5,-2012(gp) # 200000ac <new_angle.5752>
    2334:	40f707b3          	sub	a5,a4,a5
    2338:	07c2                	slli	a5,a5,0x10
    233a:	83c1                	srli	a5,a5,0x10
    233c:	3ff7f793          	andi	a5,a5,1023
    2340:	fef41723          	sh	a5,-18(s0)
D:\WCH\代码\3-pit%20demo\obj/../Libraries/seekfree_peripheral/SEEKFREE_ABSOLUTE_ENCODER.c:238
    old_angle = new_angle;                      //保存这次
    2344:	8241d703          	lhu	a4,-2012(gp) # 200000ac <new_angle.5752>
    2348:	82e19323          	sh	a4,-2010(gp) # 200000ae <old_angle.5751>
D:\WCH\代码\3-pit%20demo\obj/../Libraries/seekfree_peripheral/SEEKFREE_ABSOLUTE_ENCODER.c:241


    return ((int16)angle_diff - ((angle_diff & 0x200)<<1));
    234c:	fee45783          	lhu	a5,-18(s0)
    2350:	0786                	slli	a5,a5,0x1
    2352:	07c2                	slli	a5,a5,0x10
    2354:	83c1                	srli	a5,a5,0x10
    2356:	4007f793          	andi	a5,a5,1024
    235a:	07c2                	slli	a5,a5,0x10
    235c:	83c1                	srli	a5,a5,0x10
    235e:	fee45703          	lhu	a4,-18(s0)
    2362:	40f707b3          	sub	a5,a4,a5
    2366:	07c2                	slli	a5,a5,0x10
    2368:	83c1                	srli	a5,a5,0x10
    236a:	07c2                	slli	a5,a5,0x10
    236c:	87c1                	srai	a5,a5,0x10
D:\WCH\代码\3-pit%20demo\obj/../Libraries/seekfree_peripheral/SEEKFREE_ABSOLUTE_ENCODER.c:242
}
    236e:	853e                	mv	a0,a5
    2370:	50b2                	lw	ra,44(sp)
    2372:	5422                	lw	s0,40(sp)
    2374:	6145                	addi	sp,sp,48
    2376:	8082                	ret

00002378 <encoder4_speed_spi>:
encoder4_speed_spi():
D:\WCH\代码\3-pit%20demo\obj/../Libraries/seekfree_peripheral/SEEKFREE_ABSOLUTE_ENCODER.c:252
//  @return     uint16       返回角度值0-1023
//  @since      v1.0
//  Sample usage:
//-------------------------------------------------------------------------------------------------------------------
int16 encoder4_speed_spi(PIN_enum cs_pin)
{
    2378:	7179                	addi	sp,sp,-48
    237a:	d606                	sw	ra,44(sp)
    237c:	d422                	sw	s0,40(sp)
    237e:	1800                	addi	s0,sp,48
    2380:	fca42e23          	sw	a0,-36(s0)
D:\WCH\代码\3-pit%20demo\obj/../Libraries/seekfree_peripheral/SEEKFREE_ABSOLUTE_ENCODER.c:257
    static uint16 old_angle ,new_angle;
    uint16 angle_diff;

    //获取本次角度数据
    GPIO_PIN_RESET(cs_pin);
    2384:	fdc42783          	lw	a5,-36(s0)
    2388:	8bfd                	andi	a5,a5,31
    238a:	4705                	li	a4,1
    238c:	00f717b3          	sll	a5,a4,a5
    2390:	01079693          	slli	a3,a5,0x10
    2394:	82c1                	srli	a3,a3,0x10
    2396:	fdc42783          	lw	a5,-36(s0)
    239a:	8395                	srli	a5,a5,0x5
    239c:	0ff7f793          	andi	a5,a5,255
    23a0:	0077f713          	andi	a4,a5,7
    23a4:	679d                	lui	a5,0x7
    23a6:	070a                	slli	a4,a4,0x2
    23a8:	9c878793          	addi	a5,a5,-1592 # 69c8 <GPION>
    23ac:	97ba                	add	a5,a5,a4
    23ae:	439c                	lw	a5,0(a5)
    23b0:	8736                	mv	a4,a3
    23b2:	cbd8                	sw	a4,20(a5)
D:\WCH\代码\3-pit%20demo\obj/../Libraries/seekfree_peripheral/SEEKFREE_ABSOLUTE_ENCODER.c:258
    new_angle = (uint16)spi_wr_byte(0x00);
    23b4:	4501                	li	a0,0
    23b6:	3ac5                	jal	1da6 <spi_wr_byte>
    23b8:	87aa                	mv	a5,a0
    23ba:	01079713          	slli	a4,a5,0x10
    23be:	8341                	srli	a4,a4,0x10
    23c0:	82e19423          	sh	a4,-2008(gp) # 200000b0 <new_angle.5758>
D:\WCH\代码\3-pit%20demo\obj/../Libraries/seekfree_peripheral/SEEKFREE_ABSOLUTE_ENCODER.c:259
    new_angle <<= 8;                           //存储高八位
    23c4:	8281d783          	lhu	a5,-2008(gp) # 200000b0 <new_angle.5758>
    23c8:	07a2                	slli	a5,a5,0x8
    23ca:	01079713          	slli	a4,a5,0x10
    23ce:	8341                	srli	a4,a4,0x10
    23d0:	82e19423          	sh	a4,-2008(gp) # 200000b0 <new_angle.5758>
D:\WCH\代码\3-pit%20demo\obj/../Libraries/seekfree_peripheral/SEEKFREE_ABSOLUTE_ENCODER.c:260
    new_angle |= (uint16)spi_wr_byte(0x00);    //存储低八位
    23d4:	4501                	li	a0,0
    23d6:	3ac1                	jal	1da6 <spi_wr_byte>
    23d8:	87aa                	mv	a5,a0
    23da:	01079713          	slli	a4,a5,0x10
    23de:	8341                	srli	a4,a4,0x10
    23e0:	8281d783          	lhu	a5,-2008(gp) # 200000b0 <new_angle.5758>
    23e4:	8fd9                	or	a5,a5,a4
    23e6:	01079713          	slli	a4,a5,0x10
    23ea:	8341                	srli	a4,a4,0x10
    23ec:	82e19423          	sh	a4,-2008(gp) # 200000b0 <new_angle.5758>
D:\WCH\代码\3-pit%20demo\obj/../Libraries/seekfree_peripheral/SEEKFREE_ABSOLUTE_ENCODER.c:261
    GPIO_PIN_SET(cs_pin);
    23f0:	fdc42783          	lw	a5,-36(s0)
    23f4:	8bfd                	andi	a5,a5,31
    23f6:	4705                	li	a4,1
    23f8:	00f717b3          	sll	a5,a4,a5
    23fc:	01079693          	slli	a3,a5,0x10
    2400:	82c1                	srli	a3,a3,0x10
    2402:	fdc42783          	lw	a5,-36(s0)
    2406:	8395                	srli	a5,a5,0x5
    2408:	0ff7f793          	andi	a5,a5,255
    240c:	0077f713          	andi	a4,a5,7
    2410:	679d                	lui	a5,0x7
    2412:	070a                	slli	a4,a4,0x2
    2414:	9c878793          	addi	a5,a5,-1592 # 69c8 <GPION>
    2418:	97ba                	add	a5,a5,a4
    241a:	439c                	lw	a5,0(a5)
    241c:	8736                	mv	a4,a3
    241e:	cb98                	sw	a4,16(a5)
D:\WCH\代码\3-pit%20demo\obj/../Libraries/seekfree_peripheral/SEEKFREE_ABSOLUTE_ENCODER.c:262
    new_angle >>= 6;
    2420:	8281d783          	lhu	a5,-2008(gp) # 200000b0 <new_angle.5758>
    2424:	8399                	srli	a5,a5,0x6
    2426:	01079713          	slli	a4,a5,0x10
    242a:	8341                	srli	a4,a4,0x10
    242c:	82e19423          	sh	a4,-2008(gp) # 200000b0 <new_angle.5758>
D:\WCH\代码\3-pit%20demo\obj/../Libraries/seekfree_peripheral/SEEKFREE_ABSOLUTE_ENCODER.c:264

    angle_diff = (old_angle - new_angle)&0x3ff;
    2430:	82a1d703          	lhu	a4,-2006(gp) # 200000b2 <old_angle.5757>
    2434:	8281d783          	lhu	a5,-2008(gp) # 200000b0 <new_angle.5758>
    2438:	40f707b3          	sub	a5,a4,a5
    243c:	07c2                	slli	a5,a5,0x10
    243e:	83c1                	srli	a5,a5,0x10
    2440:	3ff7f793          	andi	a5,a5,1023
    2444:	fef41723          	sh	a5,-18(s0)
D:\WCH\代码\3-pit%20demo\obj/../Libraries/seekfree_peripheral/SEEKFREE_ABSOLUTE_ENCODER.c:265
    old_angle = new_angle;                      //保存这次
    2448:	8281d703          	lhu	a4,-2008(gp) # 200000b0 <new_angle.5758>
    244c:	82e19523          	sh	a4,-2006(gp) # 200000b2 <old_angle.5757>
D:\WCH\代码\3-pit%20demo\obj/../Libraries/seekfree_peripheral/SEEKFREE_ABSOLUTE_ENCODER.c:268


    return ((int16)angle_diff - ((angle_diff & 0x200)<<1));
    2450:	fee45783          	lhu	a5,-18(s0)
    2454:	0786                	slli	a5,a5,0x1
    2456:	07c2                	slli	a5,a5,0x10
    2458:	83c1                	srli	a5,a5,0x10
    245a:	4007f793          	andi	a5,a5,1024
    245e:	07c2                	slli	a5,a5,0x10
    2460:	83c1                	srli	a5,a5,0x10
    2462:	fee45703          	lhu	a4,-18(s0)
    2466:	40f707b3          	sub	a5,a4,a5
    246a:	07c2                	slli	a5,a5,0x10
    246c:	83c1                	srli	a5,a5,0x10
    246e:	07c2                	slli	a5,a5,0x10
    2470:	87c1                	srai	a5,a5,0x10
D:\WCH\代码\3-pit%20demo\obj/../Libraries/seekfree_peripheral/SEEKFREE_ABSOLUTE_ENCODER.c:269
}
    2472:	853e                	mv	a0,a5
    2474:	50b2                	lw	ra,44(sp)
    2476:	5422                	lw	s0,40(sp)
    2478:	6145                	addi	sp,sp,48
    247a:	8082                	ret

0000247c <encoder_self5_check>:
encoder_self5_check():
D:\WCH\代码\3-pit%20demo\obj/../Libraries/seekfree_peripheral/SEEKFREE_ABSOLUTE_ENCODER.c:280
//  @return     void
//  @since      v1.0
//  Sample usage:
//-------------------------------------------------------------------------------------------------------------------
void encoder_self5_check(PIN_enum cs_pin)
{
    247c:	7179                	addi	sp,sp,-48
    247e:	d606                	sw	ra,44(sp)
    2480:	d422                	sw	s0,40(sp)
    2482:	1800                	addi	s0,sp,48
    2484:	fca42e23          	sw	a0,-36(s0)
D:\WCH\代码\3-pit%20demo\obj/../Libraries/seekfree_peripheral/SEEKFREE_ABSOLUTE_ENCODER.c:284 (discriminator 1)
    uint8 val;
    do
    {
        encoder_spi_r_reg_byte(6, &val, cs_pin);
    2488:	fef40793          	addi	a5,s0,-17
    248c:	fdc42603          	lw	a2,-36(s0)
    2490:	85be                	mv	a1,a5
    2492:	4519                	li	a0,6
    2494:	34a5                	jal	1efc <encoder_spi_r_reg_byte>
D:\WCH\代码\3-pit%20demo\obj/../Libraries/seekfree_peripheral/SEEKFREE_ABSOLUTE_ENCODER.c:288 (discriminator 1)
        //卡在这里原因有以下几点
        //1 编码器坏了，如果是新的这样的概率极低
        //2 接线错误或者没有接好
    }while(0x1C != val);
    2496:	fef44703          	lbu	a4,-17(s0)
    249a:	47f1                	li	a5,28
    249c:	fef716e3          	bne	a4,a5,2488 <encoder_self5_check+0xc>
D:\WCH\代码\3-pit%20demo\obj/../Libraries/seekfree_peripheral/SEEKFREE_ABSOLUTE_ENCODER.c:289
}
    24a0:	0001                	nop
    24a2:	50b2                	lw	ra,44(sp)
    24a4:	5422                	lw	s0,40(sp)
    24a6:	6145                	addi	sp,sp,48
    24a8:	8082                	ret

000024aa <encoder_init_spi>:
encoder_init_spi():
D:\WCH\代码\3-pit%20demo\obj/../Libraries/seekfree_peripheral/SEEKFREE_ABSOLUTE_ENCODER.c:299
//  @return     void
//  @since      v1.0
//  Sample usage:
//-------------------------------------------------------------------------------------------------------------------
void encoder_init_spi(PIN_enum cs_pin)
{
    24aa:	1101                	addi	sp,sp,-32
    24ac:	ce06                	sw	ra,28(sp)
    24ae:	cc22                	sw	s0,24(sp)
    24b0:	1000                	addi	s0,sp,32
    24b2:	fea42623          	sw	a0,-20(s0)
D:\WCH\代码\3-pit%20demo\obj/../Libraries/seekfree_peripheral/SEEKFREE_ABSOLUTE_ENCODER.c:301
    //初始化SPI，使用软件控制CS引脚
    spi_init(ABS_ENCODER_SPI_NUM, ABS_ENCODER_SPI_SCK_PIN, ABS_ENCODER_SPI_MOSI_PIN, ABS_ENCODER_SPI_MISO_PIN, cs_pin, 0, FPCLK_DIV_16);
    24b6:	4809                	li	a6,2
    24b8:	4781                	li	a5,0
    24ba:	fec42703          	lw	a4,-20(s0)
    24be:	02200693          	li	a3,34
    24c2:	02100613          	li	a2,33
    24c6:	02000593          	li	a1,32
    24ca:	4505                	li	a0,1
    24cc:	318010ef          	jal	ra,37e4 <spi_init>
D:\WCH\代码\3-pit%20demo\obj/../Libraries/seekfree_peripheral/SEEKFREE_ABSOLUTE_ENCODER.c:302
    encoder_self5_check(cs_pin);
    24d0:	fec42503          	lw	a0,-20(s0)
    24d4:	3765                	jal	247c <encoder_self5_check>
D:\WCH\代码\3-pit%20demo\obj/../Libraries/seekfree_peripheral/SEEKFREE_ABSOLUTE_ENCODER.c:303
    encoder_spi_w_reg_byte(DIR_REG, 0x00, cs_pin);       //设置旋转方向 正转数值变小：0x00   反转数值变大：0x80
    24d6:	fec42603          	lw	a2,-20(s0)
    24da:	4581                	li	a1,0
    24dc:	4525                	li	a0,9
    24de:	8f9ff0ef          	jal	ra,1dd6 <encoder_spi_w_reg_byte>
D:\WCH\代码\3-pit%20demo\obj/../Libraries/seekfree_peripheral/SEEKFREE_ABSOLUTE_ENCODER.c:304
    set_zero_position_spi(0, cs_pin);                   //设置零偏
    24e2:	fec42583          	lw	a1,-20(s0)
    24e6:	4501                	li	a0,0
    24e8:	361d                	jal	200e <set_zero_position_spi>
D:\WCH\代码\3-pit%20demo\obj/../Libraries/seekfree_peripheral/SEEKFREE_ABSOLUTE_ENCODER.c:305
}
    24ea:	0001                	nop
    24ec:	40f2                	lw	ra,28(sp)
    24ee:	4462                	lw	s0,24(sp)
    24f0:	6105                	addi	sp,sp,32
    24f2:	8082                	ret

000024f4 <oled_wrdat>:
oled_wrdat():
D:\WCH\代码\3-PIT%20Demo\obj/../Libraries/seekfree_peripheral/SEEKFREE_OLED.c:55
//  @return
//  @since      v1.0
//  Sample usage:               
//-------------------------------------------------------------------------------------------------------------------
void oled_wrdat(uint8 data)
{
    24f4:	7179                	addi	sp,sp,-48
    24f6:	d622                	sw	s0,44(sp)
    24f8:	1800                	addi	s0,sp,48
    24fa:	87aa                	mv	a5,a0
    24fc:	fcf40fa3          	sb	a5,-33(s0)
D:\WCH\代码\3-PIT%20Demo\obj/../Libraries/seekfree_peripheral/SEEKFREE_OLED.c:56
    uint8 i=8;
    2500:	47a1                	li	a5,8
    2502:	fef407a3          	sb	a5,-17(s0)
D:\WCH\代码\3-PIT%20Demo\obj/../Libraries/seekfree_peripheral/SEEKFREE_OLED.c:58

    OLED_CS(0); //使能信号端，拉低时正常使用
    2506:	679d                	lui	a5,0x7
    2508:	9c878793          	addi	a5,a5,-1592 # 69c8 <GPION>
    250c:	479c                	lw	a5,8(a5)
    250e:	873e                	mv	a4,a5
    2510:	67a1                	lui	a5,0x8
    2512:	cb5c                	sw	a5,20(a4)
D:\WCH\代码\3-PIT%20Demo\obj/../Libraries/seekfree_peripheral/SEEKFREE_OLED.c:59
    OLED_DC(1);
    2514:	679d                	lui	a5,0x7
    2516:	9c878793          	addi	a5,a5,-1592 # 69c8 <GPION>
    251a:	479c                	lw	a5,8(a5)
    251c:	873e                	mv	a4,a5
    251e:	6791                	lui	a5,0x4
    2520:	cb1c                	sw	a5,16(a4)
D:\WCH\代码\3-PIT%20Demo\obj/../Libraries/seekfree_peripheral/SEEKFREE_OLED.c:60
    OLED_SCL(0);
    2522:	679d                	lui	a5,0x7
    2524:	9c87a783          	lw	a5,-1592(a5) # 69c8 <GPION>
    2528:	873e                	mv	a4,a5
    252a:	02000793          	li	a5,32
    252e:	cb5c                	sw	a5,20(a4)
D:\WCH\代码\3-PIT%20Demo\obj/../Libraries/seekfree_peripheral/SEEKFREE_OLED.c:61
    while(i--)
    2530:	a0b9                	j	257e <oled_wrdat+0x8a>
D:\WCH\代码\3-PIT%20Demo\obj/../Libraries/seekfree_peripheral/SEEKFREE_OLED.c:63
    {
        if(data&0x80){OLED_SDA(1);}
    2532:	fdf40783          	lb	a5,-33(s0)
    2536:	0007da63          	bgez	a5,254a <oled_wrdat+0x56>
D:\WCH\代码\3-PIT%20Demo\obj/../Libraries/seekfree_peripheral/SEEKFREE_OLED.c:63 (discriminator 1)
    253a:	679d                	lui	a5,0x7
    253c:	9c87a783          	lw	a5,-1592(a5) # 69c8 <GPION>
    2540:	873e                	mv	a4,a5
    2542:	08000793          	li	a5,128
    2546:	cb1c                	sw	a5,16(a4)
    2548:	a801                	j	2558 <oled_wrdat+0x64>
D:\WCH\代码\3-PIT%20Demo\obj/../Libraries/seekfree_peripheral/SEEKFREE_OLED.c:64
        else{OLED_SDA(0);}
    254a:	679d                	lui	a5,0x7
    254c:	9c87a783          	lw	a5,-1592(a5) # 69c8 <GPION>
    2550:	873e                	mv	a4,a5
    2552:	08000793          	li	a5,128
    2556:	cb5c                	sw	a5,20(a4)
D:\WCH\代码\3-PIT%20Demo\obj/../Libraries/seekfree_peripheral/SEEKFREE_OLED.c:65
        OLED_SCL(1);
    2558:	679d                	lui	a5,0x7
    255a:	9c87a783          	lw	a5,-1592(a5) # 69c8 <GPION>
    255e:	873e                	mv	a4,a5
    2560:	02000793          	li	a5,32
    2564:	cb1c                	sw	a5,16(a4)
D:\WCH\代码\3-PIT%20Demo\obj/../Libraries/seekfree_peripheral/SEEKFREE_OLED.c:67

        OLED_SCL(0);
    2566:	679d                	lui	a5,0x7
    2568:	9c87a783          	lw	a5,-1592(a5) # 69c8 <GPION>
    256c:	873e                	mv	a4,a5
    256e:	02000793          	li	a5,32
    2572:	cb5c                	sw	a5,20(a4)
D:\WCH\代码\3-PIT%20Demo\obj/../Libraries/seekfree_peripheral/SEEKFREE_OLED.c:68
        data<<=1;
    2574:	fdf44783          	lbu	a5,-33(s0)
    2578:	0786                	slli	a5,a5,0x1
    257a:	fcf40fa3          	sb	a5,-33(s0)
D:\WCH\代码\3-PIT%20Demo\obj/../Libraries/seekfree_peripheral/SEEKFREE_OLED.c:61
    while(i--)
    257e:	fef44783          	lbu	a5,-17(s0)
    2582:	fff78713          	addi	a4,a5,-1
    2586:	fee407a3          	sb	a4,-17(s0)
    258a:	f7c5                	bnez	a5,2532 <oled_wrdat+0x3e>
D:\WCH\代码\3-PIT%20Demo\obj/../Libraries/seekfree_peripheral/SEEKFREE_OLED.c:70
    }
    OLED_CS(1); //使能信号端，拉低时正常使用
    258c:	679d                	lui	a5,0x7
    258e:	9c878793          	addi	a5,a5,-1592 # 69c8 <GPION>
    2592:	479c                	lw	a5,8(a5)
    2594:	873e                	mv	a4,a5
    2596:	67a1                	lui	a5,0x8
    2598:	cb1c                	sw	a5,16(a4)
D:\WCH\代码\3-PIT%20Demo\obj/../Libraries/seekfree_peripheral/SEEKFREE_OLED.c:71
}
    259a:	0001                	nop
    259c:	5432                	lw	s0,44(sp)
    259e:	6145                	addi	sp,sp,48
    25a0:	8082                	ret

000025a2 <oled_wrcmd>:
oled_wrcmd():
D:\WCH\代码\3-PIT%20Demo\obj/../Libraries/seekfree_peripheral/SEEKFREE_OLED.c:106
//  @return
//  @since      v1.0
//  Sample usage:               
//-------------------------------------------------------------------------------------------------------------------
void oled_wrcmd(uint8 cmd)
{
    25a2:	7179                	addi	sp,sp,-48
    25a4:	d622                	sw	s0,44(sp)
    25a6:	1800                	addi	s0,sp,48
    25a8:	87aa                	mv	a5,a0
    25aa:	fcf40fa3          	sb	a5,-33(s0)
D:\WCH\代码\3-PIT%20Demo\obj/../Libraries/seekfree_peripheral/SEEKFREE_OLED.c:107
    uint8 i=8;
    25ae:	47a1                	li	a5,8
    25b0:	fef407a3          	sb	a5,-17(s0)
D:\WCH\代码\3-PIT%20Demo\obj/../Libraries/seekfree_peripheral/SEEKFREE_OLED.c:109

    OLED_CS(0); //使能信号端，拉低时正常使用
    25b4:	679d                	lui	a5,0x7
    25b6:	9c878793          	addi	a5,a5,-1592 # 69c8 <GPION>
    25ba:	479c                	lw	a5,8(a5)
    25bc:	873e                	mv	a4,a5
    25be:	67a1                	lui	a5,0x8
    25c0:	cb5c                	sw	a5,20(a4)
D:\WCH\代码\3-PIT%20Demo\obj/../Libraries/seekfree_peripheral/SEEKFREE_OLED.c:110
    OLED_DC(0);
    25c2:	679d                	lui	a5,0x7
    25c4:	9c878793          	addi	a5,a5,-1592 # 69c8 <GPION>
    25c8:	479c                	lw	a5,8(a5)
    25ca:	873e                	mv	a4,a5
    25cc:	6791                	lui	a5,0x4
    25ce:	cb5c                	sw	a5,20(a4)
D:\WCH\代码\3-PIT%20Demo\obj/../Libraries/seekfree_peripheral/SEEKFREE_OLED.c:111
    OLED_SCL(0);;
    25d0:	679d                	lui	a5,0x7
    25d2:	9c87a783          	lw	a5,-1592(a5) # 69c8 <GPION>
    25d6:	873e                	mv	a4,a5
    25d8:	02000793          	li	a5,32
    25dc:	cb5c                	sw	a5,20(a4)
D:\WCH\代码\3-PIT%20Demo\obj/../Libraries/seekfree_peripheral/SEEKFREE_OLED.c:113
    
    while(i--)
    25de:	a0b9                	j	262c <oled_wrcmd+0x8a>
D:\WCH\代码\3-PIT%20Demo\obj/../Libraries/seekfree_peripheral/SEEKFREE_OLED.c:115
    {
        if(cmd&0x80){OLED_SDA(1);}
    25e0:	fdf40783          	lb	a5,-33(s0)
    25e4:	0007da63          	bgez	a5,25f8 <oled_wrcmd+0x56>
D:\WCH\代码\3-PIT%20Demo\obj/../Libraries/seekfree_peripheral/SEEKFREE_OLED.c:115 (discriminator 1)
    25e8:	679d                	lui	a5,0x7
    25ea:	9c87a783          	lw	a5,-1592(a5) # 69c8 <GPION>
    25ee:	873e                	mv	a4,a5
    25f0:	08000793          	li	a5,128
    25f4:	cb1c                	sw	a5,16(a4)
    25f6:	a801                	j	2606 <oled_wrcmd+0x64>
D:\WCH\代码\3-PIT%20Demo\obj/../Libraries/seekfree_peripheral/SEEKFREE_OLED.c:116
        else{OLED_SDA(0);}
    25f8:	679d                	lui	a5,0x7
    25fa:	9c87a783          	lw	a5,-1592(a5) # 69c8 <GPION>
    25fe:	873e                	mv	a4,a5
    2600:	08000793          	li	a5,128
    2604:	cb5c                	sw	a5,20(a4)
D:\WCH\代码\3-PIT%20Demo\obj/../Libraries/seekfree_peripheral/SEEKFREE_OLED.c:117
        OLED_SCL(1);
    2606:	679d                	lui	a5,0x7
    2608:	9c87a783          	lw	a5,-1592(a5) # 69c8 <GPION>
    260c:	873e                	mv	a4,a5
    260e:	02000793          	li	a5,32
    2612:	cb1c                	sw	a5,16(a4)
D:\WCH\代码\3-PIT%20Demo\obj/../Libraries/seekfree_peripheral/SEEKFREE_OLED.c:119

        OLED_SCL(0);
    2614:	679d                	lui	a5,0x7
    2616:	9c87a783          	lw	a5,-1592(a5) # 69c8 <GPION>
    261a:	873e                	mv	a4,a5
    261c:	02000793          	li	a5,32
    2620:	cb5c                	sw	a5,20(a4)
D:\WCH\代码\3-PIT%20Demo\obj/../Libraries/seekfree_peripheral/SEEKFREE_OLED.c:120
        cmd<<=1;
    2622:	fdf44783          	lbu	a5,-33(s0)
    2626:	0786                	slli	a5,a5,0x1
    2628:	fcf40fa3          	sb	a5,-33(s0)
D:\WCH\代码\3-PIT%20Demo\obj/../Libraries/seekfree_peripheral/SEEKFREE_OLED.c:113
    while(i--)
    262c:	fef44783          	lbu	a5,-17(s0)
    2630:	fff78713          	addi	a4,a5,-1
    2634:	fee407a3          	sb	a4,-17(s0)
    2638:	f7c5                	bnez	a5,25e0 <oled_wrcmd+0x3e>
D:\WCH\代码\3-PIT%20Demo\obj/../Libraries/seekfree_peripheral/SEEKFREE_OLED.c:122
    }
    OLED_CS(1); //使能信号端，拉低时正常使用
    263a:	679d                	lui	a5,0x7
    263c:	9c878793          	addi	a5,a5,-1592 # 69c8 <GPION>
    2640:	479c                	lw	a5,8(a5)
    2642:	873e                	mv	a4,a5
    2644:	67a1                	lui	a5,0x8
    2646:	cb1c                	sw	a5,16(a4)
D:\WCH\代码\3-PIT%20Demo\obj/../Libraries/seekfree_peripheral/SEEKFREE_OLED.c:123
}
    2648:	0001                	nop
    264a:	5432                	lw	s0,44(sp)
    264c:	6145                	addi	sp,sp,48
    264e:	8082                	ret

00002650 <oled_hexascii>:
oled_hexascii():
D:\WCH\代码\3-PIT%20Demo\obj/../Libraries/seekfree_peripheral/SEEKFREE_OLED.c:133
//  @return
//  @since      v1.0
//  Sample usage:               
//-------------------------------------------------------------------------------------------------------------------
void oled_hexascii(uint16 hex,int8 * Print)
{
    2650:	7179                	addi	sp,sp,-48
    2652:	d622                	sw	s0,44(sp)
    2654:	1800                	addi	s0,sp,48
    2656:	87aa                	mv	a5,a0
    2658:	fcb42c23          	sw	a1,-40(s0)
    265c:	fcf41f23          	sh	a5,-34(s0)
D:\WCH\代码\3-PIT%20Demo\obj/../Libraries/seekfree_peripheral/SEEKFREE_OLED.c:136
    uint8 hexcheck ;
    uint8 TEMP ;
    TEMP = 6 ;
    2660:	4799                	li	a5,6
    2662:	fef407a3          	sb	a5,-17(s0)
D:\WCH\代码\3-PIT%20Demo\obj/../Libraries/seekfree_peripheral/SEEKFREE_OLED.c:137
    Print[TEMP ]='\0';
    2666:	fef44783          	lbu	a5,-17(s0)
    266a:	fd842703          	lw	a4,-40(s0)
    266e:	97ba                	add	a5,a5,a4
    2670:	00078023          	sb	zero,0(a5) # 8000 <_data_lma+0x1384>
D:\WCH\代码\3-PIT%20Demo\obj/../Libraries/seekfree_peripheral/SEEKFREE_OLED.c:138
    while(TEMP)
    2674:	a0b1                	j	26c0 <oled_hexascii+0x70>
D:\WCH\代码\3-PIT%20Demo\obj/../Libraries/seekfree_peripheral/SEEKFREE_OLED.c:140
    {
        TEMP -- ;
    2676:	fef44783          	lbu	a5,-17(s0)
    267a:	17fd                	addi	a5,a5,-1
    267c:	fef407a3          	sb	a5,-17(s0)
D:\WCH\代码\3-PIT%20Demo\obj/../Libraries/seekfree_peripheral/SEEKFREE_OLED.c:141
        hexcheck  =  hex%10 ;
    2680:	fde45703          	lhu	a4,-34(s0)
    2684:	47a9                	li	a5,10
    2686:	02f777b3          	remu	a5,a4,a5
    268a:	07c2                	slli	a5,a5,0x10
    268c:	83c1                	srli	a5,a5,0x10
    268e:	fef40723          	sb	a5,-18(s0)
D:\WCH\代码\3-PIT%20Demo\obj/../Libraries/seekfree_peripheral/SEEKFREE_OLED.c:142
        hex   /=10 ;
    2692:	fde45703          	lhu	a4,-34(s0)
    2696:	47a9                	li	a5,10
    2698:	02f757b3          	divu	a5,a4,a5
    269c:	fcf41f23          	sh	a5,-34(s0)
D:\WCH\代码\3-PIT%20Demo\obj/../Libraries/seekfree_peripheral/SEEKFREE_OLED.c:143
        Print[TEMP ]  = hexcheck + 0x30 ;
    26a0:	fee44783          	lbu	a5,-18(s0)
    26a4:	03078793          	addi	a5,a5,48
    26a8:	0ff7f693          	andi	a3,a5,255
    26ac:	fef44783          	lbu	a5,-17(s0)
    26b0:	fd842703          	lw	a4,-40(s0)
    26b4:	97ba                	add	a5,a5,a4
    26b6:	01869713          	slli	a4,a3,0x18
    26ba:	8761                	srai	a4,a4,0x18
    26bc:	00e78023          	sb	a4,0(a5)
D:\WCH\代码\3-PIT%20Demo\obj/../Libraries/seekfree_peripheral/SEEKFREE_OLED.c:138
    while(TEMP)
    26c0:	fef44783          	lbu	a5,-17(s0)
    26c4:	fbcd                	bnez	a5,2676 <oled_hexascii+0x26>
D:\WCH\代码\3-PIT%20Demo\obj/../Libraries/seekfree_peripheral/SEEKFREE_OLED.c:146
    }
  
}
    26c6:	0001                	nop
    26c8:	5432                	lw	s0,44(sp)
    26ca:	6145                	addi	sp,sp,48
    26cc:	8082                	ret

000026ce <oled_init>:
oled_init():
D:\WCH\代码\3-PIT%20Demo\obj/../Libraries/seekfree_peripheral/SEEKFREE_OLED.c:156
//  @return     void
//  @since      v1.0
//  Sample usage:
//-------------------------------------------------------------------------------------------------------------------
void oled_init(void)
{
    26ce:	1141                	addi	sp,sp,-16
    26d0:	c606                	sw	ra,12(sp)
    26d2:	c422                	sw	s0,8(sp)
    26d4:	0800                	addi	s0,sp,16
D:\WCH\代码\3-PIT%20Demo\obj/../Libraries/seekfree_peripheral/SEEKFREE_OLED.c:157
    gpio_init (OLED_SCL_PIN, GPO,1,GPIO_PIN_CONFIG);
    26d6:	31000693          	li	a3,784
    26da:	4605                	li	a2,1
    26dc:	4585                	li	a1,1
    26de:	4515                	li	a0,5
    26e0:	2671                	jal	2a6c <gpio_init>
D:\WCH\代码\3-PIT%20Demo\obj/../Libraries/seekfree_peripheral/SEEKFREE_OLED.c:158
    gpio_init (OLED_SDA_PIN, GPO,0,GPIO_PIN_CONFIG);
    26e2:	31000693          	li	a3,784
    26e6:	4601                	li	a2,0
    26e8:	4585                	li	a1,1
    26ea:	451d                	li	a0,7
    26ec:	2641                	jal	2a6c <gpio_init>
D:\WCH\代码\3-PIT%20Demo\obj/../Libraries/seekfree_peripheral/SEEKFREE_OLED.c:159
    gpio_init (OLED_RST_PIN, GPO,1,GPIO_PIN_CONFIG);
    26ee:	31000693          	li	a3,784
    26f2:	4605                	li	a2,1
    26f4:	4585                	li	a1,1
    26f6:	04d00513          	li	a0,77
    26fa:	2e8d                	jal	2a6c <gpio_init>
D:\WCH\代码\3-PIT%20Demo\obj/../Libraries/seekfree_peripheral/SEEKFREE_OLED.c:160
    gpio_init (OLED_DC_PIN , GPO,1,GPIO_PIN_CONFIG);
    26fc:	31000693          	li	a3,784
    2700:	4605                	li	a2,1
    2702:	4585                	li	a1,1
    2704:	04e00513          	li	a0,78
    2708:	2695                	jal	2a6c <gpio_init>
D:\WCH\代码\3-PIT%20Demo\obj/../Libraries/seekfree_peripheral/SEEKFREE_OLED.c:161
    gpio_init (OLED_CS_PIN , GPO,1,GPIO_PIN_CONFIG);
    270a:	31000693          	li	a3,784
    270e:	4605                	li	a2,1
    2710:	4585                	li	a1,1
    2712:	04f00513          	li	a0,79
    2716:	2e99                	jal	2a6c <gpio_init>
D:\WCH\代码\3-PIT%20Demo\obj/../Libraries/seekfree_peripheral/SEEKFREE_OLED.c:163
    
    OLED_SCL(1);
    2718:	679d                	lui	a5,0x7
    271a:	9c87a783          	lw	a5,-1592(a5) # 69c8 <GPION>
    271e:	873e                	mv	a4,a5
    2720:	02000793          	li	a5,32
    2724:	cb1c                	sw	a5,16(a4)
D:\WCH\代码\3-PIT%20Demo\obj/../Libraries/seekfree_peripheral/SEEKFREE_OLED.c:164
    OLED_RST(0);
    2726:	679d                	lui	a5,0x7
    2728:	9c878793          	addi	a5,a5,-1592 # 69c8 <GPION>
    272c:	479c                	lw	a5,8(a5)
    272e:	873e                	mv	a4,a5
    2730:	6789                	lui	a5,0x2
    2732:	cb5c                	sw	a5,20(a4)
D:\WCH\代码\3-PIT%20Demo\obj/../Libraries/seekfree_peripheral/SEEKFREE_OLED.c:165
    systick_delay_ms(50);
    2734:	67b1                	lui	a5,0xc
    2736:	35078513          	addi	a0,a5,848 # c350 <_data_lma+0x56d4>
    273a:	2a0010ef          	jal	ra,39da <systick_delay>
D:\WCH\代码\3-PIT%20Demo\obj/../Libraries/seekfree_peripheral/SEEKFREE_OLED.c:166
    OLED_RST(1);
    273e:	679d                	lui	a5,0x7
    2740:	9c878793          	addi	a5,a5,-1592 # 69c8 <GPION>
    2744:	479c                	lw	a5,8(a5)
    2746:	873e                	mv	a4,a5
    2748:	6789                	lui	a5,0x2
    274a:	cb1c                	sw	a5,16(a4)
D:\WCH\代码\3-PIT%20Demo\obj/../Libraries/seekfree_peripheral/SEEKFREE_OLED.c:168

    oled_wrcmd(0xae);//--turn off oled panel
    274c:	0ae00513          	li	a0,174
    2750:	3d89                	jal	25a2 <oled_wrcmd>
D:\WCH\代码\3-PIT%20Demo\obj/../Libraries/seekfree_peripheral/SEEKFREE_OLED.c:169
    oled_wrcmd(0x00);//---set low column address
    2752:	4501                	li	a0,0
    2754:	35b9                	jal	25a2 <oled_wrcmd>
D:\WCH\代码\3-PIT%20Demo\obj/../Libraries/seekfree_peripheral/SEEKFREE_OLED.c:170
    oled_wrcmd(0x10);//---set high column address
    2756:	4541                	li	a0,16
    2758:	35a9                	jal	25a2 <oled_wrcmd>
D:\WCH\代码\3-PIT%20Demo\obj/../Libraries/seekfree_peripheral/SEEKFREE_OLED.c:171
    oled_wrcmd(0x40);//--set start line address  Set Mapping RAM Display Start Line (0x00~0x3F)
    275a:	04000513          	li	a0,64
    275e:	3591                	jal	25a2 <oled_wrcmd>
D:\WCH\代码\3-PIT%20Demo\obj/../Libraries/seekfree_peripheral/SEEKFREE_OLED.c:172
    oled_wrcmd(0x81);//--set contrast control register
    2760:	08100513          	li	a0,129
    2764:	3d3d                	jal	25a2 <oled_wrcmd>
D:\WCH\代码\3-PIT%20Demo\obj/../Libraries/seekfree_peripheral/SEEKFREE_OLED.c:173
    oled_wrcmd(Brightness); // Set SEG Output Current Brightness
    2766:	07f00513          	li	a0,127
    276a:	3d25                	jal	25a2 <oled_wrcmd>
D:\WCH\代码\3-PIT%20Demo\obj/../Libraries/seekfree_peripheral/SEEKFREE_OLED.c:176
    
#if (0 == OLED_DISPLAY_DIR)
    oled_wrcmd(0xa1);//--Set SEG/Column Mapping     0xa0左右反置 0xa1正常
    276c:	0a100513          	li	a0,161
    2770:	3d0d                	jal	25a2 <oled_wrcmd>
D:\WCH\代码\3-PIT%20Demo\obj/../Libraries/seekfree_peripheral/SEEKFREE_OLED.c:177
    oled_wrcmd(0xc8);//Set COM/Row Scan Direction   0xc0上下反置 0xc8正常
    2772:	0c800513          	li	a0,200
    2776:	3535                	jal	25a2 <oled_wrcmd>
D:\WCH\代码\3-PIT%20Demo\obj/../Libraries/seekfree_peripheral/SEEKFREE_OLED.c:183
#else
    oled_wrcmd(0xa0);//--Set SEG/Column Mapping     0xa0左右反置 0xa1正常
    oled_wrcmd(0xc0);//Set COM/Row Scan Direction   0xc0上下反置 0xc8正常
#endif
    
    oled_wrcmd(0xa6);//--set normal display
    2778:	0a600513          	li	a0,166
    277c:	351d                	jal	25a2 <oled_wrcmd>
D:\WCH\代码\3-PIT%20Demo\obj/../Libraries/seekfree_peripheral/SEEKFREE_OLED.c:184
    oled_wrcmd(0xa8);//--set multiplex ratio(1 to 64)
    277e:	0a800513          	li	a0,168
    2782:	3505                	jal	25a2 <oled_wrcmd>
D:\WCH\代码\3-PIT%20Demo\obj/../Libraries/seekfree_peripheral/SEEKFREE_OLED.c:185
    oled_wrcmd(0x3f);//--1/64 duty
    2784:	03f00513          	li	a0,63
    2788:	3d29                	jal	25a2 <oled_wrcmd>
D:\WCH\代码\3-PIT%20Demo\obj/../Libraries/seekfree_peripheral/SEEKFREE_OLED.c:186
    oled_wrcmd(0xd3);//-set display offset  Shift Mapping RAM Counter (0x00~0x3F)
    278a:	0d300513          	li	a0,211
    278e:	3d11                	jal	25a2 <oled_wrcmd>
D:\WCH\代码\3-PIT%20Demo\obj/../Libraries/seekfree_peripheral/SEEKFREE_OLED.c:187
    oled_wrcmd(0x00);//-not offset
    2790:	4501                	li	a0,0
    2792:	3d01                	jal	25a2 <oled_wrcmd>
D:\WCH\代码\3-PIT%20Demo\obj/../Libraries/seekfree_peripheral/SEEKFREE_OLED.c:188
    oled_wrcmd(0xd5);//--set display clock divide ratio/oscillator frequency
    2794:	0d500513          	li	a0,213
    2798:	3529                	jal	25a2 <oled_wrcmd>
D:\WCH\代码\3-PIT%20Demo\obj/../Libraries/seekfree_peripheral/SEEKFREE_OLED.c:189
    oled_wrcmd(0x80);//--set divide ratio, Set Clock as 100 Frames/Sec
    279a:	08000513          	li	a0,128
    279e:	3511                	jal	25a2 <oled_wrcmd>
D:\WCH\代码\3-PIT%20Demo\obj/../Libraries/seekfree_peripheral/SEEKFREE_OLED.c:190
    oled_wrcmd(0xd9);//--set pre-charge period
    27a0:	0d900513          	li	a0,217
    27a4:	3bfd                	jal	25a2 <oled_wrcmd>
D:\WCH\代码\3-PIT%20Demo\obj/../Libraries/seekfree_peripheral/SEEKFREE_OLED.c:191
    oled_wrcmd(0xf1);//Set Pre-Charge as 15 Clocks & Discharge as 1 Clock
    27a6:	0f100513          	li	a0,241
    27aa:	3be5                	jal	25a2 <oled_wrcmd>
D:\WCH\代码\3-PIT%20Demo\obj/../Libraries/seekfree_peripheral/SEEKFREE_OLED.c:192
    oled_wrcmd(0xda);//--set com pins hardware configuration
    27ac:	0da00513          	li	a0,218
    27b0:	3bcd                	jal	25a2 <oled_wrcmd>
D:\WCH\代码\3-PIT%20Demo\obj/../Libraries/seekfree_peripheral/SEEKFREE_OLED.c:193
    oled_wrcmd(0x12);
    27b2:	4549                	li	a0,18
    27b4:	33fd                	jal	25a2 <oled_wrcmd>
D:\WCH\代码\3-PIT%20Demo\obj/../Libraries/seekfree_peripheral/SEEKFREE_OLED.c:194
    oled_wrcmd(0xdb);//--set vcomh
    27b6:	0db00513          	li	a0,219
    27ba:	33e5                	jal	25a2 <oled_wrcmd>
D:\WCH\代码\3-PIT%20Demo\obj/../Libraries/seekfree_peripheral/SEEKFREE_OLED.c:195
    oled_wrcmd(0x40);//Set VCOM Deselect Level
    27bc:	04000513          	li	a0,64
    27c0:	33cd                	jal	25a2 <oled_wrcmd>
D:\WCH\代码\3-PIT%20Demo\obj/../Libraries/seekfree_peripheral/SEEKFREE_OLED.c:196
    oled_wrcmd(0x20);//-Set Page Addressing Mode (0x00/0x01/0x02)
    27c2:	02000513          	li	a0,32
    27c6:	3bf1                	jal	25a2 <oled_wrcmd>
D:\WCH\代码\3-PIT%20Demo\obj/../Libraries/seekfree_peripheral/SEEKFREE_OLED.c:197
    oled_wrcmd(0x02);//
    27c8:	4509                	li	a0,2
    27ca:	3be1                	jal	25a2 <oled_wrcmd>
D:\WCH\代码\3-PIT%20Demo\obj/../Libraries/seekfree_peripheral/SEEKFREE_OLED.c:198
    oled_wrcmd(0x8d);//--set Charge Pump enable/disable
    27cc:	08d00513          	li	a0,141
    27d0:	3bc9                	jal	25a2 <oled_wrcmd>
D:\WCH\代码\3-PIT%20Demo\obj/../Libraries/seekfree_peripheral/SEEKFREE_OLED.c:199
    oled_wrcmd(0x14);//--set(0x10) disable
    27d2:	4551                	li	a0,20
    27d4:	33f9                	jal	25a2 <oled_wrcmd>
D:\WCH\代码\3-PIT%20Demo\obj/../Libraries/seekfree_peripheral/SEEKFREE_OLED.c:200
    oled_wrcmd(0xa4);// Disable Entire Display On (0xa4/0xa5)
    27d6:	0a400513          	li	a0,164
    27da:	33e1                	jal	25a2 <oled_wrcmd>
D:\WCH\代码\3-PIT%20Demo\obj/../Libraries/seekfree_peripheral/SEEKFREE_OLED.c:201
    oled_wrcmd(0xa6);// Disable Inverse Display On (0xa6/a7)
    27dc:	0a600513          	li	a0,166
    27e0:	33c9                	jal	25a2 <oled_wrcmd>
D:\WCH\代码\3-PIT%20Demo\obj/../Libraries/seekfree_peripheral/SEEKFREE_OLED.c:202
    oled_wrcmd(0xaf);//--turn on oled panel
    27e2:	0af00513          	li	a0,175
    27e6:	3b75                	jal	25a2 <oled_wrcmd>
D:\WCH\代码\3-PIT%20Demo\obj/../Libraries/seekfree_peripheral/SEEKFREE_OLED.c:203
    oled_fill(0x00);  //初始清屏
    27e8:	4501                	li	a0,0
    27ea:	2075                	jal	2896 <oled_fill>
D:\WCH\代码\3-PIT%20Demo\obj/../Libraries/seekfree_peripheral/SEEKFREE_OLED.c:204
    oled_set_pos(0,0);
    27ec:	4581                	li	a1,0
    27ee:	4501                	li	a0,0
    27f0:	2031                	jal	27fc <oled_set_pos>
D:\WCH\代码\3-PIT%20Demo\obj/../Libraries/seekfree_peripheral/SEEKFREE_OLED.c:205
}
    27f2:	0001                	nop
    27f4:	40b2                	lw	ra,12(sp)
    27f6:	4422                	lw	s0,8(sp)
    27f8:	0141                	addi	sp,sp,16
    27fa:	8082                	ret

000027fc <oled_set_pos>:
oled_set_pos():
D:\WCH\代码\3-PIT%20Demo\obj/../Libraries/seekfree_peripheral/SEEKFREE_OLED.c:216
//  @return     void
//  @since      v1.0
//  Sample usage:
//-------------------------------------------------------------------------------------------------------------------
void oled_set_pos(uint8 x, uint8 y)
{
    27fc:	1101                	addi	sp,sp,-32
    27fe:	ce06                	sw	ra,28(sp)
    2800:	cc22                	sw	s0,24(sp)
    2802:	1000                	addi	s0,sp,32
    2804:	87aa                	mv	a5,a0
    2806:	872e                	mv	a4,a1
    2808:	fef407a3          	sb	a5,-17(s0)
    280c:	87ba                	mv	a5,a4
    280e:	fef40723          	sb	a5,-18(s0)
D:\WCH\代码\3-PIT%20Demo\obj/../Libraries/seekfree_peripheral/SEEKFREE_OLED.c:217
    assert(X_WIDTH>x);      //参数断言，进入断言标志参数超出范围
    2812:	fef40783          	lb	a5,-17(s0)
    2816:	0007df63          	bgez	a5,2834 <oled_set_pos+0x38>
D:\WCH\代码\3-PIT%20Demo\obj/../Libraries/seekfree_peripheral/SEEKFREE_OLED.c:217 (discriminator 1)
    281a:	6799                	lui	a5,0x6
    281c:	6ac78693          	addi	a3,a5,1708 # 66ac <_exit+0x2>
    2820:	679d                	lui	a5,0x7
    2822:	9b878613          	addi	a2,a5,-1608 # 69b8 <__func__.3179>
    2826:	0d900593          	li	a1,217
    282a:	6799                	lui	a5,0x6
    282c:	6b878513          	addi	a0,a5,1720 # 66b8 <_exit+0xe>
    2830:	43b020ef          	jal	ra,546a <__assert_func>
D:\WCH\代码\3-PIT%20Demo\obj/../Libraries/seekfree_peripheral/SEEKFREE_OLED.c:218
    assert((Y_WIDTH/8)>y);
    2834:	fee44703          	lbu	a4,-18(s0)
    2838:	479d                	li	a5,7
    283a:	00e7ff63          	bgeu	a5,a4,2858 <oled_set_pos+0x5c>
D:\WCH\代码\3-PIT%20Demo\obj/../Libraries/seekfree_peripheral/SEEKFREE_OLED.c:218 (discriminator 1)
    283e:	6799                	lui	a5,0x6
    2840:	6ec78693          	addi	a3,a5,1772 # 66ec <_exit+0x42>
    2844:	679d                	lui	a5,0x7
    2846:	9b878613          	addi	a2,a5,-1608 # 69b8 <__func__.3179>
    284a:	0da00593          	li	a1,218
    284e:	6799                	lui	a5,0x6
    2850:	6b878513          	addi	a0,a5,1720 # 66b8 <_exit+0xe>
    2854:	417020ef          	jal	ra,546a <__assert_func>
D:\WCH\代码\3-PIT%20Demo\obj/../Libraries/seekfree_peripheral/SEEKFREE_OLED.c:220
    
    oled_wrcmd(0xb0+y);
    2858:	fee44783          	lbu	a5,-18(s0)
    285c:	fb078793          	addi	a5,a5,-80
    2860:	0ff7f793          	andi	a5,a5,255
    2864:	853e                	mv	a0,a5
    2866:	3b35                	jal	25a2 <oled_wrcmd>
D:\WCH\代码\3-PIT%20Demo\obj/../Libraries/seekfree_peripheral/SEEKFREE_OLED.c:221
    oled_wrcmd(((x&0xf0)>>4)|0x10);
    2868:	fef44783          	lbu	a5,-17(s0)
    286c:	8391                	srli	a5,a5,0x4
    286e:	0ff7f793          	andi	a5,a5,255
    2872:	0107e793          	ori	a5,a5,16
    2876:	0ff7f793          	andi	a5,a5,255
    287a:	853e                	mv	a0,a5
    287c:	331d                	jal	25a2 <oled_wrcmd>
D:\WCH\代码\3-PIT%20Demo\obj/../Libraries/seekfree_peripheral/SEEKFREE_OLED.c:222
    oled_wrcmd((x&0x0f)|0x00);
    287e:	fef44783          	lbu	a5,-17(s0)
    2882:	8bbd                	andi	a5,a5,15
    2884:	0ff7f793          	andi	a5,a5,255
    2888:	853e                	mv	a0,a5
    288a:	3b21                	jal	25a2 <oled_wrcmd>
D:\WCH\代码\3-PIT%20Demo\obj/../Libraries/seekfree_peripheral/SEEKFREE_OLED.c:223
}
    288c:	0001                	nop
    288e:	40f2                	lw	ra,28(sp)
    2890:	4462                	lw	s0,24(sp)
    2892:	6105                	addi	sp,sp,32
    2894:	8082                	ret

00002896 <oled_fill>:
oled_fill():
D:\WCH\代码\3-PIT%20Demo\obj/../Libraries/seekfree_peripheral/SEEKFREE_OLED.c:233
//  @return     void
//  @since      v1.0
//  Sample usage:
//-------------------------------------------------------------------------------------------------------------------
void oled_fill(uint8 bmp_data)
{
    2896:	7179                	addi	sp,sp,-48
    2898:	d606                	sw	ra,44(sp)
    289a:	d422                	sw	s0,40(sp)
    289c:	1800                	addi	s0,sp,48
    289e:	87aa                	mv	a5,a0
    28a0:	fcf40fa3          	sb	a5,-33(s0)
D:\WCH\代码\3-PIT%20Demo\obj/../Libraries/seekfree_peripheral/SEEKFREE_OLED.c:236
    uint8 y,x;

    for(y=0;y<8;y++)
    28a4:	fe0407a3          	sb	zero,-17(s0)
    28a8:	a091                	j	28ec <oled_fill+0x56>
D:\WCH\代码\3-PIT%20Demo\obj/../Libraries/seekfree_peripheral/SEEKFREE_OLED.c:238
    {
        oled_wrcmd(0xb0+y);
    28aa:	fef44783          	lbu	a5,-17(s0)
    28ae:	fb078793          	addi	a5,a5,-80
    28b2:	0ff7f793          	andi	a5,a5,255
    28b6:	853e                	mv	a0,a5
    28b8:	31ed                	jal	25a2 <oled_wrcmd>
D:\WCH\代码\3-PIT%20Demo\obj/../Libraries/seekfree_peripheral/SEEKFREE_OLED.c:239
        oled_wrcmd(0x01);
    28ba:	4505                	li	a0,1
    28bc:	31dd                	jal	25a2 <oled_wrcmd>
D:\WCH\代码\3-PIT%20Demo\obj/../Libraries/seekfree_peripheral/SEEKFREE_OLED.c:240
        oled_wrcmd(0x10);
    28be:	4541                	li	a0,16
    28c0:	31cd                	jal	25a2 <oled_wrcmd>
D:\WCH\代码\3-PIT%20Demo\obj/../Libraries/seekfree_peripheral/SEEKFREE_OLED.c:241
        for(x=0;x<X_WIDTH;x++)  oled_wrdat(bmp_data);
    28c2:	fe040723          	sb	zero,-18(s0)
    28c6:	a811                	j	28da <oled_fill+0x44>
D:\WCH\代码\3-PIT%20Demo\obj/../Libraries/seekfree_peripheral/SEEKFREE_OLED.c:241 (discriminator 3)
    28c8:	fdf44783          	lbu	a5,-33(s0)
    28cc:	853e                	mv	a0,a5
    28ce:	311d                	jal	24f4 <oled_wrdat>
    28d0:	fee44783          	lbu	a5,-18(s0)
    28d4:	0785                	addi	a5,a5,1
    28d6:	fef40723          	sb	a5,-18(s0)
D:\WCH\代码\3-PIT%20Demo\obj/../Libraries/seekfree_peripheral/SEEKFREE_OLED.c:241 (discriminator 1)
    28da:	fee40783          	lb	a5,-18(s0)
    28de:	fe07d5e3          	bgez	a5,28c8 <oled_fill+0x32>
D:\WCH\代码\3-PIT%20Demo\obj/../Libraries/seekfree_peripheral/SEEKFREE_OLED.c:236 (discriminator 2)
    for(y=0;y<8;y++)
    28e2:	fef44783          	lbu	a5,-17(s0)
    28e6:	0785                	addi	a5,a5,1
    28e8:	fef407a3          	sb	a5,-17(s0)
D:\WCH\代码\3-PIT%20Demo\obj/../Libraries/seekfree_peripheral/SEEKFREE_OLED.c:236 (discriminator 1)
    28ec:	fef44703          	lbu	a4,-17(s0)
    28f0:	479d                	li	a5,7
    28f2:	fae7fce3          	bgeu	a5,a4,28aa <oled_fill+0x14>
D:\WCH\代码\3-PIT%20Demo\obj/../Libraries/seekfree_peripheral/SEEKFREE_OLED.c:243
    }
}
    28f6:	0001                	nop
    28f8:	50b2                	lw	ra,44(sp)
    28fa:	5422                	lw	s0,40(sp)
    28fc:	6145                	addi	sp,sp,48
    28fe:	8082                	ret

00002900 <oled_p6x8str>:
oled_p6x8str():
D:\WCH\代码\3-PIT%20Demo\obj/../Libraries/seekfree_peripheral/SEEKFREE_OLED.c:293
//  @return     void
//  @since      v1.0
//  Sample usage:
//-------------------------------------------------------------------------------------------------------------------
void oled_p6x8str(uint8 x,uint8 y,const int8 ch[])
{
    2900:	7179                	addi	sp,sp,-48
    2902:	d606                	sw	ra,44(sp)
    2904:	d422                	sw	s0,40(sp)
    2906:	1800                	addi	s0,sp,48
    2908:	87aa                	mv	a5,a0
    290a:	872e                	mv	a4,a1
    290c:	fcc42c23          	sw	a2,-40(s0)
    2910:	fcf40fa3          	sb	a5,-33(s0)
    2914:	87ba                	mv	a5,a4
    2916:	fcf40f23          	sb	a5,-34(s0)
D:\WCH\代码\3-PIT%20Demo\obj/../Libraries/seekfree_peripheral/SEEKFREE_OLED.c:294
    uint8 c=0,i=0,j=0;
    291a:	fe0406a3          	sb	zero,-19(s0)
    291e:	fe0407a3          	sb	zero,-17(s0)
    2922:	fe040723          	sb	zero,-18(s0)
D:\WCH\代码\3-PIT%20Demo\obj/../Libraries/seekfree_peripheral/SEEKFREE_OLED.c:295
    while (ch[j]!='\0')
    2926:	a849                	j	29b8 <oled_p6x8str+0xb8>
D:\WCH\代码\3-PIT%20Demo\obj/../Libraries/seekfree_peripheral/SEEKFREE_OLED.c:297
    {
        c =ch[j]-32;
    2928:	fee44783          	lbu	a5,-18(s0)
    292c:	fd842703          	lw	a4,-40(s0)
    2930:	97ba                	add	a5,a5,a4
    2932:	00078783          	lb	a5,0(a5)
    2936:	0ff7f793          	andi	a5,a5,255
    293a:	1781                	addi	a5,a5,-32
    293c:	fef406a3          	sb	a5,-19(s0)
D:\WCH\代码\3-PIT%20Demo\obj/../Libraries/seekfree_peripheral/SEEKFREE_OLED.c:298
        if(x>126){x=0;y++;}
    2940:	fdf44703          	lbu	a4,-33(s0)
    2944:	07e00793          	li	a5,126
    2948:	00e7f963          	bgeu	a5,a4,295a <oled_p6x8str+0x5a>
D:\WCH\代码\3-PIT%20Demo\obj/../Libraries/seekfree_peripheral/SEEKFREE_OLED.c:298 (discriminator 1)
    294c:	fc040fa3          	sb	zero,-33(s0)
    2950:	fde44783          	lbu	a5,-34(s0)
    2954:	0785                	addi	a5,a5,1
    2956:	fcf40f23          	sb	a5,-34(s0)
D:\WCH\代码\3-PIT%20Demo\obj/../Libraries/seekfree_peripheral/SEEKFREE_OLED.c:299
        oled_set_pos(x,y);
    295a:	fde44703          	lbu	a4,-34(s0)
    295e:	fdf44783          	lbu	a5,-33(s0)
    2962:	85ba                	mv	a1,a4
    2964:	853e                	mv	a0,a5
    2966:	3d59                	jal	27fc <oled_set_pos>
D:\WCH\代码\3-PIT%20Demo\obj/../Libraries/seekfree_peripheral/SEEKFREE_OLED.c:300
        for(i=0;i<6;i++)    oled_wrdat(oled_6x8[c][i]);
    2968:	fe0407a3          	sb	zero,-17(s0)
    296c:	a03d                	j	299a <oled_p6x8str+0x9a>
D:\WCH\代码\3-PIT%20Demo\obj/../Libraries/seekfree_peripheral/SEEKFREE_OLED.c:300 (discriminator 3)
    296e:	fed44703          	lbu	a4,-19(s0)
    2972:	fef44683          	lbu	a3,-17(s0)
    2976:	6619                	lui	a2,0x6
    2978:	87ba                	mv	a5,a4
    297a:	0786                	slli	a5,a5,0x1
    297c:	97ba                	add	a5,a5,a4
    297e:	0786                	slli	a5,a5,0x1
    2980:	79060713          	addi	a4,a2,1936 # 6790 <oled_6x8>
    2984:	97ba                	add	a5,a5,a4
    2986:	97b6                	add	a5,a5,a3
    2988:	0007c783          	lbu	a5,0(a5)
    298c:	853e                	mv	a0,a5
    298e:	369d                	jal	24f4 <oled_wrdat>
    2990:	fef44783          	lbu	a5,-17(s0)
    2994:	0785                	addi	a5,a5,1
    2996:	fef407a3          	sb	a5,-17(s0)
D:\WCH\代码\3-PIT%20Demo\obj/../Libraries/seekfree_peripheral/SEEKFREE_OLED.c:300 (discriminator 1)
    299a:	fef44703          	lbu	a4,-17(s0)
    299e:	4795                	li	a5,5
    29a0:	fce7f7e3          	bgeu	a5,a4,296e <oled_p6x8str+0x6e>
D:\WCH\代码\3-PIT%20Demo\obj/../Libraries/seekfree_peripheral/SEEKFREE_OLED.c:301
        x+=6;
    29a4:	fdf44783          	lbu	a5,-33(s0)
    29a8:	0799                	addi	a5,a5,6
    29aa:	fcf40fa3          	sb	a5,-33(s0)
D:\WCH\代码\3-PIT%20Demo\obj/../Libraries/seekfree_peripheral/SEEKFREE_OLED.c:302
        j++;
    29ae:	fee44783          	lbu	a5,-18(s0)
    29b2:	0785                	addi	a5,a5,1
    29b4:	fef40723          	sb	a5,-18(s0)
D:\WCH\代码\3-PIT%20Demo\obj/../Libraries/seekfree_peripheral/SEEKFREE_OLED.c:295
    while (ch[j]!='\0')
    29b8:	fee44783          	lbu	a5,-18(s0)
    29bc:	fd842703          	lw	a4,-40(s0)
    29c0:	97ba                	add	a5,a5,a4
    29c2:	00078783          	lb	a5,0(a5)
    29c6:	f3ad                	bnez	a5,2928 <oled_p6x8str+0x28>
D:\WCH\代码\3-PIT%20Demo\obj/../Libraries/seekfree_peripheral/SEEKFREE_OLED.c:304
    }
}
    29c8:	0001                	nop
    29ca:	50b2                	lw	ra,44(sp)
    29cc:	5422                	lw	s0,40(sp)
    29ce:	6145                	addi	sp,sp,48
    29d0:	8082                	ret

000029d2 <oled_int16>:
oled_int16():
D:\WCH\代码\3-PIT%20Demo\obj/../Libraries/seekfree_peripheral/SEEKFREE_OLED.c:364
//  @return     void
//  @since      v1.0
//  Sample usage:
//-------------------------------------------------------------------------------------------------------------------
void oled_int16(uint8 x, uint8 y, int16 num)
{
    29d2:	7179                	addi	sp,sp,-48
    29d4:	d606                	sw	ra,44(sp)
    29d6:	d422                	sw	s0,40(sp)
    29d8:	1800                	addi	s0,sp,48
    29da:	87aa                	mv	a5,a0
    29dc:	86ae                	mv	a3,a1
    29de:	8732                	mv	a4,a2
    29e0:	fcf40fa3          	sb	a5,-33(s0)
    29e4:	87b6                	mv	a5,a3
    29e6:	fcf40f23          	sb	a5,-34(s0)
    29ea:	87ba                	mv	a5,a4
    29ec:	fcf41e23          	sh	a5,-36(s0)
D:\WCH\代码\3-PIT%20Demo\obj/../Libraries/seekfree_peripheral/SEEKFREE_OLED.c:366
    int8 ch[7];
    if(num<0)   {num = -num;oled_p6x8str(x, y, "-");}
    29f0:	fdc41783          	lh	a5,-36(s0)
    29f4:	0207d563          	bgez	a5,2a1e <oled_int16+0x4c>
D:\WCH\代码\3-PIT%20Demo\obj/../Libraries/seekfree_peripheral/SEEKFREE_OLED.c:366 (discriminator 1)
    29f8:	fdc45783          	lhu	a5,-36(s0)
    29fc:	40f007b3          	neg	a5,a5
    2a00:	07c2                	slli	a5,a5,0x10
    2a02:	83c1                	srli	a5,a5,0x10
    2a04:	fcf41e23          	sh	a5,-36(s0)
    2a08:	fde44683          	lbu	a3,-34(s0)
    2a0c:	fdf44703          	lbu	a4,-33(s0)
    2a10:	6799                	lui	a5,0x6
    2a12:	6fc78613          	addi	a2,a5,1788 # 66fc <_exit+0x52>
    2a16:	85b6                	mv	a1,a3
    2a18:	853a                	mv	a0,a4
    2a1a:	35dd                	jal	2900 <oled_p6x8str>
    2a1c:	a819                	j	2a32 <oled_int16+0x60>
D:\WCH\代码\3-PIT%20Demo\obj/../Libraries/seekfree_peripheral/SEEKFREE_OLED.c:367
    else         oled_p6x8str(x, y, " ");
    2a1e:	fde44683          	lbu	a3,-34(s0)
    2a22:	fdf44703          	lbu	a4,-33(s0)
    2a26:	6799                	lui	a5,0x6
    2a28:	70078613          	addi	a2,a5,1792 # 6700 <_exit+0x56>
    2a2c:	85b6                	mv	a1,a3
    2a2e:	853a                	mv	a0,a4
    2a30:	3dc1                	jal	2900 <oled_p6x8str>
D:\WCH\代码\3-PIT%20Demo\obj/../Libraries/seekfree_peripheral/SEEKFREE_OLED.c:368
    x+=6;
    2a32:	fdf44783          	lbu	a5,-33(s0)
    2a36:	0799                	addi	a5,a5,6
    2a38:	fcf40fa3          	sb	a5,-33(s0)
D:\WCH\代码\3-PIT%20Demo\obj/../Libraries/seekfree_peripheral/SEEKFREE_OLED.c:370
    
    oled_hexascii(num,ch);
    2a3c:	fdc45783          	lhu	a5,-36(s0)
    2a40:	fe840713          	addi	a4,s0,-24
    2a44:	85ba                	mv	a1,a4
    2a46:	853e                	mv	a0,a5
    2a48:	3121                	jal	2650 <oled_hexascii>
D:\WCH\代码\3-PIT%20Demo\obj/../Libraries/seekfree_peripheral/SEEKFREE_OLED.c:371
    oled_p6x8str(x, y, &ch[1]);     //显示数字  6*8字体
    2a4a:	fe840793          	addi	a5,s0,-24
    2a4e:	00178693          	addi	a3,a5,1
    2a52:	fde44703          	lbu	a4,-34(s0)
    2a56:	fdf44783          	lbu	a5,-33(s0)
    2a5a:	8636                	mv	a2,a3
    2a5c:	85ba                	mv	a1,a4
    2a5e:	853e                	mv	a0,a5
    2a60:	3545                	jal	2900 <oled_p6x8str>
D:\WCH\代码\3-PIT%20Demo\obj/../Libraries/seekfree_peripheral/SEEKFREE_OLED.c:372
}
    2a62:	0001                	nop
    2a64:	50b2                	lw	ra,44(sp)
    2a66:	5422                	lw	s0,40(sp)
    2a68:	6145                	addi	sp,sp,48
    2a6a:	8082                	ret

00002a6c <gpio_init>:
gpio_init():
D:\WCH\代码\3-PIT%20Demo\obj/../Libraries/seekfree_libraries/zf_gpio.c:40
//  @param      pinconf     引脚配置（可设置参数由zf_gpio.h文件内GPIOSPEED_enum与GPIOMODE_enum枚举值确定，多个条件使用 | 相或）
//  @return     void
//  Sample usage:           gpio_init(D0, GPO, 1, GPIO_PIN_CONFIG);//D0初始化为GPIO功能、输出模式、输出高电平、速度100MHZ 推挽输出
//-------------------------------------------------------------------------------------------------------------------
void gpio_init(PIN_enum pin, GPIODIR_enum dir, uint8 dat, uint32 pinconf)
{
    2a6c:	7179                	addi	sp,sp,-48
    2a6e:	d606                	sw	ra,44(sp)
    2a70:	d422                	sw	s0,40(sp)
    2a72:	1800                	addi	s0,sp,48
    2a74:	fca42e23          	sw	a0,-36(s0)
    2a78:	fcb42c23          	sw	a1,-40(s0)
    2a7c:	87b2                	mv	a5,a2
    2a7e:	fcd42823          	sw	a3,-48(s0)
    2a82:	fcf40ba3          	sb	a5,-41(s0)
D:\WCH\代码\3-PIT%20Demo\obj/../Libraries/seekfree_libraries/zf_gpio.c:42
    GPIO_InitTypeDef GPIO_InitStructure;
    uint8 io_group = (pin & 0xE0) >> 5;
    2a86:	fdc42783          	lw	a5,-36(s0)
    2a8a:	8395                	srli	a5,a5,0x5
    2a8c:	0ff7f793          	andi	a5,a5,255
    2a90:	8b9d                	andi	a5,a5,7
    2a92:	fef407a3          	sb	a5,-17(s0)
D:\WCH\代码\3-PIT%20Demo\obj/../Libraries/seekfree_libraries/zf_gpio.c:43
    uint8 io_pin = pin & 0x1F;
    2a96:	fdc42783          	lw	a5,-36(s0)
    2a9a:	0ff7f793          	andi	a5,a5,255
    2a9e:	8bfd                	andi	a5,a5,31
    2aa0:	fef40723          	sb	a5,-18(s0)
D:\WCH\代码\3-PIT%20Demo\obj/../Libraries/seekfree_libraries/zf_gpio.c:46


    if(PIN_NULL == pin) return;
    2aa4:	fdc42703          	lw	a4,-36(s0)
    2aa8:	08000793          	li	a5,128
    2aac:	14f70d63          	beq	a4,a5,2c06 <gpio_init+0x19a>
D:\WCH\代码\3-PIT%20Demo\obj/../Libraries/seekfree_libraries/zf_gpio.c:48
    //GPIO总线使能
    if(0 == (pin >> 5))      RCC_APB2PeriphClockCmd(RCC_APB2Periph_GPIOA, ENABLE);
    2ab0:	fdc42783          	lw	a5,-36(s0)
    2ab4:	8395                	srli	a5,a5,0x5
    2ab6:	e791                	bnez	a5,2ac2 <gpio_init+0x56>
D:\WCH\代码\3-PIT%20Demo\obj/../Libraries/seekfree_libraries/zf_gpio.c:48 (discriminator 1)
    2ab8:	4585                	li	a1,1
    2aba:	4511                	li	a0,4
    2abc:	91efe0ef          	jal	ra,bda <RCC_APB2PeriphClockCmd>
    2ac0:	a861                	j	2b58 <gpio_init+0xec>
D:\WCH\代码\3-PIT%20Demo\obj/../Libraries/seekfree_libraries/zf_gpio.c:49
    else if(1 == (pin >> 5)) RCC_APB2PeriphClockCmd(RCC_APB2Periph_GPIOB, ENABLE);
    2ac2:	fdc42783          	lw	a5,-36(s0)
    2ac6:	0057d713          	srli	a4,a5,0x5
    2aca:	4785                	li	a5,1
    2acc:	00f71763          	bne	a4,a5,2ada <gpio_init+0x6e>
D:\WCH\代码\3-PIT%20Demo\obj/../Libraries/seekfree_libraries/zf_gpio.c:49 (discriminator 1)
    2ad0:	4585                	li	a1,1
    2ad2:	4521                	li	a0,8
    2ad4:	906fe0ef          	jal	ra,bda <RCC_APB2PeriphClockCmd>
    2ad8:	a041                	j	2b58 <gpio_init+0xec>
D:\WCH\代码\3-PIT%20Demo\obj/../Libraries/seekfree_libraries/zf_gpio.c:50
    else if(2 == (pin >> 5)) RCC_APB2PeriphClockCmd(RCC_APB2Periph_GPIOC, ENABLE);
    2ada:	fdc42783          	lw	a5,-36(s0)
    2ade:	0057d713          	srli	a4,a5,0x5
    2ae2:	4789                	li	a5,2
    2ae4:	00f71763          	bne	a4,a5,2af2 <gpio_init+0x86>
D:\WCH\代码\3-PIT%20Demo\obj/../Libraries/seekfree_libraries/zf_gpio.c:50 (discriminator 1)
    2ae8:	4585                	li	a1,1
    2aea:	4541                	li	a0,16
    2aec:	8eefe0ef          	jal	ra,bda <RCC_APB2PeriphClockCmd>
    2af0:	a0a5                	j	2b58 <gpio_init+0xec>
D:\WCH\代码\3-PIT%20Demo\obj/../Libraries/seekfree_libraries/zf_gpio.c:51
    else if(3 == (pin >> 5)) RCC_APB2PeriphClockCmd(RCC_APB2Periph_GPIOD, ENABLE);
    2af2:	fdc42783          	lw	a5,-36(s0)
    2af6:	0057d713          	srli	a4,a5,0x5
    2afa:	478d                	li	a5,3
    2afc:	00f71863          	bne	a4,a5,2b0c <gpio_init+0xa0>
D:\WCH\代码\3-PIT%20Demo\obj/../Libraries/seekfree_libraries/zf_gpio.c:51 (discriminator 1)
    2b00:	4585                	li	a1,1
    2b02:	02000513          	li	a0,32
    2b06:	8d4fe0ef          	jal	ra,bda <RCC_APB2PeriphClockCmd>
    2b0a:	a0b9                	j	2b58 <gpio_init+0xec>
D:\WCH\代码\3-PIT%20Demo\obj/../Libraries/seekfree_libraries/zf_gpio.c:52
    else if(4 == (pin >> 5)) RCC_APB2PeriphClockCmd(RCC_APB2Periph_GPIOE, ENABLE);
    2b0c:	fdc42783          	lw	a5,-36(s0)
    2b10:	0057d713          	srli	a4,a5,0x5
    2b14:	4791                	li	a5,4
    2b16:	00f71863          	bne	a4,a5,2b26 <gpio_init+0xba>
D:\WCH\代码\3-PIT%20Demo\obj/../Libraries/seekfree_libraries/zf_gpio.c:52 (discriminator 1)
    2b1a:	4585                	li	a1,1
    2b1c:	04000513          	li	a0,64
    2b20:	8bafe0ef          	jal	ra,bda <RCC_APB2PeriphClockCmd>
    2b24:	a815                	j	2b58 <gpio_init+0xec>
D:\WCH\代码\3-PIT%20Demo\obj/../Libraries/seekfree_libraries/zf_gpio.c:53
    else if(5 == (pin >> 5)) RCC_APB2PeriphClockCmd(RCC_APB2Periph_GPIOF, ENABLE);
    2b26:	fdc42783          	lw	a5,-36(s0)
    2b2a:	0057d713          	srli	a4,a5,0x5
    2b2e:	4795                	li	a5,5
    2b30:	00f71863          	bne	a4,a5,2b40 <gpio_init+0xd4>
D:\WCH\代码\3-PIT%20Demo\obj/../Libraries/seekfree_libraries/zf_gpio.c:53 (discriminator 1)
    2b34:	4585                	li	a1,1
    2b36:	08000513          	li	a0,128
    2b3a:	8a0fe0ef          	jal	ra,bda <RCC_APB2PeriphClockCmd>
    2b3e:	a829                	j	2b58 <gpio_init+0xec>
D:\WCH\代码\3-PIT%20Demo\obj/../Libraries/seekfree_libraries/zf_gpio.c:54
    else if(6 == (pin >> 5)) RCC_APB2PeriphClockCmd(RCC_APB2Periph_GPIOG, ENABLE);
    2b40:	fdc42783          	lw	a5,-36(s0)
    2b44:	0057d713          	srli	a4,a5,0x5
    2b48:	4799                	li	a5,6
    2b4a:	00f71763          	bne	a4,a5,2b58 <gpio_init+0xec>
D:\WCH\代码\3-PIT%20Demo\obj/../Libraries/seekfree_libraries/zf_gpio.c:54 (discriminator 1)
    2b4e:	4585                	li	a1,1
    2b50:	10000513          	li	a0,256
    2b54:	886fe0ef          	jal	ra,bda <RCC_APB2PeriphClockCmd>
D:\WCH\代码\3-PIT%20Demo\obj/../Libraries/seekfree_libraries/zf_gpio.c:58


    //设置引脚号
    GPIO_InitStructure.GPIO_Pin = (uint16)(1 << io_pin);
    2b58:	fee44783          	lbu	a5,-18(s0)
    2b5c:	4705                	li	a4,1
    2b5e:	00f717b3          	sll	a5,a4,a5
    2b62:	07c2                	slli	a5,a5,0x10
    2b64:	83c1                	srli	a5,a5,0x10
    2b66:	fef41023          	sh	a5,-32(s0)
D:\WCH\代码\3-PIT%20Demo\obj/../Libraries/seekfree_libraries/zf_gpio.c:60

    if(GPO == dir)
    2b6a:	fd842703          	lw	a4,-40(s0)
    2b6e:	4785                	li	a5,1
    2b70:	02f71763          	bne	a4,a5,2b9e <gpio_init+0x132>
D:\WCH\代码\3-PIT%20Demo\obj/../Libraries/seekfree_libraries/zf_gpio.c:63
    {
        //只有输出需要设置速度
        if((uint16)pinconf >> 8 == 0) GPIO_InitStructure.GPIO_Speed = (GPIOSpeed_TypeDef)(GPIO_Speed_50MHz);  //防止没有填写这个参数,默认设置50Mhz
    2b74:	fd042783          	lw	a5,-48(s0)
    2b78:	07c2                	slli	a5,a5,0x10
    2b7a:	83c1                	srli	a5,a5,0x10
    2b7c:	83a1                	srli	a5,a5,0x8
    2b7e:	07c2                	slli	a5,a5,0x10
    2b80:	83c1                	srli	a5,a5,0x10
    2b82:	e789                	bnez	a5,2b8c <gpio_init+0x120>
D:\WCH\代码\3-PIT%20Demo\obj/../Libraries/seekfree_libraries/zf_gpio.c:63 (discriminator 1)
    2b84:	478d                	li	a5,3
    2b86:	fef42223          	sw	a5,-28(s0)
    2b8a:	a811                	j	2b9e <gpio_init+0x132>
D:\WCH\代码\3-PIT%20Demo\obj/../Libraries/seekfree_libraries/zf_gpio.c:64
        else GPIO_InitStructure.GPIO_Speed = (GPIOSpeed_TypeDef)((uint16)pinconf >> 8);                       //已经填写了该参数。根据值来设置
    2b8c:	fd042783          	lw	a5,-48(s0)
    2b90:	07c2                	slli	a5,a5,0x10
    2b92:	83c1                	srli	a5,a5,0x10
    2b94:	83a1                	srli	a5,a5,0x8
    2b96:	07c2                	slli	a5,a5,0x10
    2b98:	83c1                	srli	a5,a5,0x10
    2b9a:	fef42223          	sw	a5,-28(s0)
D:\WCH\代码\3-PIT%20Demo\obj/../Libraries/seekfree_libraries/zf_gpio.c:68
    }

    //设置模式
    GPIO_InitStructure.GPIO_Mode = (GPIOMode_TypeDef)((uint16)pinconf & 0xff);
    2b9e:	fd042783          	lw	a5,-48(s0)
    2ba2:	07c2                	slli	a5,a5,0x10
    2ba4:	83c1                	srli	a5,a5,0x10
    2ba6:	0ff7f793          	andi	a5,a5,255
    2baa:	fef42423          	sw	a5,-24(s0)
D:\WCH\代码\3-PIT%20Demo\obj/../Libraries/seekfree_libraries/zf_gpio.c:69
    GPIO_Init((GPIO_TypeDef *)(GPION[io_group]), &GPIO_InitStructure);
    2bae:	fef44703          	lbu	a4,-17(s0)
    2bb2:	679d                	lui	a5,0x7
    2bb4:	070a                	slli	a4,a4,0x2
    2bb6:	9c878793          	addi	a5,a5,-1592 # 69c8 <GPION>
    2bba:	97ba                	add	a5,a5,a4
    2bbc:	439c                	lw	a5,0(a5)
    2bbe:	873e                	mv	a4,a5
    2bc0:	fe040793          	addi	a5,s0,-32
    2bc4:	85be                	mv	a1,a5
    2bc6:	853a                	mv	a0,a4
    2bc8:	fa6fd0ef          	jal	ra,36e <GPIO_Init>
D:\WCH\代码\3-PIT%20Demo\obj/../Libraries/seekfree_libraries/zf_gpio.c:71

    if(GPO == dir)
    2bcc:	fd842703          	lw	a4,-40(s0)
    2bd0:	4785                	li	a5,1
    2bd2:	02f71b63          	bne	a4,a5,2c08 <gpio_init+0x19c>
D:\WCH\代码\3-PIT%20Demo\obj/../Libraries/seekfree_libraries/zf_gpio.c:74
    {
        //只有输出需要设置引脚状态
        GPIO_WriteBit((GPIO_TypeDef *)(GPION[io_group]), (uint16)(1 << io_pin), dat);
    2bd6:	fef44703          	lbu	a4,-17(s0)
    2bda:	679d                	lui	a5,0x7
    2bdc:	070a                	slli	a4,a4,0x2
    2bde:	9c878793          	addi	a5,a5,-1592 # 69c8 <GPION>
    2be2:	97ba                	add	a5,a5,a4
    2be4:	439c                	lw	a5,0(a5)
    2be6:	86be                	mv	a3,a5
    2be8:	fee44783          	lbu	a5,-18(s0)
    2bec:	4705                	li	a4,1
    2bee:	00f717b3          	sll	a5,a4,a5
    2bf2:	07c2                	slli	a5,a5,0x10
    2bf4:	83c1                	srli	a5,a5,0x10
    2bf6:	fd744703          	lbu	a4,-41(s0)
    2bfa:	863a                	mv	a2,a4
    2bfc:	85be                	mv	a1,a5
    2bfe:	8536                	mv	a0,a3
    2c00:	999fd0ef          	jal	ra,598 <GPIO_WriteBit>
    2c04:	a011                	j	2c08 <gpio_init+0x19c>
D:\WCH\代码\3-PIT%20Demo\obj/../Libraries/seekfree_libraries/zf_gpio.c:46
    if(PIN_NULL == pin) return;
    2c06:	0001                	nop
D:\WCH\代码\3-PIT%20Demo\obj/../Libraries/seekfree_libraries/zf_gpio.c:76
    }
}
    2c08:	50b2                	lw	ra,44(sp)
    2c0a:	5422                	lw	s0,40(sp)
    2c0c:	6145                	addi	sp,sp,48
    2c0e:	8082                	ret

00002c10 <gpio_get>:
gpio_get():
D:\WCH\代码\3-PIT%20Demo\obj/../Libraries/seekfree_libraries/zf_gpio.c:103
//  @param      pin         选择的引脚 (可选择范围由 common.h 内PIN_enum枚举值确定)
//  @return     uint8       0：低电平 1：高电平
//  Sample usage:           uint8 status = gpio_get(D0);//获取D0引脚电平
//-------------------------------------------------------------------------------------------------------------------
uint8 gpio_get(PIN_enum pin)
{
    2c10:	7179                	addi	sp,sp,-48
    2c12:	d622                	sw	s0,44(sp)
    2c14:	1800                	addi	s0,sp,48
    2c16:	fca42e23          	sw	a0,-36(s0)
D:\WCH\代码\3-PIT%20Demo\obj/../Libraries/seekfree_libraries/zf_gpio.c:104
    uint8 io_group = (pin & 0xE0) >> 5;
    2c1a:	fdc42783          	lw	a5,-36(s0)
    2c1e:	8395                	srli	a5,a5,0x5
    2c20:	0ff7f793          	andi	a5,a5,255
    2c24:	8b9d                	andi	a5,a5,7
    2c26:	fef407a3          	sb	a5,-17(s0)
D:\WCH\代码\3-PIT%20Demo\obj/../Libraries/seekfree_libraries/zf_gpio.c:105
    uint8 io_pin = pin & 0x1F;
    2c2a:	fdc42783          	lw	a5,-36(s0)
    2c2e:	0ff7f793          	andi	a5,a5,255
    2c32:	8bfd                	andi	a5,a5,31
    2c34:	fef40723          	sb	a5,-18(s0)
D:\WCH\代码\3-PIT%20Demo\obj/../Libraries/seekfree_libraries/zf_gpio.c:107

    if((((GPIO_TypeDef *)(GPION[io_group]))->INDR & (1 << io_pin)) != 0)
    2c38:	fef44703          	lbu	a4,-17(s0)
    2c3c:	679d                	lui	a5,0x7
    2c3e:	070a                	slli	a4,a4,0x2
    2c40:	9c878793          	addi	a5,a5,-1592 # 69c8 <GPION>
    2c44:	97ba                	add	a5,a5,a4
    2c46:	439c                	lw	a5,0(a5)
    2c48:	479c                	lw	a5,8(a5)
    2c4a:	fee44703          	lbu	a4,-18(s0)
    2c4e:	4685                	li	a3,1
    2c50:	00e69733          	sll	a4,a3,a4
    2c54:	8ff9                	and	a5,a5,a4
    2c56:	c399                	beqz	a5,2c5c <gpio_get+0x4c>
D:\WCH\代码\3-PIT%20Demo\obj/../Libraries/seekfree_libraries/zf_gpio.c:109
    {
        return 1;
    2c58:	4785                	li	a5,1
    2c5a:	a011                	j	2c5e <gpio_get+0x4e>
D:\WCH\代码\3-PIT%20Demo\obj/../Libraries/seekfree_libraries/zf_gpio.c:111
    }
    return 0;
    2c5c:	4781                	li	a5,0
D:\WCH\代码\3-PIT%20Demo\obj/../Libraries/seekfree_libraries/zf_gpio.c:114


}
    2c5e:	853e                	mv	a0,a5
    2c60:	5432                	lw	s0,44(sp)
    2c62:	6145                	addi	sp,sp,48
    2c64:	8082                	ret

00002c66 <gpio_toggle>:
gpio_toggle():
D:\WCH\代码\3-PIT%20Demo\obj/../Libraries/seekfree_libraries/zf_gpio.c:124
//  @param      pin         选择的引脚 (可选择范围由 common.h 内PIN_enum枚举值确定)
//  @return     void        
//  Sample usage:           gpio_toggle(D5);//D5引脚电平翻转
//-------------------------------------------------------------------------------------------------------------------
void gpio_toggle(PIN_enum pin)
{
    2c66:	7179                	addi	sp,sp,-48
    2c68:	d622                	sw	s0,44(sp)
    2c6a:	1800                	addi	s0,sp,48
    2c6c:	fca42e23          	sw	a0,-36(s0)
D:\WCH\代码\3-PIT%20Demo\obj/../Libraries/seekfree_libraries/zf_gpio.c:125
    uint8 io_group = (pin & 0xE0) >> 5;
    2c70:	fdc42783          	lw	a5,-36(s0)
    2c74:	8395                	srli	a5,a5,0x5
    2c76:	0ff7f793          	andi	a5,a5,255
    2c7a:	8b9d                	andi	a5,a5,7
    2c7c:	fef407a3          	sb	a5,-17(s0)
D:\WCH\代码\3-PIT%20Demo\obj/../Libraries/seekfree_libraries/zf_gpio.c:126
    uint8 io_pin = pin & 0x1F;
    2c80:	fdc42783          	lw	a5,-36(s0)
    2c84:	0ff7f793          	andi	a5,a5,255
    2c88:	8bfd                	andi	a5,a5,31
    2c8a:	fef40723          	sb	a5,-18(s0)
D:\WCH\代码\3-PIT%20Demo\obj/../Libraries/seekfree_libraries/zf_gpio.c:128

    ((GPIO_TypeDef *)(GPION[io_group]))->OUTDR ^= (uint16)(1 << io_pin);
    2c8e:	fef44703          	lbu	a4,-17(s0)
    2c92:	679d                	lui	a5,0x7
    2c94:	070a                	slli	a4,a4,0x2
    2c96:	9c878793          	addi	a5,a5,-1592 # 69c8 <GPION>
    2c9a:	97ba                	add	a5,a5,a4
    2c9c:	439c                	lw	a5,0(a5)
    2c9e:	47dc                	lw	a5,12(a5)
    2ca0:	fee44703          	lbu	a4,-18(s0)
    2ca4:	4685                	li	a3,1
    2ca6:	00e69733          	sll	a4,a3,a4
    2caa:	0742                	slli	a4,a4,0x10
    2cac:	8341                	srli	a4,a4,0x10
    2cae:	863a                	mv	a2,a4
    2cb0:	fef44683          	lbu	a3,-17(s0)
    2cb4:	671d                	lui	a4,0x7
    2cb6:	068a                	slli	a3,a3,0x2
    2cb8:	9c870713          	addi	a4,a4,-1592 # 69c8 <GPION>
    2cbc:	9736                	add	a4,a4,a3
    2cbe:	4318                	lw	a4,0(a4)
    2cc0:	8fb1                	xor	a5,a5,a2
    2cc2:	c75c                	sw	a5,12(a4)
D:\WCH\代码\3-PIT%20Demo\obj/../Libraries/seekfree_libraries/zf_gpio.c:129
}
    2cc4:	0001                	nop
    2cc6:	5432                	lw	s0,44(sp)
    2cc8:	6145                	addi	sp,sp,48
    2cca:	8082                	ret

00002ccc <nvic_init>:
nvic_init():
D:\WCH\代码\3-PIT%20Demo\obj/../Libraries/seekfree_libraries/zf_nvic.c:38
//  @param      status                      使能或者失能
//  @return     void
//  Sample usage:                           nvic_init(EXTI0_IRQn,0, 0, ENABLE); //外部中断0使能,抢占优先级最高，次优先级最高。
//-------------------------------------------------------------------------------------------------------------------
void nvic_init(IRQn_Type irqn,uint8 preemption_priority, uint8 sub_priority,uint8 status)
{
    2ccc:	7179                	addi	sp,sp,-48
    2cce:	d606                	sw	ra,44(sp)
    2cd0:	d422                	sw	s0,40(sp)
    2cd2:	1800                	addi	s0,sp,48
    2cd4:	fca42e23          	sw	a0,-36(s0)
    2cd8:	87ae                	mv	a5,a1
    2cda:	8736                	mv	a4,a3
    2cdc:	fcf40da3          	sb	a5,-37(s0)
    2ce0:	87b2                	mv	a5,a2
    2ce2:	fcf40d23          	sb	a5,-38(s0)
    2ce6:	87ba                	mv	a5,a4
    2ce8:	fcf40ca3          	sb	a5,-39(s0)
D:\WCH\代码\3-PIT%20Demo\obj/../Libraries/seekfree_libraries/zf_nvic.c:41
    NVIC_InitTypeDef NVIC_InitStructure;

    NVIC_InitStructure.NVIC_IRQChannel = irqn;                                  //中断号设置
    2cec:	fdc42783          	lw	a5,-36(s0)
    2cf0:	0ff7f793          	andi	a5,a5,255
    2cf4:	fef40423          	sb	a5,-24(s0)
D:\WCH\代码\3-PIT%20Demo\obj/../Libraries/seekfree_libraries/zf_nvic.c:42
    NVIC_InitStructure.NVIC_IRQChannelPreemptionPriority=preemption_priority;   //抢占优先级值越小，优先级越高
    2cf8:	fdb44783          	lbu	a5,-37(s0)
    2cfc:	fef404a3          	sb	a5,-23(s0)
D:\WCH\代码\3-PIT%20Demo\obj/../Libraries/seekfree_libraries/zf_nvic.c:43
    NVIC_InitStructure.NVIC_IRQChannelSubPriority = sub_priority;               //次优先级值越小，优先级越高
    2d00:	fda44783          	lbu	a5,-38(s0)
    2d04:	fef40523          	sb	a5,-22(s0)
D:\WCH\代码\3-PIT%20Demo\obj/../Libraries/seekfree_libraries/zf_nvic.c:44
    NVIC_InitStructure.NVIC_IRQChannelCmd = status;                             //使能
    2d08:	fd944783          	lbu	a5,-39(s0)
    2d0c:	fef42623          	sw	a5,-20(s0)
D:\WCH\代码\3-PIT%20Demo\obj/../Libraries/seekfree_libraries/zf_nvic.c:45
    NVIC_Init(&NVIC_InitStructure);
    2d10:	fe840793          	addi	a5,s0,-24
    2d14:	853e                	mv	a0,a5
    2d16:	a85fd0ef          	jal	ra,79a <NVIC_Init>
D:\WCH\代码\3-PIT%20Demo\obj/../Libraries/seekfree_libraries/zf_nvic.c:48

    //保存状态值
    irq_status.ienr0 |= (PFIC->ISR[0] & 0xFFFFF000);    //[31:12]
    2d1a:	e000e7b7          	lui	a5,0xe000e
    2d1e:	4398                	lw	a4,0(a5)
    2d20:	77fd                	lui	a5,0xfffff
    2d22:	8f7d                	and	a4,a4,a5
    2d24:	8541a783          	lw	a5,-1964(gp) # 200000dc <irq_status>
    2d28:	8f5d                	or	a4,a4,a5
    2d2a:	84e1aa23          	sw	a4,-1964(gp) # 200000dc <irq_status>
D:\WCH\代码\3-PIT%20Demo\obj/../Libraries/seekfree_libraries/zf_nvic.c:49
    irq_status.ienr1 |= (PFIC->ISR[1] & 0x0FFFFFFF);    //[27:0]
    2d2e:	e000e7b7          	lui	a5,0xe000e
    2d32:	43d8                	lw	a4,4(a5)
    2d34:	100007b7          	lui	a5,0x10000
    2d38:	17fd                	addi	a5,a5,-1
    2d3a:	8f7d                	and	a4,a4,a5
    2d3c:	85418793          	addi	a5,gp,-1964 # 200000dc <irq_status>
    2d40:	43dc                	lw	a5,4(a5)
    2d42:	8f5d                	or	a4,a4,a5
    2d44:	85418793          	addi	a5,gp,-1964 # 200000dc <irq_status>
    2d48:	c3d8                	sw	a4,4(a5)
D:\WCH\代码\3-PIT%20Demo\obj/../Libraries/seekfree_libraries/zf_nvic.c:50
    if(irq_status.flag == 1)
    2d4a:	85418793          	addi	a5,gp,-1964 # 200000dc <irq_status>
    2d4e:	0087c703          	lbu	a4,8(a5) # 10000008 <_data_lma+0xfff938c>
    2d52:	4785                	li	a5,1
    2d54:	00f71363          	bne	a4,a5,2d5a <nvic_init+0x8e>
D:\WCH\代码\3-PIT%20Demo\obj/../Libraries/seekfree_libraries/zf_nvic.c:52
    {
        close_all_irq();
    2d58:	2031                	jal	2d64 <close_all_irq>
D:\WCH\代码\3-PIT%20Demo\obj/../Libraries/seekfree_libraries/zf_nvic.c:54
    }
}
    2d5a:	0001                	nop
    2d5c:	50b2                	lw	ra,44(sp)
    2d5e:	5422                	lw	s0,40(sp)
    2d60:	6145                	addi	sp,sp,48
    2d62:	8082                	ret

00002d64 <close_all_irq>:
close_all_irq():
D:\WCH\代码\3-PIT%20Demo\obj/../Libraries/seekfree_libraries/zf_nvic.c:63
//  @return     void
//  @since      v1.0
//  Sample usage:
//-------------------------------------------------------------------------------------------------------------------
void close_all_irq(void)
{
    2d64:	1141                	addi	sp,sp,-16
    2d66:	c622                	sw	s0,12(sp)
    2d68:	0800                	addi	s0,sp,16
D:\WCH\代码\3-PIT%20Demo\obj/../Libraries/seekfree_libraries/zf_nvic.c:65
    //写1，清空状态
    PFIC->IRER[0] = 0xffffffff;
    2d6a:	e000e7b7          	lui	a5,0xe000e
    2d6e:	577d                	li	a4,-1
    2d70:	18e7a023          	sw	a4,384(a5) # e000e180 <_eusrstack+0xc0009180>
D:\WCH\代码\3-PIT%20Demo\obj/../Libraries/seekfree_libraries/zf_nvic.c:66
    PFIC->IRER[1] = 0xffffffff;
    2d74:	e000e7b7          	lui	a5,0xe000e
    2d78:	577d                	li	a4,-1
    2d7a:	18e7a223          	sw	a4,388(a5) # e000e184 <_eusrstack+0xc0009184>
D:\WCH\代码\3-PIT%20Demo\obj/../Libraries/seekfree_libraries/zf_nvic.c:67
}
    2d7e:	0001                	nop
    2d80:	4432                	lw	s0,12(sp)
    2d82:	0141                	addi	sp,sp,16
    2d84:	8082                	ret

00002d86 <sys_recover_irq>:
sys_recover_irq():
D:\WCH\代码\3-PIT%20Demo\obj/../Libraries/seekfree_libraries/zf_nvic.c:77
//  @return     void
//  @since      v1.0
//  Sample usage:
//-------------------------------------------------------------------------------------------------------------------
void sys_recover_irq(void)
{
    2d86:	1141                	addi	sp,sp,-16
    2d88:	c622                	sw	s0,12(sp)
    2d8a:	0800                	addi	s0,sp,16
D:\WCH\代码\3-PIT%20Demo\obj/../Libraries/seekfree_libraries/zf_nvic.c:78
    PFIC->IENR[0] = irq_status.ienr0;
    2d8c:	e000e7b7          	lui	a5,0xe000e
    2d90:	8541a703          	lw	a4,-1964(gp) # 200000dc <irq_status>
    2d94:	10e7a023          	sw	a4,256(a5) # e000e100 <_eusrstack+0xc0009100>
D:\WCH\代码\3-PIT%20Demo\obj/../Libraries/seekfree_libraries/zf_nvic.c:79
    PFIC->IENR[1] = irq_status.ienr1;
    2d98:	e000e7b7          	lui	a5,0xe000e
    2d9c:	85418713          	addi	a4,gp,-1964 # 200000dc <irq_status>
    2da0:	4358                	lw	a4,4(a4)
    2da2:	10e7a223          	sw	a4,260(a5) # e000e104 <_eusrstack+0xc0009104>
D:\WCH\代码\3-PIT%20Demo\obj/../Libraries/seekfree_libraries/zf_nvic.c:80
}
    2da6:	0001                	nop
    2da8:	4432                	lw	s0,12(sp)
    2daa:	0141                	addi	sp,sp,16
    2dac:	8082                	ret

00002dae <EnableGlobalIRQ>:
EnableGlobalIRQ():
D:\WCH\代码\3-PIT%20Demo\obj/../Libraries/seekfree_libraries/zf_nvic.c:107
//  @return     void
//  @since      v1.0
//  Sample usage:
//-------------------------------------------------------------------------------------------------------------------
void EnableGlobalIRQ(uint8 state)
{
    2dae:	1101                	addi	sp,sp,-32
    2db0:	ce06                	sw	ra,28(sp)
    2db2:	cc22                	sw	s0,24(sp)
    2db4:	1000                	addi	s0,sp,32
    2db6:	87aa                	mv	a5,a0
    2db8:	fef407a3          	sb	a5,-17(s0)
D:\WCH\代码\3-PIT%20Demo\obj/../Libraries/seekfree_libraries/zf_nvic.c:108
    if(state == 0)
    2dbc:	fef44783          	lbu	a5,-17(s0)
    2dc0:	e781                	bnez	a5,2dc8 <EnableGlobalIRQ+0x1a>
D:\WCH\代码\3-PIT%20Demo\obj/../Libraries/seekfree_libraries/zf_nvic.c:110
    {
        close_all_irq_flag = 0;
    2dc2:	82018623          	sb	zero,-2004(gp) # 200000b4 <close_all_irq_flag>
D:\WCH\代码\3-PIT%20Demo\obj/../Libraries/seekfree_libraries/zf_nvic.c:111
        sys_recover_irq();
    2dc6:	37c1                	jal	2d86 <sys_recover_irq>
D:\WCH\代码\3-PIT%20Demo\obj/../Libraries/seekfree_libraries/zf_nvic.c:113
    }
}
    2dc8:	0001                	nop
    2dca:	40f2                	lw	ra,28(sp)
    2dcc:	4462                	lw	s0,24(sp)
    2dce:	6105                	addi	sp,sp,32
    2dd0:	8082                	ret

00002dd2 <timer_pit_interrupt_ms>:
timer_pit_interrupt_ms():
D:\WCH\代码\3-PIT%20Demo\obj/../Libraries/seekfree_libraries/zf_pit.c:36
//  @param      ms          定时周期(1-32767)
//  @return     void
//  Sample usage:           timer_pit_interrupt(TIMER_1, 5); 使用定时器1作为5ms一次的周期中断
//-------------------------------------------------------------------------------------------------------------------
void timer_pit_interrupt_ms(TIMERN_enum timern, uint16 count)
{
    2dd2:	7179                	addi	sp,sp,-48
    2dd4:	d606                	sw	ra,44(sp)
    2dd6:	d422                	sw	s0,40(sp)
    2dd8:	1800                	addi	s0,sp,48
    2dda:	fca42e23          	sw	a0,-36(s0)
    2dde:	87ae                	mv	a5,a1
    2de0:	fcf41d23          	sh	a5,-38(s0)
D:\WCH\代码\3-PIT%20Demo\obj/../Libraries/seekfree_libraries/zf_pit.c:39
    TIM_TimeBaseInitTypeDef  TIM_TimeBaseStructure;

    if(TIMER_1 == timern)
    2de4:	fdc42783          	lw	a5,-36(s0)
    2de8:	eb81                	bnez	a5,2df8 <timer_pit_interrupt_ms+0x26>
D:\WCH\代码\3-PIT%20Demo\obj/../Libraries/seekfree_libraries/zf_pit.c:40
        RCC_APB2PeriphClockCmd(RCC_APB2Periph_TIM1, ENABLE);                //时钟使能
    2dea:	4585                	li	a1,1
    2dec:	6785                	lui	a5,0x1
    2dee:	80078513          	addi	a0,a5,-2048 # 800 <__stack_size>
    2df2:	de9fd0ef          	jal	ra,bda <RCC_APB2PeriphClockCmd>
    2df6:	a835                	j	2e32 <timer_pit_interrupt_ms+0x60>
D:\WCH\代码\3-PIT%20Demo\obj/../Libraries/seekfree_libraries/zf_pit.c:41
    else if(TIMER_2 == timern)
    2df8:	fdc42703          	lw	a4,-36(s0)
    2dfc:	4785                	li	a5,1
    2dfe:	00f71763          	bne	a4,a5,2e0c <timer_pit_interrupt_ms+0x3a>
D:\WCH\代码\3-PIT%20Demo\obj/../Libraries/seekfree_libraries/zf_pit.c:42
        RCC_APB1PeriphClockCmd(RCC_APB1Periph_TIM2, ENABLE);                //时钟使能
    2e02:	4585                	li	a1,1
    2e04:	4505                	li	a0,1
    2e06:	e1bfd0ef          	jal	ra,c20 <RCC_APB1PeriphClockCmd>
    2e0a:	a025                	j	2e32 <timer_pit_interrupt_ms+0x60>
D:\WCH\代码\3-PIT%20Demo\obj/../Libraries/seekfree_libraries/zf_pit.c:43
    else if(TIMER_3 == timern)
    2e0c:	fdc42703          	lw	a4,-36(s0)
    2e10:	4789                	li	a5,2
    2e12:	00f71763          	bne	a4,a5,2e20 <timer_pit_interrupt_ms+0x4e>
D:\WCH\代码\3-PIT%20Demo\obj/../Libraries/seekfree_libraries/zf_pit.c:44
        RCC_APB1PeriphClockCmd(RCC_APB1Periph_TIM3, ENABLE);                //时钟使能
    2e16:	4585                	li	a1,1
    2e18:	4509                	li	a0,2
    2e1a:	e07fd0ef          	jal	ra,c20 <RCC_APB1PeriphClockCmd>
    2e1e:	a811                	j	2e32 <timer_pit_interrupt_ms+0x60>
D:\WCH\代码\3-PIT%20Demo\obj/../Libraries/seekfree_libraries/zf_pit.c:45
    else if(TIMER_4 == timern)
    2e20:	fdc42703          	lw	a4,-36(s0)
    2e24:	478d                	li	a5,3
    2e26:	00f71663          	bne	a4,a5,2e32 <timer_pit_interrupt_ms+0x60>
D:\WCH\代码\3-PIT%20Demo\obj/../Libraries/seekfree_libraries/zf_pit.c:46
        RCC_APB1PeriphClockCmd(RCC_APB1Periph_TIM4, ENABLE);                //时钟使能
    2e2a:	4585                	li	a1,1
    2e2c:	4511                	li	a0,4
    2e2e:	df3fd0ef          	jal	ra,c20 <RCC_APB1PeriphClockCmd>
D:\WCH\代码\3-PIT%20Demo\obj/../Libraries/seekfree_libraries/zf_pit.c:50

    //定时器TIM3初始化,计数器
    //ATRLR寄存器设置为1 ，则计数0和1，一共2次
    assert(count);
    2e32:	fda45783          	lhu	a5,-38(s0)
    2e36:	ef91                	bnez	a5,2e52 <timer_pit_interrupt_ms+0x80>
D:\WCH\代码\3-PIT%20Demo\obj/../Libraries/seekfree_libraries/zf_pit.c:50 (discriminator 1)
    2e38:	6799                	lui	a5,0x6
    2e3a:	71078693          	addi	a3,a5,1808 # 6710 <_exit+0x66>
    2e3e:	679d                	lui	a5,0x7
    2e40:	9d878613          	addi	a2,a5,-1576 # 69d8 <__func__.3543>
    2e44:	03200593          	li	a1,50
    2e48:	6799                	lui	a5,0x6
    2e4a:	71878513          	addi	a0,a5,1816 # 6718 <_exit+0x6e>
    2e4e:	61c020ef          	jal	ra,546a <__assert_func>
D:\WCH\代码\3-PIT%20Demo\obj/../Libraries/seekfree_libraries/zf_pit.c:53


    TIM_TimeBaseStructure.TIM_Period = 44000 - 1;                           //计数44000
    2e52:	77ed                	lui	a5,0xffffb
    2e54:	bdf78793          	addi	a5,a5,-1057 # ffffabdf <_eusrstack+0xdfff5bdf>
    2e58:	fef41423          	sh	a5,-24(s0)
D:\WCH\代码\3-PIT%20Demo\obj/../Libraries/seekfree_libraries/zf_pit.c:54
    TIM_TimeBaseStructure.TIM_Prescaler = 2*count - 1;                      //设置为1MHZ计数一次,也就是1us计数一次
    2e5c:	fda45783          	lhu	a5,-38(s0)
    2e60:	0786                	slli	a5,a5,0x1
    2e62:	07c2                	slli	a5,a5,0x10
    2e64:	83c1                	srli	a5,a5,0x10
    2e66:	17fd                	addi	a5,a5,-1
    2e68:	07c2                	slli	a5,a5,0x10
    2e6a:	83c1                	srli	a5,a5,0x10
    2e6c:	fef41223          	sh	a5,-28(s0)
D:\WCH\代码\3-PIT%20Demo\obj/../Libraries/seekfree_libraries/zf_pit.c:56

    TIM_TimeBaseStructure.TIM_ClockDivision = TIM_CKD_DIV1;                 //设置时钟分割:TDTS = Tck_tim
    2e70:	fe041523          	sh	zero,-22(s0)
D:\WCH\代码\3-PIT%20Demo\obj/../Libraries/seekfree_libraries/zf_pit.c:57
    TIM_TimeBaseStructure.TIM_CounterMode = TIM_CounterMode_Up;             //TIM向上计数模式
    2e74:	fe041323          	sh	zero,-26(s0)
D:\WCH\代码\3-PIT%20Demo\obj/../Libraries/seekfree_libraries/zf_pit.c:58
    TIM_TimeBaseStructure.TIM_RepetitionCounter = 0;                        //重复计数器设置为0
    2e78:	fe040623          	sb	zero,-20(s0)
D:\WCH\代码\3-PIT%20Demo\obj/../Libraries/seekfree_libraries/zf_pit.c:59
    TIM_TimeBaseInit((TIM_TypeDef *)TIMERN[timern], &TIM_TimeBaseStructure);//根据指定的参数初始化TIMx的时间基数单位
    2e7c:	679d                	lui	a5,0x7
    2e7e:	fdc42703          	lw	a4,-36(s0)
    2e82:	070a                	slli	a4,a4,0x2
    2e84:	9f078793          	addi	a5,a5,-1552 # 69f0 <TIMERN>
    2e88:	97ba                	add	a5,a5,a4
    2e8a:	439c                	lw	a5,0(a5)
    2e8c:	873e                	mv	a4,a5
    2e8e:	fe440793          	addi	a5,s0,-28
    2e92:	85be                	mv	a1,a5
    2e94:	853a                	mv	a0,a4
    2e96:	f23fd0ef          	jal	ra,db8 <TIM_TimeBaseInit>
D:\WCH\代码\3-PIT%20Demo\obj/../Libraries/seekfree_libraries/zf_pit.c:61

    TIM_ITConfig((TIM_TypeDef *)TIMERN[timern],TIM_IT_Update,ENABLE );      //使能指定的TIM中断,允许更新中断
    2e9a:	679d                	lui	a5,0x7
    2e9c:	fdc42703          	lw	a4,-36(s0)
    2ea0:	070a                	slli	a4,a4,0x2
    2ea2:	9f078793          	addi	a5,a5,-1552 # 69f0 <TIMERN>
    2ea6:	97ba                	add	a5,a5,a4
    2ea8:	439c                	lw	a5,0(a5)
    2eaa:	4605                	li	a2,1
    2eac:	4585                	li	a1,1
    2eae:	853e                	mv	a0,a5
    2eb0:	edafe0ef          	jal	ra,158a <TIM_ITConfig>
D:\WCH\代码\3-PIT%20Demo\obj/../Libraries/seekfree_libraries/zf_pit.c:64

    //中断优先级NVIC设置
    if(TIMER_1 == timern)
    2eb4:	fdc42783          	lw	a5,-36(s0)
    2eb8:	eb81                	bnez	a5,2ec8 <timer_pit_interrupt_ms+0xf6>
D:\WCH\代码\3-PIT%20Demo\obj/../Libraries/seekfree_libraries/zf_pit.c:65
        nvic_init(TIM1_UP_IRQn, 0, 2, ENABLE);
    2eba:	4685                	li	a3,1
    2ebc:	4609                	li	a2,2
    2ebe:	4581                	li	a1,0
    2ec0:	02900513          	li	a0,41
    2ec4:	3521                	jal	2ccc <nvic_init>
    2ec6:	a0a1                	j	2f0e <timer_pit_interrupt_ms+0x13c>
D:\WCH\代码\3-PIT%20Demo\obj/../Libraries/seekfree_libraries/zf_pit.c:66
    else if(TIMER_2 == timern)
    2ec8:	fdc42703          	lw	a4,-36(s0)
    2ecc:	4785                	li	a5,1
    2ece:	00f71963          	bne	a4,a5,2ee0 <timer_pit_interrupt_ms+0x10e>
D:\WCH\代码\3-PIT%20Demo\obj/../Libraries/seekfree_libraries/zf_pit.c:67
        nvic_init(TIM2_IRQn, 0, 2, ENABLE);
    2ed2:	4685                	li	a3,1
    2ed4:	4609                	li	a2,2
    2ed6:	4581                	li	a1,0
    2ed8:	02c00513          	li	a0,44
    2edc:	3bc5                	jal	2ccc <nvic_init>
    2ede:	a805                	j	2f0e <timer_pit_interrupt_ms+0x13c>
D:\WCH\代码\3-PIT%20Demo\obj/../Libraries/seekfree_libraries/zf_pit.c:68
    else if(TIMER_3 == timern)
    2ee0:	fdc42703          	lw	a4,-36(s0)
    2ee4:	4789                	li	a5,2
    2ee6:	00f71963          	bne	a4,a5,2ef8 <timer_pit_interrupt_ms+0x126>
D:\WCH\代码\3-PIT%20Demo\obj/../Libraries/seekfree_libraries/zf_pit.c:69
        nvic_init(TIM3_IRQn, 0, 2, ENABLE);
    2eea:	4685                	li	a3,1
    2eec:	4609                	li	a2,2
    2eee:	4581                	li	a1,0
    2ef0:	02d00513          	li	a0,45
    2ef4:	3be1                	jal	2ccc <nvic_init>
    2ef6:	a821                	j	2f0e <timer_pit_interrupt_ms+0x13c>
D:\WCH\代码\3-PIT%20Demo\obj/../Libraries/seekfree_libraries/zf_pit.c:70
    else if(TIMER_4 == timern)
    2ef8:	fdc42703          	lw	a4,-36(s0)
    2efc:	478d                	li	a5,3
    2efe:	00f71863          	bne	a4,a5,2f0e <timer_pit_interrupt_ms+0x13c>
D:\WCH\代码\3-PIT%20Demo\obj/../Libraries/seekfree_libraries/zf_pit.c:71
        nvic_init(TIM4_IRQn, 0, 2, ENABLE);
    2f02:	4685                	li	a3,1
    2f04:	4609                	li	a2,2
    2f06:	4581                	li	a1,0
    2f08:	02e00513          	li	a0,46
    2f0c:	33c1                	jal	2ccc <nvic_init>
D:\WCH\代码\3-PIT%20Demo\obj/../Libraries/seekfree_libraries/zf_pit.c:73

    TIM_Cmd((TIM_TypeDef *)TIMERN[timern], ENABLE);  //使能TIMx
    2f0e:	679d                	lui	a5,0x7
    2f10:	fdc42703          	lw	a4,-36(s0)
    2f14:	070a                	slli	a4,a4,0x2
    2f16:	9f078793          	addi	a5,a5,-1552 # 69f0 <TIMERN>
    2f1a:	97ba                	add	a5,a5,a4
    2f1c:	439c                	lw	a5,0(a5)
    2f1e:	4585                	li	a1,1
    2f20:	853e                	mv	a0,a5
    2f22:	db0fe0ef          	jal	ra,14d2 <TIM_Cmd>
D:\WCH\代码\3-PIT%20Demo\obj/../Libraries/seekfree_libraries/zf_pit.c:75

}
    2f26:	0001                	nop
    2f28:	50b2                	lw	ra,44(sp)
    2f2a:	5422                	lw	s0,40(sp)
    2f2c:	6145                	addi	sp,sp,48
    2f2e:	8082                	ret

00002f30 <pwm_gpio_init>:
pwm_gpio_init():
D:\WCH\代码\3-PIT%20Demo\obj/../Libraries/seekfree_libraries/zf_pwm.c:35
//  @param      pwmch       PWM通道(可选择范围由zf_pwm.h内PWMCH_enum枚举值确定)
//  @return     void
//  Sample usage:           内部使用  用户无需关心
//-------------------------------------------------------------------------------------------------------------------
void pwm_gpio_init(PWMCH_enum pwmch)
{
    2f30:	1101                	addi	sp,sp,-32
    2f32:	ce06                	sw	ra,28(sp)
    2f34:	cc22                	sw	s0,24(sp)
    2f36:	1000                	addi	s0,sp,32
    2f38:	fea42623          	sw	a0,-20(s0)
    2f3c:	fec42703          	lw	a4,-20(s0)
    2f40:	20000793          	li	a5,512
    2f44:	24f70763          	beq	a4,a5,3192 <pwm_gpio_init+0x262>
    2f48:	fec42703          	lw	a4,-20(s0)
    2f4c:	20000793          	li	a5,512
    2f50:	0ae7ea63          	bltu	a5,a4,3004 <pwm_gpio_init+0xd4>
    2f54:	fec42703          	lw	a4,-20(s0)
    2f58:	10100793          	li	a5,257
    2f5c:	1cf70063          	beq	a4,a5,311c <pwm_gpio_init+0x1ec>
    2f60:	fec42703          	lw	a4,-20(s0)
    2f64:	10100793          	li	a5,257
    2f68:	04e7e263          	bltu	a5,a4,2fac <pwm_gpio_init+0x7c>
    2f6c:	fec42703          	lw	a4,-20(s0)
    2f70:	4789                	li	a5,2
    2f72:	16f70d63          	beq	a4,a5,30ec <pwm_gpio_init+0x1bc>
    2f76:	fec42703          	lw	a4,-20(s0)
    2f7a:	4789                	li	a5,2
    2f7c:	00e7ec63          	bltu	a5,a4,2f94 <pwm_gpio_init+0x64>
    2f80:	fec42783          	lw	a5,-20(s0)
    2f84:	14078463          	beqz	a5,30cc <pwm_gpio_init+0x19c>
    2f88:	fec42703          	lw	a4,-20(s0)
    2f8c:	4785                	li	a5,1
    2f8e:	14f70763          	beq	a4,a5,30dc <pwm_gpio_init+0x1ac>
D:\WCH\代码\3-PIT%20Demo\obj/../Libraries/seekfree_libraries/zf_pwm.c:145
        case PWM4_CH4_B9:
            gpio_init(B9, GPO, 0, SPEED_50MHZ|OUT_AF_PP);
            break;
        default:
            //断言
            break;
    2f92:	ace5                	j	328a <pwm_gpio_init+0x35a>
    2f94:	fec42703          	lw	a4,-20(s0)
    2f98:	478d                	li	a5,3
    2f9a:	16f70163          	beq	a4,a5,30fc <pwm_gpio_init+0x1cc>
    2f9e:	fec42703          	lw	a4,-20(s0)
    2fa2:	10000793          	li	a5,256
    2fa6:	16f70363          	beq	a4,a5,310c <pwm_gpio_init+0x1dc>
    2faa:	a4c5                	j	328a <pwm_gpio_init+0x35a>
    2fac:	fec42703          	lw	a4,-20(s0)
    2fb0:	11000793          	li	a5,272
    2fb4:	18f70c63          	beq	a4,a5,314c <pwm_gpio_init+0x21c>
    2fb8:	fec42703          	lw	a4,-20(s0)
    2fbc:	11000793          	li	a5,272
    2fc0:	00e7ef63          	bltu	a5,a4,2fde <pwm_gpio_init+0xae>
    2fc4:	fec42703          	lw	a4,-20(s0)
    2fc8:	10200793          	li	a5,258
    2fcc:	16f70063          	beq	a4,a5,312c <pwm_gpio_init+0x1fc>
    2fd0:	fec42703          	lw	a4,-20(s0)
    2fd4:	10300793          	li	a5,259
    2fd8:	16f70263          	beq	a4,a5,313c <pwm_gpio_init+0x20c>
    2fdc:	a47d                	j	328a <pwm_gpio_init+0x35a>
    2fde:	fec42703          	lw	a4,-20(s0)
    2fe2:	11200793          	li	a5,274
    2fe6:	18f70463          	beq	a4,a5,316e <pwm_gpio_init+0x23e>
    2fea:	fec42703          	lw	a4,-20(s0)
    2fee:	11200793          	li	a5,274
    2ff2:	16f76563          	bltu	a4,a5,315c <pwm_gpio_init+0x22c>
    2ff6:	fec42703          	lw	a4,-20(s0)
    2ffa:	11300793          	li	a5,275
    2ffe:	18f70163          	beq	a4,a5,3180 <pwm_gpio_init+0x250>
    3002:	a461                	j	328a <pwm_gpio_init+0x35a>
    3004:	fec42703          	lw	a4,-20(s0)
    3008:	21300793          	li	a5,531
    300c:	20f70063          	beq	a4,a5,320c <pwm_gpio_init+0x2dc>
    3010:	fec42703          	lw	a4,-20(s0)
    3014:	21300793          	li	a5,531
    3018:	04e7ee63          	bltu	a5,a4,3074 <pwm_gpio_init+0x144>
    301c:	fec42703          	lw	a4,-20(s0)
    3020:	20300793          	li	a5,515
    3024:	1af70063          	beq	a4,a5,31c4 <pwm_gpio_init+0x294>
    3028:	fec42703          	lw	a4,-20(s0)
    302c:	20300793          	li	a5,515
    3030:	00e7ef63          	bltu	a5,a4,304e <pwm_gpio_init+0x11e>
    3034:	fec42703          	lw	a4,-20(s0)
    3038:	20100793          	li	a5,513
    303c:	16f70363          	beq	a4,a5,31a2 <pwm_gpio_init+0x272>
    3040:	fec42703          	lw	a4,-20(s0)
    3044:	20200793          	li	a5,514
    3048:	16f70563          	beq	a4,a5,31b2 <pwm_gpio_init+0x282>
    304c:	ac3d                	j	328a <pwm_gpio_init+0x35a>
    304e:	fec42703          	lw	a4,-20(s0)
    3052:	21100793          	li	a5,529
    3056:	18f70963          	beq	a4,a5,31e8 <pwm_gpio_init+0x2b8>
    305a:	fec42703          	lw	a4,-20(s0)
    305e:	21100793          	li	a5,529
    3062:	18e7ec63          	bltu	a5,a4,31fa <pwm_gpio_init+0x2ca>
    3066:	fec42703          	lw	a4,-20(s0)
    306a:	21000793          	li	a5,528
    306e:	16f70463          	beq	a4,a5,31d6 <pwm_gpio_init+0x2a6>
    3072:	ac21                	j	328a <pwm_gpio_init+0x35a>
    3074:	fec42703          	lw	a4,-20(s0)
    3078:	30000793          	li	a5,768
    307c:	1cf70363          	beq	a4,a5,3242 <pwm_gpio_init+0x312>
    3080:	fec42703          	lw	a4,-20(s0)
    3084:	30000793          	li	a5,768
    3088:	00e7ef63          	bltu	a5,a4,30a6 <pwm_gpio_init+0x176>
    308c:	fec42703          	lw	a4,-20(s0)
    3090:	22000793          	li	a5,544
    3094:	18f70563          	beq	a4,a5,321e <pwm_gpio_init+0x2ee>
    3098:	fec42703          	lw	a4,-20(s0)
    309c:	22100793          	li	a5,545
    30a0:	18f70863          	beq	a4,a5,3230 <pwm_gpio_init+0x300>
    30a4:	a2dd                	j	328a <pwm_gpio_init+0x35a>
    30a6:	fec42703          	lw	a4,-20(s0)
    30aa:	30200793          	li	a5,770
    30ae:	1af70c63          	beq	a4,a5,3266 <pwm_gpio_init+0x336>
    30b2:	fec42703          	lw	a4,-20(s0)
    30b6:	30200793          	li	a5,770
    30ba:	18f76d63          	bltu	a4,a5,3254 <pwm_gpio_init+0x324>
    30be:	fec42703          	lw	a4,-20(s0)
    30c2:	30300793          	li	a5,771
    30c6:	1af70963          	beq	a4,a5,3278 <pwm_gpio_init+0x348>
    30ca:	a2c1                	j	328a <pwm_gpio_init+0x35a>
D:\WCH\代码\3-PIT%20Demo\obj/../Libraries/seekfree_libraries/zf_pwm.c:40
            gpio_init(A8, GPO, 0, SPEED_50MHZ|OUT_AF_PP);
    30cc:	31800693          	li	a3,792
    30d0:	4601                	li	a2,0
    30d2:	4585                	li	a1,1
    30d4:	4521                	li	a0,8
    30d6:	997ff0ef          	jal	ra,2a6c <gpio_init>
D:\WCH\代码\3-PIT%20Demo\obj/../Libraries/seekfree_libraries/zf_pwm.c:41
            break;
    30da:	aa45                	j	328a <pwm_gpio_init+0x35a>
D:\WCH\代码\3-PIT%20Demo\obj/../Libraries/seekfree_libraries/zf_pwm.c:43
            gpio_init(A9, GPO, 0, SPEED_50MHZ|OUT_AF_PP);
    30dc:	31800693          	li	a3,792
    30e0:	4601                	li	a2,0
    30e2:	4585                	li	a1,1
    30e4:	4525                	li	a0,9
    30e6:	987ff0ef          	jal	ra,2a6c <gpio_init>
D:\WCH\代码\3-PIT%20Demo\obj/../Libraries/seekfree_libraries/zf_pwm.c:44
            break;
    30ea:	a245                	j	328a <pwm_gpio_init+0x35a>
D:\WCH\代码\3-PIT%20Demo\obj/../Libraries/seekfree_libraries/zf_pwm.c:46
            gpio_init(A10, GPO, 0, SPEED_50MHZ|OUT_AF_PP);
    30ec:	31800693          	li	a3,792
    30f0:	4601                	li	a2,0
    30f2:	4585                	li	a1,1
    30f4:	4529                	li	a0,10
    30f6:	977ff0ef          	jal	ra,2a6c <gpio_init>
D:\WCH\代码\3-PIT%20Demo\obj/../Libraries/seekfree_libraries/zf_pwm.c:47
            break;
    30fa:	aa41                	j	328a <pwm_gpio_init+0x35a>
D:\WCH\代码\3-PIT%20Demo\obj/../Libraries/seekfree_libraries/zf_pwm.c:49
            gpio_init(A11, GPO, 0, SPEED_50MHZ|OUT_AF_PP);
    30fc:	31800693          	li	a3,792
    3100:	4601                	li	a2,0
    3102:	4585                	li	a1,1
    3104:	452d                	li	a0,11
    3106:	967ff0ef          	jal	ra,2a6c <gpio_init>
D:\WCH\代码\3-PIT%20Demo\obj/../Libraries/seekfree_libraries/zf_pwm.c:50
            break;
    310a:	a241                	j	328a <pwm_gpio_init+0x35a>
D:\WCH\代码\3-PIT%20Demo\obj/../Libraries/seekfree_libraries/zf_pwm.c:73
            gpio_init(A0, GPO, 0, SPEED_50MHZ|OUT_AF_PP);
    310c:	31800693          	li	a3,792
    3110:	4601                	li	a2,0
    3112:	4585                	li	a1,1
    3114:	4501                	li	a0,0
    3116:	957ff0ef          	jal	ra,2a6c <gpio_init>
D:\WCH\代码\3-PIT%20Demo\obj/../Libraries/seekfree_libraries/zf_pwm.c:74
            break;
    311a:	aa85                	j	328a <pwm_gpio_init+0x35a>
D:\WCH\代码\3-PIT%20Demo\obj/../Libraries/seekfree_libraries/zf_pwm.c:76
            gpio_init(A1, GPO, 0, SPEED_50MHZ|OUT_AF_PP);
    311c:	31800693          	li	a3,792
    3120:	4601                	li	a2,0
    3122:	4585                	li	a1,1
    3124:	4505                	li	a0,1
    3126:	947ff0ef          	jal	ra,2a6c <gpio_init>
D:\WCH\代码\3-PIT%20Demo\obj/../Libraries/seekfree_libraries/zf_pwm.c:77
            break;
    312a:	a285                	j	328a <pwm_gpio_init+0x35a>
D:\WCH\代码\3-PIT%20Demo\obj/../Libraries/seekfree_libraries/zf_pwm.c:79
            gpio_init(A2, GPO, 0, SPEED_50MHZ|OUT_AF_PP);
    312c:	31800693          	li	a3,792
    3130:	4601                	li	a2,0
    3132:	4585                	li	a1,1
    3134:	4509                	li	a0,2
    3136:	937ff0ef          	jal	ra,2a6c <gpio_init>
D:\WCH\代码\3-PIT%20Demo\obj/../Libraries/seekfree_libraries/zf_pwm.c:80
            break;
    313a:	aa81                	j	328a <pwm_gpio_init+0x35a>
D:\WCH\代码\3-PIT%20Demo\obj/../Libraries/seekfree_libraries/zf_pwm.c:82
            gpio_init(A3, GPO, 0, SPEED_50MHZ|OUT_AF_PP);
    313c:	31800693          	li	a3,792
    3140:	4601                	li	a2,0
    3142:	4585                	li	a1,1
    3144:	450d                	li	a0,3
    3146:	927ff0ef          	jal	ra,2a6c <gpio_init>
D:\WCH\代码\3-PIT%20Demo\obj/../Libraries/seekfree_libraries/zf_pwm.c:83
            break;
    314a:	a281                	j	328a <pwm_gpio_init+0x35a>
D:\WCH\代码\3-PIT%20Demo\obj/../Libraries/seekfree_libraries/zf_pwm.c:86
            gpio_init(A15, GPO, 0, SPEED_50MHZ|OUT_AF_PP);
    314c:	31800693          	li	a3,792
    3150:	4601                	li	a2,0
    3152:	4585                	li	a1,1
    3154:	453d                	li	a0,15
    3156:	917ff0ef          	jal	ra,2a6c <gpio_init>
D:\WCH\代码\3-PIT%20Demo\obj/../Libraries/seekfree_libraries/zf_pwm.c:87
            break;
    315a:	aa05                	j	328a <pwm_gpio_init+0x35a>
D:\WCH\代码\3-PIT%20Demo\obj/../Libraries/seekfree_libraries/zf_pwm.c:89
            gpio_init(B3, GPO, 0, SPEED_50MHZ|OUT_AF_PP);
    315c:	31800693          	li	a3,792
    3160:	4601                	li	a2,0
    3162:	4585                	li	a1,1
    3164:	02300513          	li	a0,35
    3168:	905ff0ef          	jal	ra,2a6c <gpio_init>
D:\WCH\代码\3-PIT%20Demo\obj/../Libraries/seekfree_libraries/zf_pwm.c:90
            break;
    316c:	aa39                	j	328a <pwm_gpio_init+0x35a>
D:\WCH\代码\3-PIT%20Demo\obj/../Libraries/seekfree_libraries/zf_pwm.c:92
            gpio_init(B10, GPO, 0, SPEED_50MHZ|OUT_AF_PP);
    316e:	31800693          	li	a3,792
    3172:	4601                	li	a2,0
    3174:	4585                	li	a1,1
    3176:	02a00513          	li	a0,42
    317a:	8f3ff0ef          	jal	ra,2a6c <gpio_init>
D:\WCH\代码\3-PIT%20Demo\obj/../Libraries/seekfree_libraries/zf_pwm.c:93
            break;
    317e:	a231                	j	328a <pwm_gpio_init+0x35a>
D:\WCH\代码\3-PIT%20Demo\obj/../Libraries/seekfree_libraries/zf_pwm.c:95
            gpio_init(B11, GPO, 0, SPEED_50MHZ|OUT_AF_PP);
    3180:	31800693          	li	a3,792
    3184:	4601                	li	a2,0
    3186:	4585                	li	a1,1
    3188:	02b00513          	li	a0,43
    318c:	8e1ff0ef          	jal	ra,2a6c <gpio_init>
D:\WCH\代码\3-PIT%20Demo\obj/../Libraries/seekfree_libraries/zf_pwm.c:96
            break;
    3190:	a8ed                	j	328a <pwm_gpio_init+0x35a>
D:\WCH\代码\3-PIT%20Demo\obj/../Libraries/seekfree_libraries/zf_pwm.c:99
            gpio_init(A6, GPO, 0, SPEED_50MHZ|OUT_AF_PP);
    3192:	31800693          	li	a3,792
    3196:	4601                	li	a2,0
    3198:	4585                	li	a1,1
    319a:	4519                	li	a0,6
    319c:	8d1ff0ef          	jal	ra,2a6c <gpio_init>
D:\WCH\代码\3-PIT%20Demo\obj/../Libraries/seekfree_libraries/zf_pwm.c:100
            break;
    31a0:	a0ed                	j	328a <pwm_gpio_init+0x35a>
D:\WCH\代码\3-PIT%20Demo\obj/../Libraries/seekfree_libraries/zf_pwm.c:102
            gpio_init(A7, GPO, 0, SPEED_50MHZ|OUT_AF_PP);
    31a2:	31800693          	li	a3,792
    31a6:	4601                	li	a2,0
    31a8:	4585                	li	a1,1
    31aa:	451d                	li	a0,7
    31ac:	8c1ff0ef          	jal	ra,2a6c <gpio_init>
D:\WCH\代码\3-PIT%20Demo\obj/../Libraries/seekfree_libraries/zf_pwm.c:103
            break;
    31b0:	a8e9                	j	328a <pwm_gpio_init+0x35a>
D:\WCH\代码\3-PIT%20Demo\obj/../Libraries/seekfree_libraries/zf_pwm.c:105
            gpio_init(B0, GPO, 0, SPEED_50MHZ|OUT_AF_PP);
    31b2:	31800693          	li	a3,792
    31b6:	4601                	li	a2,0
    31b8:	4585                	li	a1,1
    31ba:	02000513          	li	a0,32
    31be:	8afff0ef          	jal	ra,2a6c <gpio_init>
D:\WCH\代码\3-PIT%20Demo\obj/../Libraries/seekfree_libraries/zf_pwm.c:106
            break;
    31c2:	a0e1                	j	328a <pwm_gpio_init+0x35a>
D:\WCH\代码\3-PIT%20Demo\obj/../Libraries/seekfree_libraries/zf_pwm.c:108
            gpio_init(B1, GPO, 0, SPEED_50MHZ|OUT_AF_PP);
    31c4:	31800693          	li	a3,792
    31c8:	4601                	li	a2,0
    31ca:	4585                	li	a1,1
    31cc:	02100513          	li	a0,33
    31d0:	89dff0ef          	jal	ra,2a6c <gpio_init>
D:\WCH\代码\3-PIT%20Demo\obj/../Libraries/seekfree_libraries/zf_pwm.c:109
            break;
    31d4:	a85d                	j	328a <pwm_gpio_init+0x35a>
D:\WCH\代码\3-PIT%20Demo\obj/../Libraries/seekfree_libraries/zf_pwm.c:112
            gpio_init(C6, GPO, 0, SPEED_50MHZ|OUT_AF_PP);
    31d6:	31800693          	li	a3,792
    31da:	4601                	li	a2,0
    31dc:	4585                	li	a1,1
    31de:	04600513          	li	a0,70
    31e2:	88bff0ef          	jal	ra,2a6c <gpio_init>
D:\WCH\代码\3-PIT%20Demo\obj/../Libraries/seekfree_libraries/zf_pwm.c:113
            break;
    31e6:	a055                	j	328a <pwm_gpio_init+0x35a>
D:\WCH\代码\3-PIT%20Demo\obj/../Libraries/seekfree_libraries/zf_pwm.c:115
            gpio_init(C7, GPO, 0, SPEED_50MHZ|OUT_AF_PP);
    31e8:	31800693          	li	a3,792
    31ec:	4601                	li	a2,0
    31ee:	4585                	li	a1,1
    31f0:	04700513          	li	a0,71
    31f4:	879ff0ef          	jal	ra,2a6c <gpio_init>
D:\WCH\代码\3-PIT%20Demo\obj/../Libraries/seekfree_libraries/zf_pwm.c:116
            break;
    31f8:	a849                	j	328a <pwm_gpio_init+0x35a>
D:\WCH\代码\3-PIT%20Demo\obj/../Libraries/seekfree_libraries/zf_pwm.c:118
            gpio_init(C8, GPO, 0, SPEED_50MHZ|OUT_AF_PP);
    31fa:	31800693          	li	a3,792
    31fe:	4601                	li	a2,0
    3200:	4585                	li	a1,1
    3202:	04800513          	li	a0,72
    3206:	867ff0ef          	jal	ra,2a6c <gpio_init>
D:\WCH\代码\3-PIT%20Demo\obj/../Libraries/seekfree_libraries/zf_pwm.c:119
            break;
    320a:	a041                	j	328a <pwm_gpio_init+0x35a>
D:\WCH\代码\3-PIT%20Demo\obj/../Libraries/seekfree_libraries/zf_pwm.c:121
            gpio_init(C9, GPO, 0, SPEED_50MHZ|OUT_AF_PP);
    320c:	31800693          	li	a3,792
    3210:	4601                	li	a2,0
    3212:	4585                	li	a1,1
    3214:	04900513          	li	a0,73
    3218:	855ff0ef          	jal	ra,2a6c <gpio_init>
D:\WCH\代码\3-PIT%20Demo\obj/../Libraries/seekfree_libraries/zf_pwm.c:122
            break;
    321c:	a0bd                	j	328a <pwm_gpio_init+0x35a>
D:\WCH\代码\3-PIT%20Demo\obj/../Libraries/seekfree_libraries/zf_pwm.c:125
            gpio_init(B4, GPO, 0, SPEED_50MHZ|OUT_AF_PP);
    321e:	31800693          	li	a3,792
    3222:	4601                	li	a2,0
    3224:	4585                	li	a1,1
    3226:	02400513          	li	a0,36
    322a:	843ff0ef          	jal	ra,2a6c <gpio_init>
D:\WCH\代码\3-PIT%20Demo\obj/../Libraries/seekfree_libraries/zf_pwm.c:126
            break;
    322e:	a8b1                	j	328a <pwm_gpio_init+0x35a>
D:\WCH\代码\3-PIT%20Demo\obj/../Libraries/seekfree_libraries/zf_pwm.c:128
            gpio_init(B5, GPO, 0, SPEED_50MHZ|OUT_AF_PP);
    3230:	31800693          	li	a3,792
    3234:	4601                	li	a2,0
    3236:	4585                	li	a1,1
    3238:	02500513          	li	a0,37
    323c:	831ff0ef          	jal	ra,2a6c <gpio_init>
D:\WCH\代码\3-PIT%20Demo\obj/../Libraries/seekfree_libraries/zf_pwm.c:129
            break;
    3240:	a0a9                	j	328a <pwm_gpio_init+0x35a>
D:\WCH\代码\3-PIT%20Demo\obj/../Libraries/seekfree_libraries/zf_pwm.c:132
            gpio_init(B6, GPO, 0, SPEED_50MHZ|OUT_AF_PP);
    3242:	31800693          	li	a3,792
    3246:	4601                	li	a2,0
    3248:	4585                	li	a1,1
    324a:	02600513          	li	a0,38
    324e:	81fff0ef          	jal	ra,2a6c <gpio_init>
D:\WCH\代码\3-PIT%20Demo\obj/../Libraries/seekfree_libraries/zf_pwm.c:133
            break;
    3252:	a825                	j	328a <pwm_gpio_init+0x35a>
D:\WCH\代码\3-PIT%20Demo\obj/../Libraries/seekfree_libraries/zf_pwm.c:135
            gpio_init(B7, GPO, 0, SPEED_50MHZ|OUT_AF_PP);
    3254:	31800693          	li	a3,792
    3258:	4601                	li	a2,0
    325a:	4585                	li	a1,1
    325c:	02700513          	li	a0,39
    3260:	80dff0ef          	jal	ra,2a6c <gpio_init>
D:\WCH\代码\3-PIT%20Demo\obj/../Libraries/seekfree_libraries/zf_pwm.c:136
            break;
    3264:	a01d                	j	328a <pwm_gpio_init+0x35a>
D:\WCH\代码\3-PIT%20Demo\obj/../Libraries/seekfree_libraries/zf_pwm.c:138
            gpio_init(B8, GPO, 0, SPEED_50MHZ|OUT_AF_PP);
    3266:	31800693          	li	a3,792
    326a:	4601                	li	a2,0
    326c:	4585                	li	a1,1
    326e:	02800513          	li	a0,40
    3272:	ffaff0ef          	jal	ra,2a6c <gpio_init>
D:\WCH\代码\3-PIT%20Demo\obj/../Libraries/seekfree_libraries/zf_pwm.c:139
            break;
    3276:	a811                	j	328a <pwm_gpio_init+0x35a>
D:\WCH\代码\3-PIT%20Demo\obj/../Libraries/seekfree_libraries/zf_pwm.c:141
            gpio_init(B9, GPO, 0, SPEED_50MHZ|OUT_AF_PP);
    3278:	31800693          	li	a3,792
    327c:	4601                	li	a2,0
    327e:	4585                	li	a1,1
    3280:	02900513          	li	a0,41
    3284:	fe8ff0ef          	jal	ra,2a6c <gpio_init>
D:\WCH\代码\3-PIT%20Demo\obj/../Libraries/seekfree_libraries/zf_pwm.c:142
            break;
    3288:	0001                	nop
D:\WCH\代码\3-PIT%20Demo\obj/../Libraries/seekfree_libraries/zf_pwm.c:147
    }
}
    328a:	0001                	nop
    328c:	40f2                	lw	ra,28(sp)
    328e:	4462                	lw	s0,24(sp)
    3290:	6105                	addi	sp,sp,32
    3292:	8082                	ret

00003294 <pwm_init>:
pwm_init():
D:\WCH\代码\3-PIT%20Demo\obj/../Libraries/seekfree_libraries/zf_pwm.c:165
//  @return     void
//  Sample usage:               pwm_init(PWM1_CH1_A8, 50, 5000);   //初始化PWM1 通道1 使用引脚A8  输出PWM频率50HZ   占空比为百分之 5000/PWM_DUTY_MAX*100
//                              PWM_DUTY_MAX在zf_pwm.h文件中 默认为50000
//-------------------------------------------------------------------------------------------------------------------
void pwm_init(PWMCH_enum pwmch, uint32 freq, uint32 duty)
{
    3294:	7139                	addi	sp,sp,-64
    3296:	de06                	sw	ra,60(sp)
    3298:	dc22                	sw	s0,56(sp)
    329a:	0080                	addi	s0,sp,64
    329c:	fca42623          	sw	a0,-52(s0)
    32a0:	fcb42423          	sw	a1,-56(s0)
    32a4:	fcc42223          	sw	a2,-60(s0)
D:\WCH\代码\3-PIT%20Demo\obj/../Libraries/seekfree_libraries/zf_pwm.c:170
    TIM_TimeBaseInitTypeDef  TIM_TimeBaseStructure;
    TIM_OCInitTypeDef  TIM_OCInitStructure;
    uint16 match_temp;                                          //占空比值
    uint16 period_temp;                                         //周期值
    uint16 freq_div = 0;                                        //分频值
    32a8:	fe041723          	sh	zero,-18(s0)
D:\WCH\代码\3-PIT%20Demo\obj/../Libraries/seekfree_libraries/zf_pwm.c:172

    pwm_gpio_init(pwmch);                                       //PWM引脚初始化
    32ac:	fcc42503          	lw	a0,-52(s0)
    32b0:	3141                	jal	2f30 <pwm_gpio_init>
D:\WCH\代码\3-PIT%20Demo\obj/../Libraries/seekfree_libraries/zf_pwm.c:174

    if((pwmch >> 8) == 0x00)
    32b2:	fcc42783          	lw	a5,-52(s0)
    32b6:	83a1                	srli	a5,a5,0x8
    32b8:	eb81                	bnez	a5,32c8 <pwm_init+0x34>
D:\WCH\代码\3-PIT%20Demo\obj/../Libraries/seekfree_libraries/zf_pwm.c:175
        RCC_APB2PeriphClockCmd(RCC_APB2Periph_TIM1, ENABLE);    //使能定时器1时钟
    32ba:	4585                	li	a1,1
    32bc:	6785                	lui	a5,0x1
    32be:	80078513          	addi	a0,a5,-2048 # 800 <__stack_size>
    32c2:	919fd0ef          	jal	ra,bda <RCC_APB2PeriphClockCmd>
    32c6:	a0a1                	j	330e <pwm_init+0x7a>
D:\WCH\代码\3-PIT%20Demo\obj/../Libraries/seekfree_libraries/zf_pwm.c:176
    else if((pwmch >> 8) == 0x01)
    32c8:	fcc42783          	lw	a5,-52(s0)
    32cc:	0087d713          	srli	a4,a5,0x8
    32d0:	4785                	li	a5,1
    32d2:	00f71763          	bne	a4,a5,32e0 <pwm_init+0x4c>
D:\WCH\代码\3-PIT%20Demo\obj/../Libraries/seekfree_libraries/zf_pwm.c:177
        RCC_APB1PeriphClockCmd(RCC_APB1Periph_TIM2, ENABLE);    //使能定时器2时钟
    32d6:	4585                	li	a1,1
    32d8:	4505                	li	a0,1
    32da:	947fd0ef          	jal	ra,c20 <RCC_APB1PeriphClockCmd>
    32de:	a805                	j	330e <pwm_init+0x7a>
D:\WCH\代码\3-PIT%20Demo\obj/../Libraries/seekfree_libraries/zf_pwm.c:178
    else if((pwmch >> 8) == 0x02)
    32e0:	fcc42783          	lw	a5,-52(s0)
    32e4:	0087d713          	srli	a4,a5,0x8
    32e8:	4789                	li	a5,2
    32ea:	00f71763          	bne	a4,a5,32f8 <pwm_init+0x64>
D:\WCH\代码\3-PIT%20Demo\obj/../Libraries/seekfree_libraries/zf_pwm.c:179
        RCC_APB1PeriphClockCmd(RCC_APB1Periph_TIM3, ENABLE);    //使能定时器3时钟
    32ee:	4585                	li	a1,1
    32f0:	4509                	li	a0,2
    32f2:	92ffd0ef          	jal	ra,c20 <RCC_APB1PeriphClockCmd>
    32f6:	a821                	j	330e <pwm_init+0x7a>
D:\WCH\代码\3-PIT%20Demo\obj/../Libraries/seekfree_libraries/zf_pwm.c:180
    else if((pwmch >> 8) == 0x03)
    32f8:	fcc42783          	lw	a5,-52(s0)
    32fc:	0087d713          	srli	a4,a5,0x8
    3300:	478d                	li	a5,3
    3302:	00f71663          	bne	a4,a5,330e <pwm_init+0x7a>
D:\WCH\代码\3-PIT%20Demo\obj/../Libraries/seekfree_libraries/zf_pwm.c:181
        RCC_APB1PeriphClockCmd(RCC_APB1Periph_TIM4, ENABLE);    //使能定时器4时钟
    3306:	4585                	li	a1,1
    3308:	4511                	li	a0,4
    330a:	917fd0ef          	jal	ra,c20 <RCC_APB1PeriphClockCmd>
D:\WCH\代码\3-PIT%20Demo\obj/../Libraries/seekfree_libraries/zf_pwm.c:183

    RCC_APB2PeriphClockCmd(RCC_APB2Periph_AFIO, ENABLE);        //使能AFIO复用功能模块时钟
    330e:	4585                	li	a1,1
    3310:	4505                	li	a0,1
    3312:	8c9fd0ef          	jal	ra,bda <RCC_APB2PeriphClockCmd>
D:\WCH\代码\3-PIT%20Demo\obj/../Libraries/seekfree_libraries/zf_pwm.c:186

    //引脚重映射
    if((pwmch >> 4) == 0x10)        //PWM1的部分重映射
    3316:	fcc42783          	lw	a5,-52(s0)
    331a:	0047d713          	srli	a4,a5,0x4
    331e:	47c1                	li	a5,16
    3320:	00f71a63          	bne	a4,a5,3334 <pwm_init+0xa0>
D:\WCH\代码\3-PIT%20Demo\obj/../Libraries/seekfree_libraries/zf_pwm.c:187
        GPIO_PinRemapConfig(GPIO_PartialRemap_TIM1, ENABLE);
    3324:	4585                	li	a1,1
    3326:	001607b7          	lui	a5,0x160
    332a:	04078513          	addi	a0,a5,64 # 160040 <_data_lma+0x1593c4>
    332e:	aa2fd0ef          	jal	ra,5d0 <GPIO_PinRemapConfig>
    3332:	a8b9                	j	3390 <pwm_init+0xfc>
D:\WCH\代码\3-PIT%20Demo\obj/../Libraries/seekfree_libraries/zf_pwm.c:188
    else if((pwmch >> 4) == 0x11)   //PWM2的完全重映射
    3334:	fcc42783          	lw	a5,-52(s0)
    3338:	0047d713          	srli	a4,a5,0x4
    333c:	47c5                	li	a5,17
    333e:	00f71a63          	bne	a4,a5,3352 <pwm_init+0xbe>
D:\WCH\代码\3-PIT%20Demo\obj/../Libraries/seekfree_libraries/zf_pwm.c:189
        GPIO_PinRemapConfig(GPIO_FullRemap_TIM2, ENABLE);
    3342:	4585                	li	a1,1
    3344:	001807b7          	lui	a5,0x180
    3348:	30078513          	addi	a0,a5,768 # 180300 <_data_lma+0x179684>
    334c:	a84fd0ef          	jal	ra,5d0 <GPIO_PinRemapConfig>
    3350:	a081                	j	3390 <pwm_init+0xfc>
D:\WCH\代码\3-PIT%20Demo\obj/../Libraries/seekfree_libraries/zf_pwm.c:190
    else if((pwmch >> 4) == 0x21)   //PWM3的完全重映射
    3352:	fcc42783          	lw	a5,-52(s0)
    3356:	0047d713          	srli	a4,a5,0x4
    335a:	02100793          	li	a5,33
    335e:	00f71a63          	bne	a4,a5,3372 <pwm_init+0xde>
D:\WCH\代码\3-PIT%20Demo\obj/../Libraries/seekfree_libraries/zf_pwm.c:191
        GPIO_PinRemapConfig(GPIO_FullRemap_TIM3, ENABLE);
    3362:	4585                	li	a1,1
    3364:	001a17b7          	lui	a5,0x1a1
    3368:	c0078513          	addi	a0,a5,-1024 # 1a0c00 <_data_lma+0x199f84>
    336c:	a64fd0ef          	jal	ra,5d0 <GPIO_PinRemapConfig>
    3370:	a005                	j	3390 <pwm_init+0xfc>
D:\WCH\代码\3-PIT%20Demo\obj/../Libraries/seekfree_libraries/zf_pwm.c:192
    else if((pwmch >> 4) == 0x22)   //PWM3的部分重映射
    3372:	fcc42783          	lw	a5,-52(s0)
    3376:	0047d713          	srli	a4,a5,0x4
    337a:	02200793          	li	a5,34
    337e:	00f71963          	bne	a4,a5,3390 <pwm_init+0xfc>
D:\WCH\代码\3-PIT%20Demo\obj/../Libraries/seekfree_libraries/zf_pwm.c:193
        GPIO_PinRemapConfig(GPIO_PartialRemap_TIM3, ENABLE);
    3382:	4585                	li	a1,1
    3384:	001a17b7          	lui	a5,0x1a1
    3388:	80078513          	addi	a0,a5,-2048 # 1a0800 <_data_lma+0x199b84>
    338c:	a44fd0ef          	jal	ra,5d0 <GPIO_PinRemapConfig>
D:\WCH\代码\3-PIT%20Demo\obj/../Libraries/seekfree_libraries/zf_pwm.c:196

    //获取系统主频
    sys_clk = 8000000 * (((RCC->CFGR0 >> 18)&0x0F) + 2);
    3390:	400217b7          	lui	a5,0x40021
    3394:	43dc                	lw	a5,4(a5)
    3396:	83c9                	srli	a5,a5,0x12
    3398:	00f7f713          	andi	a4,a5,15
    339c:	007a17b7          	lui	a5,0x7a1
    33a0:	20078793          	addi	a5,a5,512 # 7a1200 <_data_lma+0x79a584>
    33a4:	02f70733          	mul	a4,a4,a5
    33a8:	00f427b7          	lui	a5,0xf42
    33ac:	40078793          	addi	a5,a5,1024 # f42400 <_data_lma+0xf3b784>
    33b0:	973e                	add	a4,a4,a5
    33b2:	82e1a823          	sw	a4,-2000(gp) # 200000b8 <sys_clk>
D:\WCH\代码\3-PIT%20Demo\obj/../Libraries/seekfree_libraries/zf_pwm.c:198

    freq_div = (uint16)((sys_clk / freq) >> 16);                            //多少分频
    33b6:	8301a703          	lw	a4,-2000(gp) # 200000b8 <sys_clk>
    33ba:	fc842783          	lw	a5,-56(s0)
    33be:	02f757b3          	divu	a5,a4,a5
    33c2:	83c1                	srli	a5,a5,0x10
    33c4:	fef41723          	sh	a5,-18(s0)
D:\WCH\代码\3-PIT%20Demo\obj/../Libraries/seekfree_libraries/zf_pwm.c:199
    period_temp = (uint16)(sys_clk/(freq*(freq_div + 1)));                  //周期
    33c8:	8301a703          	lw	a4,-2000(gp) # 200000b8 <sys_clk>
    33cc:	fee45783          	lhu	a5,-18(s0)
    33d0:	0785                	addi	a5,a5,1
    33d2:	86be                	mv	a3,a5
    33d4:	fc842783          	lw	a5,-56(s0)
    33d8:	02f687b3          	mul	a5,a3,a5
    33dc:	02f757b3          	divu	a5,a4,a5
    33e0:	fef41623          	sh	a5,-20(s0)
D:\WCH\代码\3-PIT%20Demo\obj/../Libraries/seekfree_libraries/zf_pwm.c:200
    match_temp = period_temp * duty / PWM_DUTY_MAX;                         //占空比
    33e4:	fec45703          	lhu	a4,-20(s0)
    33e8:	fc442783          	lw	a5,-60(s0)
    33ec:	02f70733          	mul	a4,a4,a5
    33f0:	6789                	lui	a5,0x2
    33f2:	71078793          	addi	a5,a5,1808 # 2710 <oled_init+0x42>
    33f6:	02f757b3          	divu	a5,a4,a5
    33fa:	fef41523          	sh	a5,-22(s0)
D:\WCH\代码\3-PIT%20Demo\obj/../Libraries/seekfree_libraries/zf_pwm.c:203

    //初始化TIM1-4
    TIM_TimeBaseStructure.TIM_Period = period_temp - 1;                     //设置在下一个更新事件装入活动的自动重装载寄存器周期的值
    33fe:	fec45783          	lhu	a5,-20(s0)
    3402:	17fd                	addi	a5,a5,-1
    3404:	07c2                	slli	a5,a5,0x10
    3406:	83c1                	srli	a5,a5,0x10
    3408:	fef41223          	sh	a5,-28(s0)
D:\WCH\代码\3-PIT%20Demo\obj/../Libraries/seekfree_libraries/zf_pwm.c:204
    TIM_TimeBaseStructure.TIM_Prescaler = freq_div;                         //设置用来作为TIMx时钟频率除数的预分频值
    340c:	fee45783          	lhu	a5,-18(s0)
    3410:	fef41023          	sh	a5,-32(s0)
D:\WCH\代码\3-PIT%20Demo\obj/../Libraries/seekfree_libraries/zf_pwm.c:205
    TIM_TimeBaseStructure.TIM_ClockDivision = TIM_CKD_DIV1;                 //设置时钟分割:TDTS = Tck_tim
    3414:	fe041323          	sh	zero,-26(s0)
D:\WCH\代码\3-PIT%20Demo\obj/../Libraries/seekfree_libraries/zf_pwm.c:206
    TIM_TimeBaseStructure.TIM_CounterMode = TIM_CounterMode_Up;             //TIM向上计数模式
    3418:	fe041123          	sh	zero,-30(s0)
D:\WCH\代码\3-PIT%20Demo\obj/../Libraries/seekfree_libraries/zf_pwm.c:207
    TIM_TimeBaseStructure.TIM_RepetitionCounter = 0;
    341c:	fe040423          	sb	zero,-24(s0)
D:\WCH\代码\3-PIT%20Demo\obj/../Libraries/seekfree_libraries/zf_pwm.c:210

    //初始化TIM1-4 PWM模式
    TIM_OCInitStructure.TIM_OCMode = TIM_OCMode_PWM2;                       //选择定时器模式:TIM脉冲宽度调制模式2
    3420:	07000793          	li	a5,112
    3424:	fcf41823          	sh	a5,-48(s0)
D:\WCH\代码\3-PIT%20Demo\obj/../Libraries/seekfree_libraries/zf_pwm.c:211
    TIM_OCInitStructure.TIM_OutputState = TIM_OutputState_Enable;           //比较输出使能
    3428:	4785                	li	a5,1
    342a:	fcf41923          	sh	a5,-46(s0)
D:\WCH\代码\3-PIT%20Demo\obj/../Libraries/seekfree_libraries/zf_pwm.c:212
    TIM_OCInitStructure.TIM_OutputNState = TIM_OutputState_Disable;
    342e:	fc041a23          	sh	zero,-44(s0)
D:\WCH\代码\3-PIT%20Demo\obj/../Libraries/seekfree_libraries/zf_pwm.c:213
    TIM_OCInitStructure.TIM_Pulse = match_temp;
    3432:	fea45783          	lhu	a5,-22(s0)
    3436:	fcf41b23          	sh	a5,-42(s0)
D:\WCH\代码\3-PIT%20Demo\obj/../Libraries/seekfree_libraries/zf_pwm.c:214
    TIM_OCInitStructure.TIM_OCPolarity = TIM_OCPolarity_Low;                //输出极性:TIM输出比较极性高
    343a:	4789                	li	a5,2
    343c:	fcf41c23          	sh	a5,-40(s0)
D:\WCH\代码\3-PIT%20Demo\obj/../Libraries/seekfree_libraries/zf_pwm.c:215
    TIM_OCInitStructure.TIM_OCNPolarity = TIM_OCPolarity_Low;               //输出极性:TIM输出比较极性高
    3440:	4789                	li	a5,2
    3442:	fcf41d23          	sh	a5,-38(s0)
D:\WCH\代码\3-PIT%20Demo\obj/../Libraries/seekfree_libraries/zf_pwm.c:216
    TIM_OCInitStructure.TIM_OCIdleState = TIM_OCIdleState_Reset;
    3446:	fc041e23          	sh	zero,-36(s0)
D:\WCH\代码\3-PIT%20Demo\obj/../Libraries/seekfree_libraries/zf_pwm.c:217
    TIM_OCInitStructure.TIM_OCNIdleState = TIM_OCIdleState_Reset;
    344a:	fc041f23          	sh	zero,-34(s0)
D:\WCH\代码\3-PIT%20Demo\obj/../Libraries/seekfree_libraries/zf_pwm.c:221



    TIM_TimeBaseInit(((TIM_TypeDef *) TIMERN[pwmch>>8]), &TIM_TimeBaseStructure);  //根据TIM_TimeBaseInitStruct中指定的参数初始化TIMx的时间基数单位
    344e:	fcc42783          	lw	a5,-52(s0)
    3452:	0087d713          	srli	a4,a5,0x8
    3456:	679d                	lui	a5,0x7
    3458:	070a                	slli	a4,a4,0x2
    345a:	9f078793          	addi	a5,a5,-1552 # 69f0 <TIMERN>
    345e:	97ba                	add	a5,a5,a4
    3460:	439c                	lw	a5,0(a5)
    3462:	873e                	mv	a4,a5
    3464:	fe040793          	addi	a5,s0,-32
    3468:	85be                	mv	a1,a5
    346a:	853a                	mv	a0,a4
    346c:	94dfd0ef          	jal	ra,db8 <TIM_TimeBaseInit>
D:\WCH\代码\3-PIT%20Demo\obj/../Libraries/seekfree_libraries/zf_pwm.c:231
//        {
//            TIM_OCInitStructure.TIM_OutputState = TIM_OutputState_Enable;   //P通道
//            TIM_OCInitStructure.TIM_OutputNState = TIM_OutputState_Enable;  //N通道
//        }

    if((pwmch & 0x03) == 0x00)                                          //通道选择
    3470:	fcc42783          	lw	a5,-52(s0)
    3474:	8b8d                	andi	a5,a5,3
    3476:	efb9                	bnez	a5,34d4 <pwm_init+0x240>
D:\WCH\代码\3-PIT%20Demo\obj/../Libraries/seekfree_libraries/zf_pwm.c:233
    {
        TIM_OC1Init(((TIM_TypeDef *) TIMERN[pwmch>>8]), &TIM_OCInitStructure );                       //定时器通道1初始化
    3478:	fcc42783          	lw	a5,-52(s0)
    347c:	0087d713          	srli	a4,a5,0x8
    3480:	679d                	lui	a5,0x7
    3482:	070a                	slli	a4,a4,0x2
    3484:	9f078793          	addi	a5,a5,-1552 # 69f0 <TIMERN>
    3488:	97ba                	add	a5,a5,a4
    348a:	439c                	lw	a5,0(a5)
    348c:	873e                	mv	a4,a5
    348e:	fd040793          	addi	a5,s0,-48
    3492:	85be                	mv	a1,a5
    3494:	853a                	mv	a0,a4
    3496:	a1dfd0ef          	jal	ra,eb2 <TIM_OC1Init>
D:\WCH\代码\3-PIT%20Demo\obj/../Libraries/seekfree_libraries/zf_pwm.c:234
        TIM_OC1PreloadConfig(((TIM_TypeDef *) TIMERN[pwmch>>8]), TIM_OCPreload_Enable);               //定时器预装载配置
    349a:	fcc42783          	lw	a5,-52(s0)
    349e:	0087d713          	srli	a4,a5,0x8
    34a2:	679d                	lui	a5,0x7
    34a4:	070a                	slli	a4,a4,0x2
    34a6:	9f078793          	addi	a5,a5,-1552 # 69f0 <TIMERN>
    34aa:	97ba                	add	a5,a5,a4
    34ac:	439c                	lw	a5,0(a5)
    34ae:	45a1                	li	a1,8
    34b0:	853e                	mv	a0,a5
    34b2:	948fe0ef          	jal	ra,15fa <TIM_OC1PreloadConfig>
D:\WCH\代码\3-PIT%20Demo\obj/../Libraries/seekfree_libraries/zf_pwm.c:235
        TIM_OC1FastConfig(((TIM_TypeDef *) TIMERN[pwmch>>8]), TIM_OC1FE);                             //比较捕获通道快速使能
    34b6:	fcc42783          	lw	a5,-52(s0)
    34ba:	0087d713          	srli	a4,a5,0x8
    34be:	679d                	lui	a5,0x7
    34c0:	070a                	slli	a4,a4,0x2
    34c2:	9f078793          	addi	a5,a5,-1552 # 69f0 <TIMERN>
    34c6:	97ba                	add	a5,a5,a4
    34c8:	439c                	lw	a5,0(a5)
    34ca:	4591                	li	a1,4
    34cc:	853e                	mv	a0,a5
    34ce:	a78fe0ef          	jal	ra,1746 <TIM_OC1FastConfig>
    34d2:	a289                	j	3614 <pwm_init+0x380>
D:\WCH\代码\3-PIT%20Demo\obj/../Libraries/seekfree_libraries/zf_pwm.c:237
    }
    else if((pwmch & 0x03) == 0x01)
    34d4:	fcc42783          	lw	a5,-52(s0)
    34d8:	0037f713          	andi	a4,a5,3
    34dc:	4785                	li	a5,1
    34de:	06f71163          	bne	a4,a5,3540 <pwm_init+0x2ac>
D:\WCH\代码\3-PIT%20Demo\obj/../Libraries/seekfree_libraries/zf_pwm.c:239
    {
        TIM_OC2Init(((TIM_TypeDef *) TIMERN[pwmch>>8]), &TIM_OCInitStructure );
    34e2:	fcc42783          	lw	a5,-52(s0)
    34e6:	0087d713          	srli	a4,a5,0x8
    34ea:	679d                	lui	a5,0x7
    34ec:	070a                	slli	a4,a4,0x2
    34ee:	9f078793          	addi	a5,a5,-1552 # 69f0 <TIMERN>
    34f2:	97ba                	add	a5,a5,a4
    34f4:	439c                	lw	a5,0(a5)
    34f6:	873e                	mv	a4,a5
    34f8:	fd040793          	addi	a5,s0,-48
    34fc:	85be                	mv	a1,a5
    34fe:	853a                	mv	a0,a4
    3500:	b23fd0ef          	jal	ra,1022 <TIM_OC2Init>
D:\WCH\代码\3-PIT%20Demo\obj/../Libraries/seekfree_libraries/zf_pwm.c:240
        TIM_OC2PreloadConfig(((TIM_TypeDef *) TIMERN[pwmch>>8]), TIM_OCPreload_Enable);
    3504:	fcc42783          	lw	a5,-52(s0)
    3508:	0087d713          	srli	a4,a5,0x8
    350c:	679d                	lui	a5,0x7
    350e:	070a                	slli	a4,a4,0x2
    3510:	9f078793          	addi	a5,a5,-1552 # 69f0 <TIMERN>
    3514:	97ba                	add	a5,a5,a4
    3516:	439c                	lw	a5,0(a5)
    3518:	45a1                	li	a1,8
    351a:	853e                	mv	a0,a5
    351c:	92afe0ef          	jal	ra,1646 <TIM_OC2PreloadConfig>
D:\WCH\代码\3-PIT%20Demo\obj/../Libraries/seekfree_libraries/zf_pwm.c:241
        TIM_OC2FastConfig(((TIM_TypeDef *) TIMERN[pwmch>>8]), TIM_OC2FE);                             //比较捕获通道快速使能
    3520:	fcc42783          	lw	a5,-52(s0)
    3524:	0087d713          	srli	a4,a5,0x8
    3528:	679d                	lui	a5,0x7
    352a:	070a                	slli	a4,a4,0x2
    352c:	9f078793          	addi	a5,a5,-1552 # 69f0 <TIMERN>
    3530:	97ba                	add	a5,a5,a4
    3532:	439c                	lw	a5,0(a5)
    3534:	40000593          	li	a1,1024
    3538:	853e                	mv	a0,a5
    353a:	a58fe0ef          	jal	ra,1792 <TIM_OC2FastConfig>
    353e:	a8d9                	j	3614 <pwm_init+0x380>
D:\WCH\代码\3-PIT%20Demo\obj/../Libraries/seekfree_libraries/zf_pwm.c:243
    }
    else if((pwmch & 0x03) == 0x02)
    3540:	fcc42783          	lw	a5,-52(s0)
    3544:	0037f713          	andi	a4,a5,3
    3548:	4789                	li	a5,2
    354a:	06f71063          	bne	a4,a5,35aa <pwm_init+0x316>
D:\WCH\代码\3-PIT%20Demo\obj/../Libraries/seekfree_libraries/zf_pwm.c:245
    {
        TIM_OC3Init(((TIM_TypeDef *) TIMERN[pwmch>>8]), &TIM_OCInitStructure );
    354e:	fcc42783          	lw	a5,-52(s0)
    3552:	0087d713          	srli	a4,a5,0x8
    3556:	679d                	lui	a5,0x7
    3558:	070a                	slli	a4,a4,0x2
    355a:	9f078793          	addi	a5,a5,-1552 # 69f0 <TIMERN>
    355e:	97ba                	add	a5,a5,a4
    3560:	439c                	lw	a5,0(a5)
    3562:	873e                	mv	a4,a5
    3564:	fd040793          	addi	a5,s0,-48
    3568:	85be                	mv	a1,a5
    356a:	853a                	mv	a0,a4
    356c:	c6dfd0ef          	jal	ra,11d8 <TIM_OC3Init>
D:\WCH\代码\3-PIT%20Demo\obj/../Libraries/seekfree_libraries/zf_pwm.c:246
        TIM_OC3PreloadConfig(((TIM_TypeDef *) TIMERN[pwmch>>8]), TIM_OCPreload_Enable);
    3570:	fcc42783          	lw	a5,-52(s0)
    3574:	0087d713          	srli	a4,a5,0x8
    3578:	679d                	lui	a5,0x7
    357a:	070a                	slli	a4,a4,0x2
    357c:	9f078793          	addi	a5,a5,-1552 # 69f0 <TIMERN>
    3580:	97ba                	add	a5,a5,a4
    3582:	439c                	lw	a5,0(a5)
    3584:	45a1                	li	a1,8
    3586:	853e                	mv	a0,a5
    3588:	918fe0ef          	jal	ra,16a0 <TIM_OC3PreloadConfig>
D:\WCH\代码\3-PIT%20Demo\obj/../Libraries/seekfree_libraries/zf_pwm.c:247
        TIM_OC3FastConfig(((TIM_TypeDef *) TIMERN[pwmch>>8]), TIM_OC3FE);                             //比较捕获通道快速使能
    358c:	fcc42783          	lw	a5,-52(s0)
    3590:	0087d713          	srli	a4,a5,0x8
    3594:	679d                	lui	a5,0x7
    3596:	070a                	slli	a4,a4,0x2
    3598:	9f078793          	addi	a5,a5,-1552 # 69f0 <TIMERN>
    359c:	97ba                	add	a5,a5,a4
    359e:	439c                	lw	a5,0(a5)
    35a0:	4591                	li	a1,4
    35a2:	853e                	mv	a0,a5
    35a4:	a44fe0ef          	jal	ra,17e8 <TIM_OC3FastConfig>
    35a8:	a0b5                	j	3614 <pwm_init+0x380>
D:\WCH\代码\3-PIT%20Demo\obj/../Libraries/seekfree_libraries/zf_pwm.c:249
    }
    else if((pwmch & 0x03) == 0x03)
    35aa:	fcc42783          	lw	a5,-52(s0)
    35ae:	0037f713          	andi	a4,a5,3
    35b2:	478d                	li	a5,3
    35b4:	06f71063          	bne	a4,a5,3614 <pwm_init+0x380>
D:\WCH\代码\3-PIT%20Demo\obj/../Libraries/seekfree_libraries/zf_pwm.c:251
    {
        TIM_OC4Init(((TIM_TypeDef *) TIMERN[pwmch>>8]), &TIM_OCInitStructure );
    35b8:	fcc42783          	lw	a5,-52(s0)
    35bc:	0087d713          	srli	a4,a5,0x8
    35c0:	679d                	lui	a5,0x7
    35c2:	070a                	slli	a4,a4,0x2
    35c4:	9f078793          	addi	a5,a5,-1552 # 69f0 <TIMERN>
    35c8:	97ba                	add	a5,a5,a4
    35ca:	439c                	lw	a5,0(a5)
    35cc:	873e                	mv	a4,a5
    35ce:	fd040793          	addi	a5,s0,-48
    35d2:	85be                	mv	a1,a5
    35d4:	853a                	mv	a0,a4
    35d6:	db3fd0ef          	jal	ra,1388 <TIM_OC4Init>
D:\WCH\代码\3-PIT%20Demo\obj/../Libraries/seekfree_libraries/zf_pwm.c:252
        TIM_OC4PreloadConfig(((TIM_TypeDef *) TIMERN[pwmch>>8]), TIM_OCPreload_Enable);
    35da:	fcc42783          	lw	a5,-52(s0)
    35de:	0087d713          	srli	a4,a5,0x8
    35e2:	679d                	lui	a5,0x7
    35e4:	070a                	slli	a4,a4,0x2
    35e6:	9f078793          	addi	a5,a5,-1552 # 69f0 <TIMERN>
    35ea:	97ba                	add	a5,a5,a4
    35ec:	439c                	lw	a5,0(a5)
    35ee:	45a1                	li	a1,8
    35f0:	853e                	mv	a0,a5
    35f2:	8fafe0ef          	jal	ra,16ec <TIM_OC4PreloadConfig>
D:\WCH\代码\3-PIT%20Demo\obj/../Libraries/seekfree_libraries/zf_pwm.c:253
        TIM_OC4FastConfig(((TIM_TypeDef *) TIMERN[pwmch>>8]), TIM_OC4FE);                             //比较捕获通道快速使能
    35f6:	fcc42783          	lw	a5,-52(s0)
    35fa:	0087d713          	srli	a4,a5,0x8
    35fe:	679d                	lui	a5,0x7
    3600:	070a                	slli	a4,a4,0x2
    3602:	9f078793          	addi	a5,a5,-1552 # 69f0 <TIMERN>
    3606:	97ba                	add	a5,a5,a4
    3608:	439c                	lw	a5,0(a5)
    360a:	40000593          	li	a1,1024
    360e:	853e                	mv	a0,a5
    3610:	a24fe0ef          	jal	ra,1834 <TIM_OC4FastConfig>
D:\WCH\代码\3-PIT%20Demo\obj/../Libraries/seekfree_libraries/zf_pwm.c:256
    }

    TIM_Cmd(((TIM_TypeDef *) TIMERN[pwmch>>8]), ENABLE);                                              //定时器使能
    3614:	fcc42783          	lw	a5,-52(s0)
    3618:	0087d713          	srli	a4,a5,0x8
    361c:	679d                	lui	a5,0x7
    361e:	070a                	slli	a4,a4,0x2
    3620:	9f078793          	addi	a5,a5,-1552 # 69f0 <TIMERN>
    3624:	97ba                	add	a5,a5,a4
    3626:	439c                	lw	a5,0(a5)
    3628:	4585                	li	a1,1
    362a:	853e                	mv	a0,a5
    362c:	ea7fd0ef          	jal	ra,14d2 <TIM_Cmd>
D:\WCH\代码\3-PIT%20Demo\obj/../Libraries/seekfree_libraries/zf_pwm.c:257
    TIM_CtrlPWMOutputs(((TIM_TypeDef *) TIMERN[pwmch>>8]), ENABLE );
    3630:	fcc42783          	lw	a5,-52(s0)
    3634:	0087d713          	srli	a4,a5,0x8
    3638:	679d                	lui	a5,0x7
    363a:	070a                	slli	a4,a4,0x2
    363c:	9f078793          	addi	a5,a5,-1552 # 69f0 <TIMERN>
    3640:	97ba                	add	a5,a5,a4
    3642:	439c                	lw	a5,0(a5)
    3644:	4585                	li	a1,1
    3646:	853e                	mv	a0,a5
    3648:	ee3fd0ef          	jal	ra,152a <TIM_CtrlPWMOutputs>
D:\WCH\代码\3-PIT%20Demo\obj/../Libraries/seekfree_libraries/zf_pwm.c:259
    //TIM_ARRPreloadConfig( TIM1, ENABLE );
}
    364c:	0001                	nop
    364e:	50f2                	lw	ra,60(sp)
    3650:	5462                	lw	s0,56(sp)
    3652:	6121                	addi	sp,sp,64
    3654:	8082                	ret

00003656 <spi_gpio_init>:
spi_gpio_init():
D:\WCH\代码\3-PIT%20Demo\obj/../Libraries/seekfree_libraries/zf_spi.c:41
//  @param      cs_pin      片选引脚(可选择范围由common.h内PIN_enum枚举值确定)
//  @return     void
//  Sample usage:           内部使用  用户无需关心
//-------------------------------------------------------------------------------------------------------------------
void spi_gpio_init(SPI_PIN_enum sck_pin, SPI_PIN_enum mosi_pin, SPI_PIN_enum miso_pin, PIN_enum cs_pin)
{
    3656:	1101                	addi	sp,sp,-32
    3658:	ce06                	sw	ra,28(sp)
    365a:	cc22                	sw	s0,24(sp)
    365c:	1000                	addi	s0,sp,32
    365e:	fea42623          	sw	a0,-20(s0)
    3662:	feb42423          	sw	a1,-24(s0)
    3666:	fec42223          	sw	a2,-28(s0)
    366a:	fed42023          	sw	a3,-32(s0)
D:\WCH\代码\3-PIT%20Demo\obj/../Libraries/seekfree_libraries/zf_spi.c:42
    if(SPI1_SCK_PA5 == sck_pin) gpio_init(A5, GPO, 1, SPEED_50MHZ|OUT_AF_PP);
    366e:	fec42783          	lw	a5,-20(s0)
    3672:	eb89                	bnez	a5,3684 <spi_gpio_init+0x2e>
D:\WCH\代码\3-PIT%20Demo\obj/../Libraries/seekfree_libraries/zf_spi.c:42 (discriminator 1)
    3674:	31800693          	li	a3,792
    3678:	4605                	li	a2,1
    367a:	4585                	li	a1,1
    367c:	4515                	li	a0,5
    367e:	beeff0ef          	jal	ra,2a6c <gpio_init>
    3682:	a899                	j	36d8 <spi_gpio_init+0x82>
D:\WCH\代码\3-PIT%20Demo\obj/../Libraries/seekfree_libraries/zf_spi.c:43
    else if(SPI1_SCK_PB3 == sck_pin) gpio_init(B3, GPO, 1, SPEED_50MHZ|OUT_AF_PP);
    3684:	fec42703          	lw	a4,-20(s0)
    3688:	47c1                	li	a5,16
    368a:	00f71b63          	bne	a4,a5,36a0 <spi_gpio_init+0x4a>
D:\WCH\代码\3-PIT%20Demo\obj/../Libraries/seekfree_libraries/zf_spi.c:43 (discriminator 1)
    368e:	31800693          	li	a3,792
    3692:	4605                	li	a2,1
    3694:	4585                	li	a1,1
    3696:	02300513          	li	a0,35
    369a:	bd2ff0ef          	jal	ra,2a6c <gpio_init>
    369e:	a82d                	j	36d8 <spi_gpio_init+0x82>
D:\WCH\代码\3-PIT%20Demo\obj/../Libraries/seekfree_libraries/zf_spi.c:44
    else if(SPI2_SCK_PB13 == sck_pin) gpio_init(B13, GPO, 1, SPEED_50MHZ|OUT_AF_PP);
    36a0:	fec42703          	lw	a4,-20(s0)
    36a4:	02000793          	li	a5,32
    36a8:	00f71b63          	bne	a4,a5,36be <spi_gpio_init+0x68>
D:\WCH\代码\3-PIT%20Demo\obj/../Libraries/seekfree_libraries/zf_spi.c:44 (discriminator 1)
    36ac:	31800693          	li	a3,792
    36b0:	4605                	li	a2,1
    36b2:	4585                	li	a1,1
    36b4:	02d00513          	li	a0,45
    36b8:	bb4ff0ef          	jal	ra,2a6c <gpio_init>
    36bc:	a831                	j	36d8 <spi_gpio_init+0x82>
D:\WCH\代码\3-PIT%20Demo\obj/../Libraries/seekfree_libraries/zf_spi.c:45
    else assert(0);         //无此参数进入断言
    36be:	6799                	lui	a5,0x6
    36c0:	74878693          	addi	a3,a5,1864 # 6748 <_exit+0x9e>
    36c4:	679d                	lui	a5,0x7
    36c6:	a0078613          	addi	a2,a5,-1536 # 6a00 <__func__.3348>
    36ca:	02d00593          	li	a1,45
    36ce:	6799                	lui	a5,0x6
    36d0:	74c78513          	addi	a0,a5,1868 # 674c <_exit+0xa2>
    36d4:	597010ef          	jal	ra,546a <__assert_func>
D:\WCH\代码\3-PIT%20Demo\obj/../Libraries/seekfree_libraries/zf_spi.c:47

    if(SPI1_MOSI_PA7 == mosi_pin) gpio_init(A7, GPO, 1, SPEED_50MHZ|OUT_AF_PP);
    36d8:	fe842703          	lw	a4,-24(s0)
    36dc:	4785                	li	a5,1
    36de:	00f71a63          	bne	a4,a5,36f2 <spi_gpio_init+0x9c>
D:\WCH\代码\3-PIT%20Demo\obj/../Libraries/seekfree_libraries/zf_spi.c:47 (discriminator 1)
    36e2:	31800693          	li	a3,792
    36e6:	4605                	li	a2,1
    36e8:	4585                	li	a1,1
    36ea:	451d                	li	a0,7
    36ec:	b80ff0ef          	jal	ra,2a6c <gpio_init>
    36f0:	a899                	j	3746 <spi_gpio_init+0xf0>
D:\WCH\代码\3-PIT%20Demo\obj/../Libraries/seekfree_libraries/zf_spi.c:48
    else if(SPI1_MOSI_PB5 == mosi_pin) gpio_init(B5, GPO, 1, SPEED_50MHZ|OUT_AF_PP);
    36f2:	fe842703          	lw	a4,-24(s0)
    36f6:	47c5                	li	a5,17
    36f8:	00f71b63          	bne	a4,a5,370e <spi_gpio_init+0xb8>
D:\WCH\代码\3-PIT%20Demo\obj/../Libraries/seekfree_libraries/zf_spi.c:48 (discriminator 1)
    36fc:	31800693          	li	a3,792
    3700:	4605                	li	a2,1
    3702:	4585                	li	a1,1
    3704:	02500513          	li	a0,37
    3708:	b64ff0ef          	jal	ra,2a6c <gpio_init>
    370c:	a82d                	j	3746 <spi_gpio_init+0xf0>
D:\WCH\代码\3-PIT%20Demo\obj/../Libraries/seekfree_libraries/zf_spi.c:49
    else if(SPI2_MOSI_PB15 == mosi_pin) gpio_init(B15, GPO, 1, SPEED_50MHZ|OUT_AF_PP);
    370e:	fe842703          	lw	a4,-24(s0)
    3712:	02100793          	li	a5,33
    3716:	00f71b63          	bne	a4,a5,372c <spi_gpio_init+0xd6>
D:\WCH\代码\3-PIT%20Demo\obj/../Libraries/seekfree_libraries/zf_spi.c:49 (discriminator 1)
    371a:	31800693          	li	a3,792
    371e:	4605                	li	a2,1
    3720:	4585                	li	a1,1
    3722:	02f00513          	li	a0,47
    3726:	b46ff0ef          	jal	ra,2a6c <gpio_init>
    372a:	a831                	j	3746 <spi_gpio_init+0xf0>
D:\WCH\代码\3-PIT%20Demo\obj/../Libraries/seekfree_libraries/zf_spi.c:50
    else assert(0);         //无此参数进入断言
    372c:	6799                	lui	a5,0x6
    372e:	74878693          	addi	a3,a5,1864 # 6748 <_exit+0x9e>
    3732:	679d                	lui	a5,0x7
    3734:	a0078613          	addi	a2,a5,-1536 # 6a00 <__func__.3348>
    3738:	03200593          	li	a1,50
    373c:	6799                	lui	a5,0x6
    373e:	74c78513          	addi	a0,a5,1868 # 674c <_exit+0xa2>
    3742:	529010ef          	jal	ra,546a <__assert_func>
D:\WCH\代码\3-PIT%20Demo\obj/../Libraries/seekfree_libraries/zf_spi.c:52

    if(SPI1_MISO_PA6 == miso_pin) gpio_init(A6, GPO, 1, SPEED_50MHZ|OUT_AF_PP);
    3746:	fe442703          	lw	a4,-28(s0)
    374a:	4789                	li	a5,2
    374c:	00f71a63          	bne	a4,a5,3760 <spi_gpio_init+0x10a>
D:\WCH\代码\3-PIT%20Demo\obj/../Libraries/seekfree_libraries/zf_spi.c:52 (discriminator 1)
    3750:	31800693          	li	a3,792
    3754:	4605                	li	a2,1
    3756:	4585                	li	a1,1
    3758:	4519                	li	a0,6
    375a:	b12ff0ef          	jal	ra,2a6c <gpio_init>
    375e:	a0b5                	j	37ca <spi_gpio_init+0x174>
D:\WCH\代码\3-PIT%20Demo\obj/../Libraries/seekfree_libraries/zf_spi.c:53
    else if(SPI1_MISO_PB4 == miso_pin) gpio_init(B4, GPO, 1, SPEED_50MHZ|OUT_AF_PP);
    3760:	fe442703          	lw	a4,-28(s0)
    3764:	47c9                	li	a5,18
    3766:	00f71b63          	bne	a4,a5,377c <spi_gpio_init+0x126>
D:\WCH\代码\3-PIT%20Demo\obj/../Libraries/seekfree_libraries/zf_spi.c:53 (discriminator 1)
    376a:	31800693          	li	a3,792
    376e:	4605                	li	a2,1
    3770:	4585                	li	a1,1
    3772:	02400513          	li	a0,36
    3776:	af6ff0ef          	jal	ra,2a6c <gpio_init>
    377a:	a881                	j	37ca <spi_gpio_init+0x174>
D:\WCH\代码\3-PIT%20Demo\obj/../Libraries/seekfree_libraries/zf_spi.c:54
    else if(SPI2_MISO_PB14 == miso_pin) gpio_init(B14, GPO, 1, SPEED_50MHZ|OUT_AF_PP);
    377c:	fe442703          	lw	a4,-28(s0)
    3780:	02200793          	li	a5,34
    3784:	00f71b63          	bne	a4,a5,379a <spi_gpio_init+0x144>
D:\WCH\代码\3-PIT%20Demo\obj/../Libraries/seekfree_libraries/zf_spi.c:54 (discriminator 1)
    3788:	31800693          	li	a3,792
    378c:	4605                	li	a2,1
    378e:	4585                	li	a1,1
    3790:	02e00513          	li	a0,46
    3794:	ad8ff0ef          	jal	ra,2a6c <gpio_init>
    3798:	a80d                	j	37ca <spi_gpio_init+0x174>
D:\WCH\代码\3-PIT%20Demo\obj/../Libraries/seekfree_libraries/zf_spi.c:55
    else if(SPI_MISO_NULL == miso_pin)  miso_pin = SPI_MISO_NULL;
    379a:	fe442703          	lw	a4,-28(s0)
    379e:	02300793          	li	a5,35
    37a2:	00f71763          	bne	a4,a5,37b0 <spi_gpio_init+0x15a>
D:\WCH\代码\3-PIT%20Demo\obj/../Libraries/seekfree_libraries/zf_spi.c:55 (discriminator 1)
    37a6:	02300793          	li	a5,35
    37aa:	fef42223          	sw	a5,-28(s0)
    37ae:	a831                	j	37ca <spi_gpio_init+0x174>
D:\WCH\代码\3-PIT%20Demo\obj/../Libraries/seekfree_libraries/zf_spi.c:56
    else  assert(0);         //无此参数进入断言
    37b0:	6799                	lui	a5,0x6
    37b2:	74878693          	addi	a3,a5,1864 # 6748 <_exit+0x9e>
    37b6:	679d                	lui	a5,0x7
    37b8:	a0078613          	addi	a2,a5,-1536 # 6a00 <__func__.3348>
    37bc:	03800593          	li	a1,56
    37c0:	6799                	lui	a5,0x6
    37c2:	74c78513          	addi	a0,a5,1868 # 674c <_exit+0xa2>
    37c6:	4a5010ef          	jal	ra,546a <__assert_func>
D:\WCH\代码\3-PIT%20Demo\obj/../Libraries/seekfree_libraries/zf_spi.c:59


    gpio_init(cs_pin, GPO, 1, SPEED_50MHZ|OUT_PP);
    37ca:	31000693          	li	a3,784
    37ce:	4605                	li	a2,1
    37d0:	4585                	li	a1,1
    37d2:	fe042503          	lw	a0,-32(s0)
    37d6:	a96ff0ef          	jal	ra,2a6c <gpio_init>
D:\WCH\代码\3-PIT%20Demo\obj/../Libraries/seekfree_libraries/zf_spi.c:61

}
    37da:	0001                	nop
    37dc:	40f2                	lw	ra,28(sp)
    37de:	4462                	lw	s0,24(sp)
    37e0:	6105                	addi	sp,sp,32
    37e2:	8082                	ret

000037e4 <spi_init>:
spi_init():
D:\WCH\代码\3-PIT%20Demo\obj/../Libraries/seekfree_libraries/zf_spi.c:85
        SPI_PIN_enum mosi_pin,
        SPI_PIN_enum miso_pin,
        PIN_enum cs_pin,
        uint8 mode,
        SPI_SPEED_enum BaudRatePrescaler)
{
    37e4:	715d                	addi	sp,sp,-80
    37e6:	c686                	sw	ra,76(sp)
    37e8:	c4a2                	sw	s0,72(sp)
    37ea:	0880                	addi	s0,sp,80
    37ec:	fca42623          	sw	a0,-52(s0)
    37f0:	fcb42423          	sw	a1,-56(s0)
    37f4:	fcc42223          	sw	a2,-60(s0)
    37f8:	fcd42023          	sw	a3,-64(s0)
    37fc:	fae42e23          	sw	a4,-68(s0)
    3800:	fb042a23          	sw	a6,-76(s0)
    3804:	faf40da3          	sb	a5,-69(s0)
D:\WCH\代码\3-PIT%20Demo\obj/../Libraries/seekfree_libraries/zf_spi.c:89

    SPI_InitTypeDef  SPI_InitStructure;

    if(SPI_1 == spi_n)
    3808:	fcc42783          	lw	a5,-52(s0)
    380c:	eb81                	bnez	a5,381c <spi_init+0x38>
D:\WCH\代码\3-PIT%20Demo\obj/../Libraries/seekfree_libraries/zf_spi.c:91
    {
        RCC_APB2PeriphClockCmd(RCC_APB2Periph_SPI1 | RCC_APB2Periph_AFIO, ENABLE);                //SPI1时钟使能
    380e:	4585                	li	a1,1
    3810:	6785                	lui	a5,0x1
    3812:	00178513          	addi	a0,a5,1 # 1001 <TIM_OC1Init+0x14f>
    3816:	bc4fd0ef          	jal	ra,bda <RCC_APB2PeriphClockCmd>
    381a:	a821                	j	3832 <spi_init+0x4e>
D:\WCH\代码\3-PIT%20Demo\obj/../Libraries/seekfree_libraries/zf_spi.c:93
    }
    else if(SPI_2 == spi_n)
    381c:	fcc42703          	lw	a4,-52(s0)
    3820:	4785                	li	a5,1
    3822:	00f71863          	bne	a4,a5,3832 <spi_init+0x4e>
D:\WCH\代码\3-PIT%20Demo\obj/../Libraries/seekfree_libraries/zf_spi.c:95
    {
        RCC_APB1PeriphClockCmd(RCC_APB1Periph_SPI2 | RCC_APB2Periph_AFIO, ENABLE);                //SPI2时钟使能
    3826:	4585                	li	a1,1
    3828:	6791                	lui	a5,0x4
    382a:	00178513          	addi	a0,a5,1 # 4001 <data_analysis+0xb9>
    382e:	bf2fd0ef          	jal	ra,c20 <RCC_APB1PeriphClockCmd>
D:\WCH\代码\3-PIT%20Demo\obj/../Libraries/seekfree_libraries/zf_spi.c:98
    }

    spi_gpio_init(sck_pin, mosi_pin, miso_pin, cs_pin);
    3832:	fbc42683          	lw	a3,-68(s0)
    3836:	fc042603          	lw	a2,-64(s0)
    383a:	fc442583          	lw	a1,-60(s0)
    383e:	fc842503          	lw	a0,-56(s0)
    3842:	3d11                	jal	3656 <spi_gpio_init>
D:\WCH\代码\3-PIT%20Demo\obj/../Libraries/seekfree_libraries/zf_spi.c:100

    SPI_InitStructure.SPI_Direction = SPI_Direction_2Lines_FullDuplex;      //SPI设置为双线双向全双工
    3844:	fc041e23          	sh	zero,-36(s0)
D:\WCH\代码\3-PIT%20Demo\obj/../Libraries/seekfree_libraries/zf_spi.c:101
    SPI_InitStructure.SPI_Mode = SPI_Mode_Master;                           //设置SPI工作模式:设置为主SPI
    3848:	10400793          	li	a5,260
    384c:	fcf41f23          	sh	a5,-34(s0)
D:\WCH\代码\3-PIT%20Demo\obj/../Libraries/seekfree_libraries/zf_spi.c:102
    SPI_InitStructure.SPI_DataSize = SPI_DataSize_8b;                       //设置SPI的数据大小:SPI发送接收8位帧结构
    3850:	fe041023          	sh	zero,-32(s0)
D:\WCH\代码\3-PIT%20Demo\obj/../Libraries/seekfree_libraries/zf_spi.c:104

    switch(mode)
    3854:	fbb44783          	lbu	a5,-69(s0)
    3858:	4705                	li	a4,1
    385a:	02e78363          	beq	a5,a4,3880 <spi_init+0x9c>
    385e:	4705                	li	a4,1
    3860:	00f74463          	blt	a4,a5,3868 <spi_init+0x84>
    3864:	cb89                	beqz	a5,3876 <spi_init+0x92>
    3866:	a081                	j	38a6 <spi_init+0xc2>
    3868:	4709                	li	a4,2
    386a:	02e78163          	beq	a5,a4,388c <spi_init+0xa8>
    386e:	470d                	li	a4,3
    3870:	02e78463          	beq	a5,a4,3898 <spi_init+0xb4>
    3874:	a80d                	j	38a6 <spi_init+0xc2>
D:\WCH\代码\3-PIT%20Demo\obj/../Libraries/seekfree_libraries/zf_spi.c:108
    {
        case 0:
        {
            SPI_InitStructure.SPI_CPOL = SPI_CPOL_Low;                      //串行同步时钟的空闲状态为低电平
    3876:	fe041123          	sh	zero,-30(s0)
D:\WCH\代码\3-PIT%20Demo\obj/../Libraries/seekfree_libraries/zf_spi.c:109
            SPI_InitStructure.SPI_CPHA = SPI_CPHA_1Edge;                    //串行同步时钟的第一个跳变沿（上升或下降）数据被采样
    387a:	fe041223          	sh	zero,-28(s0)
D:\WCH\代码\3-PIT%20Demo\obj/../Libraries/seekfree_libraries/zf_spi.c:110
        }break;
    387e:	a025                	j	38a6 <spi_init+0xc2>
D:\WCH\代码\3-PIT%20Demo\obj/../Libraries/seekfree_libraries/zf_spi.c:113
        case 1:
        {
            SPI_InitStructure.SPI_CPOL = SPI_CPOL_Low;                      //串行同步时钟的空闲状态为低电平
    3880:	fe041123          	sh	zero,-30(s0)
D:\WCH\代码\3-PIT%20Demo\obj/../Libraries/seekfree_libraries/zf_spi.c:114
            SPI_InitStructure.SPI_CPHA = SPI_CPHA_2Edge;                    //串行同步时钟的第二个跳变沿（上升或下降）数据被采样
    3884:	4785                	li	a5,1
    3886:	fef41223          	sh	a5,-28(s0)
D:\WCH\代码\3-PIT%20Demo\obj/../Libraries/seekfree_libraries/zf_spi.c:115
        }break;
    388a:	a831                	j	38a6 <spi_init+0xc2>
D:\WCH\代码\3-PIT%20Demo\obj/../Libraries/seekfree_libraries/zf_spi.c:118
        case 2:
        {
            SPI_InitStructure.SPI_CPOL = SPI_CPOL_High;                     //串行同步时钟的空闲状态为高电平
    388c:	4789                	li	a5,2
    388e:	fef41123          	sh	a5,-30(s0)
D:\WCH\代码\3-PIT%20Demo\obj/../Libraries/seekfree_libraries/zf_spi.c:119
            SPI_InitStructure.SPI_CPHA = SPI_CPHA_1Edge;                    //串行同步时钟的第一个跳变沿（上升或下降）数据被采样
    3892:	fe041223          	sh	zero,-28(s0)
D:\WCH\代码\3-PIT%20Demo\obj/../Libraries/seekfree_libraries/zf_spi.c:120
        }break;
    3896:	a801                	j	38a6 <spi_init+0xc2>
D:\WCH\代码\3-PIT%20Demo\obj/../Libraries/seekfree_libraries/zf_spi.c:123
        case 3:
        {
            SPI_InitStructure.SPI_CPOL = SPI_CPOL_High;                     //串行同步时钟的空闲状态为高电平
    3898:	4789                	li	a5,2
    389a:	fef41123          	sh	a5,-30(s0)
D:\WCH\代码\3-PIT%20Demo\obj/../Libraries/seekfree_libraries/zf_spi.c:124
            SPI_InitStructure.SPI_CPHA = SPI_CPHA_2Edge;                    //串行同步时钟的第二个跳变沿（上升或下降）数据被采样
    389e:	4785                	li	a5,1
    38a0:	fef41223          	sh	a5,-28(s0)
D:\WCH\代码\3-PIT%20Demo\obj/../Libraries/seekfree_libraries/zf_spi.c:125
        }break;
    38a4:	0001                	nop
D:\WCH\代码\3-PIT%20Demo\obj/../Libraries/seekfree_libraries/zf_spi.c:128
    }

    SPI_InitStructure.SPI_NSS = SPI_NSS_Soft;                               //主机模式，使用软件控制NSS引脚
    38a6:	20000793          	li	a5,512
    38aa:	fef41323          	sh	a5,-26(s0)
D:\WCH\代码\3-PIT%20Demo\obj/../Libraries/seekfree_libraries/zf_spi.c:129
    SPI_InitStructure.SPI_BaudRatePrescaler = BaudRatePrescaler << 3;       //定义波特率预分频的值
    38ae:	fb442783          	lw	a5,-76(s0)
    38b2:	07c2                	slli	a5,a5,0x10
    38b4:	83c1                	srli	a5,a5,0x10
    38b6:	078e                	slli	a5,a5,0x3
    38b8:	07c2                	slli	a5,a5,0x10
    38ba:	83c1                	srli	a5,a5,0x10
    38bc:	fef41423          	sh	a5,-24(s0)
D:\WCH\代码\3-PIT%20Demo\obj/../Libraries/seekfree_libraries/zf_spi.c:130
    SPI_InitStructure.SPI_FirstBit = SPI_FirstBit_MSB;                      //指定数据传输从MSB位还是LSB位开始:数据传输从MSB位开始
    38c0:	fe041523          	sh	zero,-22(s0)
D:\WCH\代码\3-PIT%20Demo\obj/../Libraries/seekfree_libraries/zf_spi.c:131
    SPI_InitStructure.SPI_CRCPolynomial = 7;                                //CRC值计算的多项式
    38c4:	479d                	li	a5,7
    38c6:	fef41623          	sh	a5,-20(s0)
D:\WCH\代码\3-PIT%20Demo\obj/../Libraries/seekfree_libraries/zf_spi.c:132
    SPI_Init((SPI_TypeDef *)(SPIN[spi_n]), &SPI_InitStructure);             //根据SPI_InitStruct中指定的参数初始化外设SPIx寄存器
    38ca:	fcc42703          	lw	a4,-52(s0)
    38ce:	070a                	slli	a4,a4,0x2
    38d0:	80c18793          	addi	a5,gp,-2036 # 20000094 <SPIN>
    38d4:	97ba                	add	a5,a5,a4
    38d6:	439c                	lw	a5,0(a5)
    38d8:	873e                	mv	a4,a5
    38da:	fdc40793          	addi	a5,s0,-36
    38de:	85be                	mv	a1,a5
    38e0:	853a                	mv	a0,a4
    38e2:	b84fd0ef          	jal	ra,c66 <SPI_Init>
D:\WCH\代码\3-PIT%20Demo\obj/../Libraries/seekfree_libraries/zf_spi.c:134

    if(SPI1_SCK_PB3 == sck_pin) GPIO_PinRemapConfig(GPIO_Remap_SPI1, ENABLE);
    38e6:	fc842703          	lw	a4,-56(s0)
    38ea:	47c1                	li	a5,16
    38ec:	00f71663          	bne	a4,a5,38f8 <spi_init+0x114>
D:\WCH\代码\3-PIT%20Demo\obj/../Libraries/seekfree_libraries/zf_spi.c:134 (discriminator 1)
    38f0:	4585                	li	a1,1
    38f2:	4505                	li	a0,1
    38f4:	cddfc0ef          	jal	ra,5d0 <GPIO_PinRemapConfig>
D:\WCH\代码\3-PIT%20Demo\obj/../Libraries/seekfree_libraries/zf_spi.c:136

    SPI_Cmd(((SPI_TypeDef *)(SPIN[spi_n])), ENABLE);                         //使能SPI外设
    38f8:	fcc42703          	lw	a4,-52(s0)
    38fc:	070a                	slli	a4,a4,0x2
    38fe:	80c18793          	addi	a5,gp,-2036 # 20000094 <SPIN>
    3902:	97ba                	add	a5,a5,a4
    3904:	439c                	lw	a5,0(a5)
    3906:	4585                	li	a1,1
    3908:	853e                	mv	a0,a5
    390a:	c54fd0ef          	jal	ra,d5e <SPI_Cmd>
D:\WCH\代码\3-PIT%20Demo\obj/../Libraries/seekfree_libraries/zf_spi.c:138

}
    390e:	0001                	nop
    3910:	40b6                	lw	ra,76(sp)
    3912:	4426                	lw	s0,72(sp)
    3914:	6161                	addi	sp,sp,80
    3916:	8082                	ret

00003918 <spi_mosi>:
spi_mosi():
D:\WCH\代码\3-PIT%20Demo\obj/../Libraries/seekfree_libraries/zf_spi.c:151
//  @return     void
//  @since      v2.0
//  Sample usage:               spi_mosi(SPI_1, buf, buf, 1);    //发送modata的内容，并接收到midata里，长度为1字节
//-------------------------------------------------------------------------------------------------------------------
void spi_mosi(SPIN_enum spi_n, uint8 *modata, uint8 *midata, uint32 len)
{
    3918:	1101                	addi	sp,sp,-32
    391a:	ce22                	sw	s0,28(sp)
    391c:	1000                	addi	s0,sp,32
    391e:	fea42623          	sw	a0,-20(s0)
    3922:	feb42423          	sw	a1,-24(s0)
    3926:	fec42223          	sw	a2,-28(s0)
    392a:	fed42023          	sw	a3,-32(s0)
D:\WCH\代码\3-PIT%20Demo\obj/../Libraries/seekfree_libraries/zf_spi.c:152
    while(len--)
    392e:	a859                	j	39c4 <spi_mosi+0xac>
D:\WCH\代码\3-PIT%20Demo\obj/../Libraries/seekfree_libraries/zf_spi.c:154
    {
        while((((SPI_TypeDef *)(SPIN[spi_n]))->STATR & SPI_I2S_FLAG_TXE) == RESET);
    3930:	0001                	nop
D:\WCH\代码\3-PIT%20Demo\obj/../Libraries/seekfree_libraries/zf_spi.c:154 (discriminator 1)
    3932:	fec42703          	lw	a4,-20(s0)
    3936:	070a                	slli	a4,a4,0x2
    3938:	80c18793          	addi	a5,gp,-2036 # 20000094 <SPIN>
    393c:	97ba                	add	a5,a5,a4
    393e:	439c                	lw	a5,0(a5)
    3940:	0087d783          	lhu	a5,8(a5)
    3944:	07c2                	slli	a5,a5,0x10
    3946:	83c1                	srli	a5,a5,0x10
    3948:	8b89                	andi	a5,a5,2
    394a:	d7e5                	beqz	a5,3932 <spi_mosi+0x1a>
D:\WCH\代码\3-PIT%20Demo\obj/../Libraries/seekfree_libraries/zf_spi.c:155
        ((SPI_TypeDef *)(SPIN[spi_n]))->DATAR = *(modata++);
    394c:	fe842783          	lw	a5,-24(s0)
    3950:	00178713          	addi	a4,a5,1
    3954:	fee42423          	sw	a4,-24(s0)
    3958:	0007c683          	lbu	a3,0(a5)
    395c:	fec42703          	lw	a4,-20(s0)
    3960:	070a                	slli	a4,a4,0x2
    3962:	80c18793          	addi	a5,gp,-2036 # 20000094 <SPIN>
    3966:	97ba                	add	a5,a5,a4
    3968:	439c                	lw	a5,0(a5)
    396a:	873e                	mv	a4,a5
    396c:	01069793          	slli	a5,a3,0x10
    3970:	83c1                	srli	a5,a5,0x10
    3972:	00f71623          	sh	a5,12(a4)
D:\WCH\代码\3-PIT%20Demo\obj/../Libraries/seekfree_libraries/zf_spi.c:156
        if(NULL != midata)
    3976:	fe442783          	lw	a5,-28(s0)
    397a:	c7a9                	beqz	a5,39c4 <spi_mosi+0xac>
D:\WCH\代码\3-PIT%20Demo\obj/../Libraries/seekfree_libraries/zf_spi.c:158
        {
            while((((SPI_TypeDef *)(SPIN[spi_n]))->STATR & SPI_I2S_FLAG_RXNE) == RESET);
    397c:	0001                	nop
D:\WCH\代码\3-PIT%20Demo\obj/../Libraries/seekfree_libraries/zf_spi.c:158 (discriminator 1)
    397e:	fec42703          	lw	a4,-20(s0)
    3982:	070a                	slli	a4,a4,0x2
    3984:	80c18793          	addi	a5,gp,-2036 # 20000094 <SPIN>
    3988:	97ba                	add	a5,a5,a4
    398a:	439c                	lw	a5,0(a5)
    398c:	0087d783          	lhu	a5,8(a5)
    3990:	07c2                	slli	a5,a5,0x10
    3992:	83c1                	srli	a5,a5,0x10
    3994:	8b85                	andi	a5,a5,1
    3996:	d7e5                	beqz	a5,397e <spi_mosi+0x66>
D:\WCH\代码\3-PIT%20Demo\obj/../Libraries/seekfree_libraries/zf_spi.c:159
            *(midata++) = ((SPI_TypeDef *)(SPIN[spi_n]))->DATAR;
    3998:	fec42703          	lw	a4,-20(s0)
    399c:	070a                	slli	a4,a4,0x2
    399e:	80c18793          	addi	a5,gp,-2036 # 20000094 <SPIN>
    39a2:	97ba                	add	a5,a5,a4
    39a4:	439c                	lw	a5,0(a5)
    39a6:	00c7d783          	lhu	a5,12(a5)
    39aa:	01079693          	slli	a3,a5,0x10
    39ae:	82c1                	srli	a3,a3,0x10
    39b0:	fe442783          	lw	a5,-28(s0)
    39b4:	00178713          	addi	a4,a5,1
    39b8:	fee42223          	sw	a4,-28(s0)
    39bc:	0ff6f713          	andi	a4,a3,255
    39c0:	00e78023          	sb	a4,0(a5)
D:\WCH\代码\3-PIT%20Demo\obj/../Libraries/seekfree_libraries/zf_spi.c:152
    while(len--)
    39c4:	fe042783          	lw	a5,-32(s0)
    39c8:	fff78713          	addi	a4,a5,-1
    39cc:	fee42023          	sw	a4,-32(s0)
    39d0:	f3a5                	bnez	a5,3930 <spi_mosi+0x18>
D:\WCH\代码\3-PIT%20Demo\obj/../Libraries/seekfree_libraries/zf_spi.c:162
        }
    }
}
    39d2:	0001                	nop
    39d4:	4472                	lw	s0,28(sp)
    39d6:	6105                	addi	sp,sp,32
    39d8:	8082                	ret

000039da <systick_delay>:
systick_delay():
D:\WCH\代码\3-PIT%20Demo\obj/../Libraries/seekfree_libraries/zf_systick.c:29
//  @param      time                us
//  @return     void
//  Sample usage:                   内部使用，用户无需关心
//-------------------------------------------------------------------------------------------------------------------
void systick_delay(uint32 time)
{
    39da:	7179                	addi	sp,sp,-48
    39dc:	d622                	sw	s0,44(sp)
    39de:	1800                	addi	s0,sp,48
    39e0:	fca42e23          	sw	a0,-36(s0)
D:\WCH\代码\3-PIT%20Demo\obj/../Libraries/seekfree_libraries/zf_systick.c:32
    uint32 i;

    SysTick->CTLR = 0;
    39e4:	e000f7b7          	lui	a5,0xe000f
    39e8:	0007a023          	sw	zero,0(a5) # e000f000 <_eusrstack+0xc000a000>
D:\WCH\代码\3-PIT%20Demo\obj/../Libraries/seekfree_libraries/zf_systick.c:33
    i = (uint32)time * (sys_clk/8000000);
    39ec:	8301a703          	lw	a4,-2000(gp) # 200000b8 <sys_clk>
    39f0:	007a17b7          	lui	a5,0x7a1
    39f4:	20078793          	addi	a5,a5,512 # 7a1200 <_data_lma+0x79a584>
    39f8:	02f757b3          	divu	a5,a4,a5
    39fc:	fdc42703          	lw	a4,-36(s0)
    3a00:	02f707b3          	mul	a5,a4,a5
    3a04:	fef42623          	sw	a5,-20(s0)
D:\WCH\代码\3-PIT%20Demo\obj/../Libraries/seekfree_libraries/zf_systick.c:35

    SysTick->CNTL0 = 0;
    3a08:	e000f7b7          	lui	a5,0xe000f
    3a0c:	00078223          	sb	zero,4(a5) # e000f004 <_eusrstack+0xc000a004>
D:\WCH\代码\3-PIT%20Demo\obj/../Libraries/seekfree_libraries/zf_systick.c:36
    SysTick->CNTL1 = 0;
    3a10:	e000f7b7          	lui	a5,0xe000f
    3a14:	000782a3          	sb	zero,5(a5) # e000f005 <_eusrstack+0xc000a005>
D:\WCH\代码\3-PIT%20Demo\obj/../Libraries/seekfree_libraries/zf_systick.c:37
    SysTick->CNTL2 = 0;
    3a18:	e000f7b7          	lui	a5,0xe000f
    3a1c:	00078323          	sb	zero,6(a5) # e000f006 <_eusrstack+0xc000a006>
D:\WCH\代码\3-PIT%20Demo\obj/../Libraries/seekfree_libraries/zf_systick.c:38
    SysTick->CNTL3 = 0;
    3a20:	e000f7b7          	lui	a5,0xe000f
    3a24:	000783a3          	sb	zero,7(a5) # e000f007 <_eusrstack+0xc000a007>
D:\WCH\代码\3-PIT%20Demo\obj/../Libraries/seekfree_libraries/zf_systick.c:39
    SysTick->CTLR = 1;          //启动系统计数器 systick（HCLK/8 时基） us
    3a28:	e000f7b7          	lui	a5,0xe000f
    3a2c:	4705                	li	a4,1
    3a2e:	c398                	sw	a4,0(a5)
D:\WCH\代码\3-PIT%20Demo\obj/../Libraries/seekfree_libraries/zf_systick.c:41

    while((*(volatile uint32*)0xE000F004) <= i);
    3a30:	0001                	nop
D:\WCH\代码\3-PIT%20Demo\obj/../Libraries/seekfree_libraries/zf_systick.c:41 (discriminator 1)
    3a32:	e000f7b7          	lui	a5,0xe000f
    3a36:	0791                	addi	a5,a5,4
    3a38:	439c                	lw	a5,0(a5)
    3a3a:	fec42703          	lw	a4,-20(s0)
    3a3e:	fef77ae3          	bgeu	a4,a5,3a32 <systick_delay+0x58>
D:\WCH\代码\3-PIT%20Demo\obj/../Libraries/seekfree_libraries/zf_systick.c:43

}
    3a42:	0001                	nop
    3a44:	5432                	lw	s0,44(sp)
    3a46:	6145                	addi	sp,sp,48
    3a48:	8082                	ret

00003a4a <uart_gpio_init>:
uart_gpio_init():
D:\WCH\代码\3-PIT%20Demo\obj/../Libraries/seekfree_libraries/zf_uart.c:38
//  @param      rx_pin      串口接收引脚号
//  @return     void
//  Sample usage:           内部使用，用户无需关心
//-------------------------------------------------------------------------------------------------------------------
void uart_gpio_init(UARTPIN_enum tx_pin, UARTPIN_enum rx_pin)
{
    3a4a:	1101                	addi	sp,sp,-32
    3a4c:	ce06                	sw	ra,28(sp)
    3a4e:	cc22                	sw	s0,24(sp)
    3a50:	1000                	addi	s0,sp,32
    3a52:	fea42623          	sw	a0,-20(s0)
    3a56:	feb42423          	sw	a1,-24(s0)
D:\WCH\代码\3-PIT%20Demo\obj/../Libraries/seekfree_libraries/zf_uart.c:39
    if(tx_pin == UART1_TX_A9 && rx_pin == UART1_RX_A10)
    3a5a:	fec42783          	lw	a5,-20(s0)
    3a5e:	e785                	bnez	a5,3a86 <uart_gpio_init+0x3c>
D:\WCH\代码\3-PIT%20Demo\obj/../Libraries/seekfree_libraries/zf_uart.c:39 (discriminator 1)
    3a60:	fe842703          	lw	a4,-24(s0)
    3a64:	4785                	li	a5,1
    3a66:	02f71063          	bne	a4,a5,3a86 <uart_gpio_init+0x3c>
D:\WCH\代码\3-PIT%20Demo\obj/../Libraries/seekfree_libraries/zf_uart.c:41
    {
        gpio_init(A9, GPO, 0, SPEED_50MHZ|OUT_AF_PP);
    3a6a:	31800693          	li	a3,792
    3a6e:	4601                	li	a2,0
    3a70:	4585                	li	a1,1
    3a72:	4525                	li	a0,9
    3a74:	ff9fe0ef          	jal	ra,2a6c <gpio_init>
D:\WCH\代码\3-PIT%20Demo\obj/../Libraries/seekfree_libraries/zf_uart.c:42
        gpio_init(A10, GPI, 0, IN_FLOAT);
    3a78:	4691                	li	a3,4
    3a7a:	4601                	li	a2,0
    3a7c:	4581                	li	a1,0
    3a7e:	4529                	li	a0,10
    3a80:	fedfe0ef          	jal	ra,2a6c <gpio_init>
D:\WCH\代码\3-PIT%20Demo\obj/../Libraries/seekfree_libraries/zf_uart.c:67
    else if(tx_pin == UART3_TX_C10)
    {
        gpio_init(C10, GPO, 0, SPEED_50MHZ|OUT_PP);
        gpio_init(C11, GPI, 0, IN_FLOAT);
    }
}
    3a84:	a065                	j	3b2c <uart_gpio_init+0xe2>
D:\WCH\代码\3-PIT%20Demo\obj/../Libraries/seekfree_libraries/zf_uart.c:44
    else if(tx_pin == UART1_TX_B6)
    3a86:	fec42703          	lw	a4,-20(s0)
    3a8a:	4789                	li	a5,2
    3a8c:	02f71263          	bne	a4,a5,3ab0 <uart_gpio_init+0x66>
D:\WCH\代码\3-PIT%20Demo\obj/../Libraries/seekfree_libraries/zf_uart.c:46
        gpio_init(B6, GPO, 0, SPEED_50MHZ|OUT_AF_PP);
    3a90:	31800693          	li	a3,792
    3a94:	4601                	li	a2,0
    3a96:	4585                	li	a1,1
    3a98:	02600513          	li	a0,38
    3a9c:	fd1fe0ef          	jal	ra,2a6c <gpio_init>
D:\WCH\代码\3-PIT%20Demo\obj/../Libraries/seekfree_libraries/zf_uart.c:47
        gpio_init(B7, GPI, 0, IN_FLOAT);
    3aa0:	4691                	li	a3,4
    3aa2:	4601                	li	a2,0
    3aa4:	4581                	li	a1,0
    3aa6:	02700513          	li	a0,39
    3aaa:	fc3fe0ef          	jal	ra,2a6c <gpio_init>
D:\WCH\代码\3-PIT%20Demo\obj/../Libraries/seekfree_libraries/zf_uart.c:67
}
    3aae:	a8bd                	j	3b2c <uart_gpio_init+0xe2>
D:\WCH\代码\3-PIT%20Demo\obj/../Libraries/seekfree_libraries/zf_uart.c:50
    else if(tx_pin == UART2_TX_A2)
    3ab0:	fec42703          	lw	a4,-20(s0)
    3ab4:	47c1                	li	a5,16
    3ab6:	02f71063          	bne	a4,a5,3ad6 <uart_gpio_init+0x8c>
D:\WCH\代码\3-PIT%20Demo\obj/../Libraries/seekfree_libraries/zf_uart.c:52
        gpio_init(A2, GPO, 0, SPEED_50MHZ|OUT_AF_PP);
    3aba:	31800693          	li	a3,792
    3abe:	4601                	li	a2,0
    3ac0:	4585                	li	a1,1
    3ac2:	4509                	li	a0,2
    3ac4:	fa9fe0ef          	jal	ra,2a6c <gpio_init>
D:\WCH\代码\3-PIT%20Demo\obj/../Libraries/seekfree_libraries/zf_uart.c:53
        gpio_init(A3, GPI, 0, IN_FLOAT);
    3ac8:	4691                	li	a3,4
    3aca:	4601                	li	a2,0
    3acc:	4581                	li	a1,0
    3ace:	450d                	li	a0,3
    3ad0:	f9dfe0ef          	jal	ra,2a6c <gpio_init>
D:\WCH\代码\3-PIT%20Demo\obj/../Libraries/seekfree_libraries/zf_uart.c:67
}
    3ad4:	a8a1                	j	3b2c <uart_gpio_init+0xe2>
D:\WCH\代码\3-PIT%20Demo\obj/../Libraries/seekfree_libraries/zf_uart.c:56
    else if(tx_pin == UART3_TX_B10)
    3ad6:	fec42703          	lw	a4,-20(s0)
    3ada:	02000793          	li	a5,32
    3ade:	02f71263          	bne	a4,a5,3b02 <uart_gpio_init+0xb8>
D:\WCH\代码\3-PIT%20Demo\obj/../Libraries/seekfree_libraries/zf_uart.c:58
        gpio_init(B10, GPO, 0, SPEED_50MHZ|OUT_AF_PP);
    3ae2:	31800693          	li	a3,792
    3ae6:	4601                	li	a2,0
    3ae8:	4585                	li	a1,1
    3aea:	02a00513          	li	a0,42
    3aee:	f7ffe0ef          	jal	ra,2a6c <gpio_init>
D:\WCH\代码\3-PIT%20Demo\obj/../Libraries/seekfree_libraries/zf_uart.c:59
        gpio_init(B11, GPI, 0, IN_FLOAT);
    3af2:	4691                	li	a3,4
    3af4:	4601                	li	a2,0
    3af6:	4581                	li	a1,0
    3af8:	02b00513          	li	a0,43
    3afc:	f71fe0ef          	jal	ra,2a6c <gpio_init>
D:\WCH\代码\3-PIT%20Demo\obj/../Libraries/seekfree_libraries/zf_uart.c:67
}
    3b00:	a035                	j	3b2c <uart_gpio_init+0xe2>
D:\WCH\代码\3-PIT%20Demo\obj/../Libraries/seekfree_libraries/zf_uart.c:62
    else if(tx_pin == UART3_TX_C10)
    3b02:	fec42703          	lw	a4,-20(s0)
    3b06:	02200793          	li	a5,34
    3b0a:	02f71163          	bne	a4,a5,3b2c <uart_gpio_init+0xe2>
D:\WCH\代码\3-PIT%20Demo\obj/../Libraries/seekfree_libraries/zf_uart.c:64
        gpio_init(C10, GPO, 0, SPEED_50MHZ|OUT_PP);
    3b0e:	31000693          	li	a3,784
    3b12:	4601                	li	a2,0
    3b14:	4585                	li	a1,1
    3b16:	04a00513          	li	a0,74
    3b1a:	f53fe0ef          	jal	ra,2a6c <gpio_init>
D:\WCH\代码\3-PIT%20Demo\obj/../Libraries/seekfree_libraries/zf_uart.c:65
        gpio_init(C11, GPI, 0, IN_FLOAT);
    3b1e:	4691                	li	a3,4
    3b20:	4601                	li	a2,0
    3b22:	4581                	li	a1,0
    3b24:	04b00513          	li	a0,75
    3b28:	f45fe0ef          	jal	ra,2a6c <gpio_init>
D:\WCH\代码\3-PIT%20Demo\obj/../Libraries/seekfree_libraries/zf_uart.c:67
}
    3b2c:	0001                	nop
    3b2e:	40f2                	lw	ra,28(sp)
    3b30:	4462                	lw	s0,24(sp)
    3b32:	6105                	addi	sp,sp,32
    3b34:	8082                	ret

00003b36 <uart_init>:
uart_init():
D:\WCH\代码\3-PIT%20Demo\obj/../Libraries/seekfree_libraries/zf_uart.c:79
//  @param      rx_pin      串口接收引脚号
//  @return     void
//  Sample usage:           uart_init(UART_1, 115200, UART1_TX_A9, UART1_RX_A10); //串口1初始化引脚号,TX为A9,RX为A10
//-------------------------------------------------------------------------------------------------------------------
void uart_init(UARTN_enum uartn, uint32 baud, UARTPIN_enum tx_pin, UARTPIN_enum rx_pin)
{
    3b36:	7179                	addi	sp,sp,-48
    3b38:	d606                	sw	ra,44(sp)
    3b3a:	d422                	sw	s0,40(sp)
    3b3c:	1800                	addi	s0,sp,48
    3b3e:	fca42e23          	sw	a0,-36(s0)
    3b42:	fcb42c23          	sw	a1,-40(s0)
    3b46:	fcc42a23          	sw	a2,-44(s0)
    3b4a:	fcd42823          	sw	a3,-48(s0)
D:\WCH\代码\3-PIT%20Demo\obj/../Libraries/seekfree_libraries/zf_uart.c:83
    USART_InitTypeDef USART_InitStructure;

    //串口总线使能
    if(UART_1 == uartn) RCC_APB2PeriphClockCmd(RCC_APB2Periph_USART1, ENABLE);
    3b4e:	fdc42783          	lw	a5,-36(s0)
    3b52:	e791                	bnez	a5,3b5e <uart_init+0x28>
D:\WCH\代码\3-PIT%20Demo\obj/../Libraries/seekfree_libraries/zf_uart.c:83 (discriminator 1)
    3b54:	4585                	li	a1,1
    3b56:	6511                	lui	a0,0x4
    3b58:	882fd0ef          	jal	ra,bda <RCC_APB2PeriphClockCmd>
    3b5c:	a035                	j	3b88 <uart_init+0x52>
D:\WCH\代码\3-PIT%20Demo\obj/../Libraries/seekfree_libraries/zf_uart.c:84
    else if(UART_2 == uartn) RCC_APB1PeriphClockCmd(RCC_APB1Periph_USART2, ENABLE);
    3b5e:	fdc42703          	lw	a4,-36(s0)
    3b62:	4785                	li	a5,1
    3b64:	00f71863          	bne	a4,a5,3b74 <uart_init+0x3e>
D:\WCH\代码\3-PIT%20Demo\obj/../Libraries/seekfree_libraries/zf_uart.c:84 (discriminator 1)
    3b68:	4585                	li	a1,1
    3b6a:	00020537          	lui	a0,0x20
    3b6e:	8b2fd0ef          	jal	ra,c20 <RCC_APB1PeriphClockCmd>
    3b72:	a819                	j	3b88 <uart_init+0x52>
D:\WCH\代码\3-PIT%20Demo\obj/../Libraries/seekfree_libraries/zf_uart.c:85
    else if(UART_3 == uartn) RCC_APB1PeriphClockCmd(RCC_APB1Periph_USART3, ENABLE);
    3b74:	fdc42703          	lw	a4,-36(s0)
    3b78:	4789                	li	a5,2
    3b7a:	00f71763          	bne	a4,a5,3b88 <uart_init+0x52>
D:\WCH\代码\3-PIT%20Demo\obj/../Libraries/seekfree_libraries/zf_uart.c:85 (discriminator 1)
    3b7e:	4585                	li	a1,1
    3b80:	00040537          	lui	a0,0x40
    3b84:	89cfd0ef          	jal	ra,c20 <RCC_APB1PeriphClockCmd>
D:\WCH\代码\3-PIT%20Demo\obj/../Libraries/seekfree_libraries/zf_uart.c:88

    //引脚初始化
    uart_gpio_init(tx_pin, rx_pin);
    3b88:	fd042583          	lw	a1,-48(s0)
    3b8c:	fd442503          	lw	a0,-44(s0)
    3b90:	3d6d                	jal	3a4a <uart_gpio_init>
D:\WCH\代码\3-PIT%20Demo\obj/../Libraries/seekfree_libraries/zf_uart.c:91

    //串口参数配置
    USART_InitStructure.USART_BaudRate = baud;
    3b92:	fd842783          	lw	a5,-40(s0)
    3b96:	fef42023          	sw	a5,-32(s0)
D:\WCH\代码\3-PIT%20Demo\obj/../Libraries/seekfree_libraries/zf_uart.c:92
    USART_InitStructure.USART_WordLength = USART_WordLength_8b;
    3b9a:	fe041223          	sh	zero,-28(s0)
D:\WCH\代码\3-PIT%20Demo\obj/../Libraries/seekfree_libraries/zf_uart.c:93
    USART_InitStructure.USART_StopBits = USART_StopBits_1;
    3b9e:	fe041323          	sh	zero,-26(s0)
D:\WCH\代码\3-PIT%20Demo\obj/../Libraries/seekfree_libraries/zf_uart.c:94
    USART_InitStructure.USART_Parity = USART_Parity_No;
    3ba2:	fe041423          	sh	zero,-24(s0)
D:\WCH\代码\3-PIT%20Demo\obj/../Libraries/seekfree_libraries/zf_uart.c:95
    USART_InitStructure.USART_HardwareFlowControl = USART_HardwareFlowControl_None;
    3ba6:	fe041623          	sh	zero,-20(s0)
D:\WCH\代码\3-PIT%20Demo\obj/../Libraries/seekfree_libraries/zf_uart.c:96
    USART_InitStructure.USART_Mode = USART_Mode_Tx | USART_Mode_Rx;
    3baa:	47b1                	li	a5,12
    3bac:	fef41523          	sh	a5,-22(s0)
D:\WCH\代码\3-PIT%20Demo\obj/../Libraries/seekfree_libraries/zf_uart.c:99

    //使能串口
    USART_Init((USART_TypeDef*)UARTN[uartn], &USART_InitStructure);
    3bb0:	679d                	lui	a5,0x7
    3bb2:	fdc42703          	lw	a4,-36(s0)
    3bb6:	070a                	slli	a4,a4,0x2
    3bb8:	a1078793          	addi	a5,a5,-1520 # 6a10 <UARTN>
    3bbc:	97ba                	add	a5,a5,a4
    3bbe:	439c                	lw	a5,0(a5)
    3bc0:	873e                	mv	a4,a5
    3bc2:	fe040793          	addi	a5,s0,-32
    3bc6:	85be                	mv	a1,a5
    3bc8:	853a                	mv	a0,a4
    3bca:	d5ffd0ef          	jal	ra,1928 <USART_Init>
D:\WCH\代码\3-PIT%20Demo\obj/../Libraries/seekfree_libraries/zf_uart.c:100
    USART_Cmd((USART_TypeDef*)UARTN[uartn], ENABLE);
    3bce:	679d                	lui	a5,0x7
    3bd0:	fdc42703          	lw	a4,-36(s0)
    3bd4:	070a                	slli	a4,a4,0x2
    3bd6:	a1078793          	addi	a5,a5,-1520 # 6a10 <UARTN>
    3bda:	97ba                	add	a5,a5,a4
    3bdc:	439c                	lw	a5,0(a5)
    3bde:	4585                	li	a1,1
    3be0:	853e                	mv	a0,a5
    3be2:	f7bfd0ef          	jal	ra,1b5c <USART_Cmd>
D:\WCH\代码\3-PIT%20Demo\obj/../Libraries/seekfree_libraries/zf_uart.c:102

}
    3be6:	0001                	nop
    3be8:	50b2                	lw	ra,44(sp)
    3bea:	5422                	lw	s0,40(sp)
    3bec:	6145                	addi	sp,sp,48
    3bee:	8082                	ret

00003bf0 <board_init>:
board_init():
D:\WCH\代码\3-PIT%20Demo\obj/../Libraries/board/board.c:9




void board_init(void)
{
    3bf0:	1141                	addi	sp,sp,-16
    3bf2:	c606                	sw	ra,12(sp)
    3bf4:	c422                	sw	s0,8(sp)
    3bf6:	0800                	addi	s0,sp,16
D:\WCH\代码\3-PIT%20Demo\obj/../Libraries/board/board.c:11
    //获取系统主频
    sys_clk = 8000000 * (((RCC->CFGR0 >> 18)&0x0F) + 2);
    3bf8:	400217b7          	lui	a5,0x40021
    3bfc:	43dc                	lw	a5,4(a5)
    3bfe:	83c9                	srli	a5,a5,0x12
    3c00:	00f7f713          	andi	a4,a5,15
    3c04:	007a17b7          	lui	a5,0x7a1
    3c08:	20078793          	addi	a5,a5,512 # 7a1200 <_data_lma+0x79a584>
    3c0c:	02f70733          	mul	a4,a4,a5
    3c10:	00f427b7          	lui	a5,0xf42
    3c14:	40078793          	addi	a5,a5,1024 # f42400 <_data_lma+0xf3b784>
    3c18:	973e                	add	a4,a4,a5
    3c1a:	82e1a823          	sw	a4,-2000(gp) # 200000b8 <sys_clk>
D:\WCH\代码\3-PIT%20Demo\obj/../Libraries/board/board.c:13
    //初始化DEBUG串口
    uart_init(DEBUG_UART, DEBUG_UART_BAUD, DEBUG_UART_TX_PIN, DEBUG_UART_RX_PIN);
    3c1e:	4685                	li	a3,1
    3c20:	4601                	li	a2,0
    3c22:	67f1                	lui	a5,0x1c
    3c24:	20078593          	addi	a1,a5,512 # 1c200 <_data_lma+0x15584>
    3c28:	4501                	li	a0,0
    3c2a:	3731                	jal	3b36 <uart_init>
D:\WCH\代码\3-PIT%20Demo\obj/../Libraries/board/board.c:14
}
    3c2c:	0001                	nop
    3c2e:	40b2                	lw	ra,12(sp)
    3c30:	4422                	lw	s0,8(sp)
    3c32:	0141                	addi	sp,sp,16
    3c34:	8082                	ret

00003c36 <_write>:
_write():
D:\WCH\代码\3-PIT%20Demo\obj/../Libraries/board/board.c:25
//  @since      v1.0
//  Sample usage:              重定向printf到DEBUG串口上
//-------------------------------------------------------------------------------------------------------------------
#if (1 == PRINTF_ENABLE)
int _write(int fd, char *buf, int size)
{
    3c36:	7179                	addi	sp,sp,-48
    3c38:	d606                	sw	ra,44(sp)
    3c3a:	d422                	sw	s0,40(sp)
    3c3c:	1800                	addi	s0,sp,48
    3c3e:	fca42e23          	sw	a0,-36(s0)
    3c42:	fcb42c23          	sw	a1,-40(s0)
    3c46:	fcc42a23          	sw	a2,-44(s0)
D:\WCH\代码\3-PIT%20Demo\obj/../Libraries/board/board.c:27
    int i;
    for(i=0; i<size; i++)
    3c4a:	fe042623          	sw	zero,-20(s0)
    3c4e:	a099                	j	3c94 <_write+0x5e>
D:\WCH\代码\3-PIT%20Demo\obj/../Libraries/board/board.c:29
    {
        while (USART_GetFlagStatus((USART_TypeDef*)UARTN[DEBUG_UART], USART_FLAG_TC) == RESET);
    3c50:	0001                	nop
D:\WCH\代码\3-PIT%20Demo\obj/../Libraries/board/board.c:29 (discriminator 1)
    3c52:	679d                	lui	a5,0x7
    3c54:	a107a783          	lw	a5,-1520(a5) # 6a10 <UARTN>
    3c58:	04000593          	li	a1,64
    3c5c:	853e                	mv	a0,a5
    3c5e:	fb3fd0ef          	jal	ra,1c10 <USART_GetFlagStatus>
    3c62:	87aa                	mv	a5,a0
    3c64:	d7fd                	beqz	a5,3c52 <_write+0x1c>
D:\WCH\代码\3-PIT%20Demo\obj/../Libraries/board/board.c:30 (discriminator 2)
        USART_SendData((USART_TypeDef*)UARTN[DEBUG_UART], *buf++);
    3c66:	679d                	lui	a5,0x7
    3c68:	a107a783          	lw	a5,-1520(a5) # 6a10 <UARTN>
    3c6c:	86be                	mv	a3,a5
    3c6e:	fd842783          	lw	a5,-40(s0)
    3c72:	00178713          	addi	a4,a5,1
    3c76:	fce42c23          	sw	a4,-40(s0)
    3c7a:	00078783          	lb	a5,0(a5)
    3c7e:	07c2                	slli	a5,a5,0x10
    3c80:	83c1                	srli	a5,a5,0x10
    3c82:	85be                	mv	a1,a5
    3c84:	8536                	mv	a0,a3
    3c86:	f37fd0ef          	jal	ra,1bbc <USART_SendData>
D:\WCH\代码\3-PIT%20Demo\obj/../Libraries/board/board.c:27 (discriminator 2)
    for(i=0; i<size; i++)
    3c8a:	fec42783          	lw	a5,-20(s0)
    3c8e:	0785                	addi	a5,a5,1
    3c90:	fef42623          	sw	a5,-20(s0)
D:\WCH\代码\3-PIT%20Demo\obj/../Libraries/board/board.c:27 (discriminator 1)
    3c94:	fec42703          	lw	a4,-20(s0)
    3c98:	fd442783          	lw	a5,-44(s0)
    3c9c:	faf74ae3          	blt	a4,a5,3c50 <_write+0x1a>
D:\WCH\代码\3-PIT%20Demo\obj/../Libraries/board/board.c:32
    }
    return size;
    3ca0:	fd442783          	lw	a5,-44(s0)
D:\WCH\代码\3-PIT%20Demo\obj/../Libraries/board/board.c:33
}
    3ca4:	853e                	mv	a0,a5
    3ca6:	50b2                	lw	ra,44(sp)
    3ca8:	5422                	lw	s0,40(sp)
    3caa:	6145                	addi	sp,sp,48
    3cac:	8082                	ret

00003cae <SetSysClock>:
SetSysClock():
D:\WCH\代码\3-PIT%20Demo\obj/../Libraries/board/clock_config.c:11
* Description    : Sets System clock frequency to 72MHz and configure HCLK, PCLK2 and PCLK1 prescalers.
* Input          : None
* Return         : None
*******************************************************************************************/
static void SetSysClock(void)
{
    3cae:	1101                	addi	sp,sp,-32
    3cb0:	ce22                	sw	s0,28(sp)
    3cb2:	1000                	addi	s0,sp,32
D:\WCH\代码\3-PIT%20Demo\obj/../Libraries/board/clock_config.c:12
    __IO uint32_t StartUpCounter = 0, HSEStatus = 0;
    3cb4:	fe042623          	sw	zero,-20(s0)
    3cb8:	fe042423          	sw	zero,-24(s0)
D:\WCH\代码\3-PIT%20Demo\obj/../Libraries/board/clock_config.c:14

    RCC->CTLR |= ((uint32_t)RCC_HSEON);
    3cbc:	400217b7          	lui	a5,0x40021
    3cc0:	4394                	lw	a3,0(a5)
    3cc2:	400217b7          	lui	a5,0x40021
    3cc6:	6741                	lui	a4,0x10
    3cc8:	8f55                	or	a4,a4,a3
    3cca:	c398                	sw	a4,0(a5)
D:\WCH\代码\3-PIT%20Demo\obj/../Libraries/board/clock_config.c:19 (discriminator 2)

    /* Wait till HSE is ready and if Time out is reached exit */
    do
    {
        HSEStatus = RCC->CTLR & RCC_HSERDY;
    3ccc:	400217b7          	lui	a5,0x40021
    3cd0:	4398                	lw	a4,0(a5)
    3cd2:	000207b7          	lui	a5,0x20
    3cd6:	8ff9                	and	a5,a5,a4
    3cd8:	fef42423          	sw	a5,-24(s0)
D:\WCH\代码\3-PIT%20Demo\obj/../Libraries/board/clock_config.c:20 (discriminator 2)
        StartUpCounter++;
    3cdc:	fec42783          	lw	a5,-20(s0)
    3ce0:	0785                	addi	a5,a5,1
    3ce2:	fef42623          	sw	a5,-20(s0)
D:\WCH\代码\3-PIT%20Demo\obj/../Libraries/board/clock_config.c:21 (discriminator 2)
    } while((HSEStatus == 0) && (StartUpCounter != HSE_STARTUP_TIMEOUT));
    3ce6:	fe842783          	lw	a5,-24(s0)
    3cea:	e799                	bnez	a5,3cf8 <SetSysClock+0x4a>
D:\WCH\代码\3-PIT%20Demo\obj/../Libraries/board/clock_config.c:21 (discriminator 1)
    3cec:	fec42703          	lw	a4,-20(s0)
    3cf0:	50000793          	li	a5,1280
    3cf4:	fcf71ce3          	bne	a4,a5,3ccc <SetSysClock+0x1e>
D:\WCH\代码\3-PIT%20Demo\obj/../Libraries/board/clock_config.c:23

    if ((RCC->CTLR & RCC_HSERDY) != RESET)
    3cf8:	400217b7          	lui	a5,0x40021
    3cfc:	4398                	lw	a4,0(a5)
    3cfe:	000207b7          	lui	a5,0x20
    3d02:	8ff9                	and	a5,a5,a4
    3d04:	c789                	beqz	a5,3d0e <SetSysClock+0x60>
D:\WCH\代码\3-PIT%20Demo\obj/../Libraries/board/clock_config.c:25
    {
        HSEStatus = (uint32_t)0x01;
    3d06:	4785                	li	a5,1
    3d08:	fef42423          	sw	a5,-24(s0)
    3d0c:	a019                	j	3d12 <SetSysClock+0x64>
D:\WCH\代码\3-PIT%20Demo\obj/../Libraries/board/clock_config.c:29
    }
    else
    {
        HSEStatus = (uint32_t)0x00;
    3d0e:	fe042423          	sw	zero,-24(s0)
D:\WCH\代码\3-PIT%20Demo\obj/../Libraries/board/clock_config.c:32
    }

    if (HSEStatus == (uint32_t)0x01)
    3d12:	fe842703          	lw	a4,-24(s0)
    3d16:	4785                	li	a5,1
    3d18:	0cf71763          	bne	a4,a5,3de6 <SetSysClock+0x138>
D:\WCH\代码\3-PIT%20Demo\obj/../Libraries/board/clock_config.c:35
    {
        /* Enable Prefetch Buffer */
        FLASH->ACTLR |= FLASH_ACTLR_PRFTBE;
    3d1c:	400227b7          	lui	a5,0x40022
    3d20:	4398                	lw	a4,0(a5)
    3d22:	400227b7          	lui	a5,0x40022
    3d26:	01076713          	ori	a4,a4,16
    3d2a:	c398                	sw	a4,0(a5)
D:\WCH\代码\3-PIT%20Demo\obj/../Libraries/board/clock_config.c:38

        /* Flash 2 wait state */
        FLASH->ACTLR &= (uint32_t)((uint32_t)~FLASH_ACTLR_LATENCY);
    3d2c:	400227b7          	lui	a5,0x40022
    3d30:	4398                	lw	a4,0(a5)
    3d32:	400227b7          	lui	a5,0x40022
    3d36:	9b71                	andi	a4,a4,-4
    3d38:	c398                	sw	a4,0(a5)
D:\WCH\代码\3-PIT%20Demo\obj/../Libraries/board/clock_config.c:39
        FLASH->ACTLR |= (uint32_t)FLASH_ACTLR_LATENCY_2;
    3d3a:	400227b7          	lui	a5,0x40022
    3d3e:	4398                	lw	a4,0(a5)
    3d40:	400227b7          	lui	a5,0x40022
    3d44:	00276713          	ori	a4,a4,2
    3d48:	c398                	sw	a4,0(a5)
D:\WCH\代码\3-PIT%20Demo\obj/../Libraries/board/clock_config.c:42

        /* HCLK = SYSCLK */
        RCC->CFGR0 |= (uint32_t)RCC_HPRE_DIV1;
    3d4a:	40021737          	lui	a4,0x40021
    3d4e:	400217b7          	lui	a5,0x40021
    3d52:	4358                	lw	a4,4(a4)
    3d54:	c3d8                	sw	a4,4(a5)
D:\WCH\代码\3-PIT%20Demo\obj/../Libraries/board/clock_config.c:44
        /* PCLK2 = HCLK */
        RCC->CFGR0 |= (uint32_t)RCC_PPRE2_DIV1;
    3d56:	40021737          	lui	a4,0x40021
    3d5a:	400217b7          	lui	a5,0x40021
    3d5e:	4358                	lw	a4,4(a4)
    3d60:	c3d8                	sw	a4,4(a5)
D:\WCH\代码\3-PIT%20Demo\obj/../Libraries/board/clock_config.c:46
        /* PCLK1 = HCLK */
        RCC->CFGR0 |= (uint32_t)RCC_PPRE1_DIV1;
    3d62:	40021737          	lui	a4,0x40021
    3d66:	400217b7          	lui	a5,0x40021
    3d6a:	4358                	lw	a4,4(a4)
    3d6c:	c3d8                	sw	a4,4(a5)
D:\WCH\代码\3-PIT%20Demo\obj/../Libraries/board/clock_config.c:49


        RCC->CFGR0 &= (uint32_t)((uint32_t)~(RCC_PLLSRC | RCC_PLLXTPRE |
    3d6e:	400217b7          	lui	a5,0x40021
    3d72:	43d4                	lw	a3,4(a5)
    3d74:	400217b7          	lui	a5,0x40021
    3d78:	ffc10737          	lui	a4,0xffc10
    3d7c:	177d                	addi	a4,a4,-1
    3d7e:	8f75                	and	a4,a4,a3
    3d80:	c3d8                	sw	a4,4(a5)
D:\WCH\代码\3-PIT%20Demo\obj/../Libraries/board/clock_config.c:52
                                            RCC_PLLMULL));
        /*  PLL configuration: PLLCLK = HSE * ?  */
        RCC->CFGR0 |= (uint32_t)(RCC_PLLSRC_HSE | RCC_PLLMULL11);
    3d82:	400217b7          	lui	a5,0x40021
    3d86:	43d4                	lw	a3,4(a5)
    3d88:	400217b7          	lui	a5,0x40021
    3d8c:	00250737          	lui	a4,0x250
    3d90:	8f55                	or	a4,a4,a3
    3d92:	c3d8                	sw	a4,4(a5)
D:\WCH\代码\3-PIT%20Demo\obj/../Libraries/board/clock_config.c:54
        /* Enable PLL */
        RCC->CTLR |= RCC_PLLON;
    3d94:	400217b7          	lui	a5,0x40021
    3d98:	4394                	lw	a3,0(a5)
    3d9a:	400217b7          	lui	a5,0x40021
    3d9e:	01000737          	lui	a4,0x1000
    3da2:	8f55                	or	a4,a4,a3
    3da4:	c398                	sw	a4,0(a5)
D:\WCH\代码\3-PIT%20Demo\obj/../Libraries/board/clock_config.c:56
        /* Wait till PLL is ready */
        while((RCC->CTLR & RCC_PLLRDY) == 0)
    3da6:	0001                	nop
D:\WCH\代码\3-PIT%20Demo\obj/../Libraries/board/clock_config.c:56 (discriminator 1)
    3da8:	400217b7          	lui	a5,0x40021
    3dac:	4398                	lw	a4,0(a5)
    3dae:	020007b7          	lui	a5,0x2000
    3db2:	8ff9                	and	a5,a5,a4
    3db4:	dbf5                	beqz	a5,3da8 <SetSysClock+0xfa>
D:\WCH\代码\3-PIT%20Demo\obj/../Libraries/board/clock_config.c:60
        {
        }
        /* Select PLL as system clock source */
        RCC->CFGR0 &= (uint32_t)((uint32_t)~(RCC_SW));
    3db6:	400217b7          	lui	a5,0x40021
    3dba:	43d8                	lw	a4,4(a5)
    3dbc:	400217b7          	lui	a5,0x40021
    3dc0:	9b71                	andi	a4,a4,-4
    3dc2:	c3d8                	sw	a4,4(a5)
D:\WCH\代码\3-PIT%20Demo\obj/../Libraries/board/clock_config.c:61
        RCC->CFGR0 |= (uint32_t)RCC_SW_PLL;
    3dc4:	400217b7          	lui	a5,0x40021
    3dc8:	43d8                	lw	a4,4(a5)
    3dca:	400217b7          	lui	a5,0x40021
    3dce:	00276713          	ori	a4,a4,2
    3dd2:	c3d8                	sw	a4,4(a5)
D:\WCH\代码\3-PIT%20Demo\obj/../Libraries/board/clock_config.c:63
        /* Wait till PLL is used as system clock source */
        while ((RCC->CFGR0 & (uint32_t)RCC_SWS) != (uint32_t)0x08)
    3dd4:	0001                	nop
D:\WCH\代码\3-PIT%20Demo\obj/../Libraries/board/clock_config.c:63 (discriminator 1)
    3dd6:	400217b7          	lui	a5,0x40021
    3dda:	43dc                	lw	a5,4(a5)
    3ddc:	00c7f713          	andi	a4,a5,12
    3de0:	47a1                	li	a5,8
    3de2:	fef71ae3          	bne	a4,a5,3dd6 <SetSysClock+0x128>
D:\WCH\代码\3-PIT%20Demo\obj/../Libraries/board/clock_config.c:74
        /*
         * If HSE fails to start-up, the application will have wrong clock
     * configuration. User can add here some code to deal with this error
         */
    }
}
    3de6:	0001                	nop
    3de8:	4472                	lw	s0,28(sp)
    3dea:	6105                	addi	sp,sp,32
    3dec:	8082                	ret

00003dee <SystemInit>:
SystemInit():
D:\WCH\代码\3-PIT%20Demo\obj/../Libraries/board/clock_config.c:84
*                  the PLL and update the SystemCoreClock variable.
* Input          : None
* Return         : None
*******************************************************************************************/
void SystemInit (void)
{
    3dee:	1141                	addi	sp,sp,-16
    3df0:	c606                	sw	ra,12(sp)
    3df2:	c422                	sw	s0,8(sp)
    3df4:	0800                	addi	s0,sp,16
D:\WCH\代码\3-PIT%20Demo\obj/../Libraries/board/clock_config.c:85
    RCC->CTLR |= (uint32_t)0x00000001;
    3df6:	400217b7          	lui	a5,0x40021
    3dfa:	4398                	lw	a4,0(a5)
    3dfc:	400217b7          	lui	a5,0x40021
    3e00:	00176713          	ori	a4,a4,1
    3e04:	c398                	sw	a4,0(a5)
D:\WCH\代码\3-PIT%20Demo\obj/../Libraries/board/clock_config.c:86
    RCC->CFGR0 &= (uint32_t)0xF8FF0000;
    3e06:	400217b7          	lui	a5,0x40021
    3e0a:	43d4                	lw	a3,4(a5)
    3e0c:	400217b7          	lui	a5,0x40021
    3e10:	f8ff0737          	lui	a4,0xf8ff0
    3e14:	8f75                	and	a4,a4,a3
    3e16:	c3d8                	sw	a4,4(a5)
D:\WCH\代码\3-PIT%20Demo\obj/../Libraries/board/clock_config.c:87
    RCC->CTLR &= (uint32_t)0xFEF6FFFF;
    3e18:	400217b7          	lui	a5,0x40021
    3e1c:	4394                	lw	a3,0(a5)
    3e1e:	400217b7          	lui	a5,0x40021
    3e22:	fef70737          	lui	a4,0xfef70
    3e26:	177d                	addi	a4,a4,-1
    3e28:	8f75                	and	a4,a4,a3
    3e2a:	c398                	sw	a4,0(a5)
D:\WCH\代码\3-PIT%20Demo\obj/../Libraries/board/clock_config.c:88
    RCC->CTLR &= (uint32_t)0xFFFBFFFF;
    3e2c:	400217b7          	lui	a5,0x40021
    3e30:	4394                	lw	a3,0(a5)
    3e32:	400217b7          	lui	a5,0x40021
    3e36:	fffc0737          	lui	a4,0xfffc0
    3e3a:	177d                	addi	a4,a4,-1
    3e3c:	8f75                	and	a4,a4,a3
    3e3e:	c398                	sw	a4,0(a5)
D:\WCH\代码\3-PIT%20Demo\obj/../Libraries/board/clock_config.c:89
    RCC->CFGR0 &= (uint32_t)0xFF80FFFF;
    3e40:	400217b7          	lui	a5,0x40021
    3e44:	43d4                	lw	a3,4(a5)
    3e46:	400217b7          	lui	a5,0x40021
    3e4a:	ff810737          	lui	a4,0xff810
    3e4e:	177d                	addi	a4,a4,-1
    3e50:	8f75                	and	a4,a4,a3
    3e52:	c3d8                	sw	a4,4(a5)
D:\WCH\代码\3-PIT%20Demo\obj/../Libraries/board/clock_config.c:90
    RCC->INTR = 0x009F0000;
    3e54:	400217b7          	lui	a5,0x40021
    3e58:	009f0737          	lui	a4,0x9f0
    3e5c:	c798                	sw	a4,8(a5)
D:\WCH\代码\3-PIT%20Demo\obj/../Libraries/board/clock_config.c:91
    SetSysClock();
    3e5e:	3d81                	jal	3cae <SetSysClock>
D:\WCH\代码\3-PIT%20Demo\obj/../Libraries/board/clock_config.c:92
}
    3e60:	0001                	nop
    3e62:	40b2                	lw	ra,12(sp)
    3e64:	4422                	lw	s0,8(sp)
    3e66:	0141                	addi	sp,sp,16
    3e68:	8082                	ret

00003e6a <main_control>:
main_control():
D:\WCH\代码\3-pit%20demo\obj/../CODE/Control.c:83

}


void main_control(void)
{
    3e6a:	1141                	addi	sp,sp,-16
    3e6c:	c622                	sw	s0,12(sp)
    3e6e:	0800                	addi	s0,sp,16
D:\WCH\代码\3-pit%20demo\obj/../CODE/Control.c:88
  //  bace_test();



    if(show_flag)
    3e70:	8701c783          	lbu	a5,-1936(gp) # 200000f8 <show_flag>
    3e74:	c399                	beqz	a5,3e7a <main_control+0x10>
D:\WCH\代码\3-pit%20demo\obj/../CODE/Control.c:90
    {
        show_flag = 0;
    3e76:	86018823          	sb	zero,-1936(gp) # 200000f8 <show_flag>
D:\WCH\代码\3-pit%20demo\obj/../CODE/Control.c:95

    }


}
    3e7a:	0001                	nop
    3e7c:	4432                	lw	s0,12(sp)
    3e7e:	0141                	addi	sp,sp,16
    3e80:	8082                	ret

00003e82 <EXTI0_IRQHandler>:
EXTI0_IRQHandler():
D:\WCH\代码\3-pit%20demo\obj/../CODE/Get_deta.c:23
//  @since      v1.0
//  Sample usage:
//-------------------------------------------------------------------------------------------------------------------
void EXTI0_IRQHandler(void) __attribute__((interrupt("WCH-Interrupt-fast")));
void EXTI0_IRQHandler(void)
{
    3e82:	1141                	addi	sp,sp,-16
    3e84:	c622                	sw	s0,12(sp)
    3e86:	0800                	addi	s0,sp,16
D:\WCH\代码\3-pit%20demo\obj/../CODE/Get_deta.c:24
    if(SET == EXTI_GetITStatus(EXTI_Line0))
    3e88:	4505                	li	a0,1
    3e8a:	c6efc0ef          	jal	ra,2f8 <EXTI_GetITStatus>
    3e8e:	872a                	mv	a4,a0
    3e90:	4785                	li	a5,1
    3e92:	02f71363          	bne	a4,a5,3eb8 <EXTI0_IRQHandler+0x36>
D:\WCH\代码\3-pit%20demo\obj/../CODE/Get_deta.c:26
    {
        EXTI_ClearITPendingBit(EXTI_Line0);
    3e96:	4505                	li	a0,1
    3e98:	cb6fc0ef          	jal	ra,34e <EXTI_ClearITPendingBit>
D:\WCH\代码\3-pit%20demo\obj/../CODE/Get_deta.c:27
        while(uart_flag != E_OK);                       //等待接收数据
    3e9c:	0001                	nop
D:\WCH\代码\3-pit%20demo\obj/../CODE/Get_deta.c:27 (discriminator 1)
    3e9e:	86f1c703          	lbu	a4,-1937(gp) # 200000f7 <uart_flag>
    3ea2:	4785                	li	a5,1
    3ea4:	fef71de3          	bne	a4,a5,3e9e <EXTI0_IRQHandler+0x1c>
D:\WCH\代码\3-pit%20demo\obj/../CODE/Get_deta.c:28
        uart_flag = E_START;                            //清空标志位
    3ea8:	860187a3          	sb	zero,-1937(gp) # 200000f7 <uart_flag>
D:\WCH\代码\3-pit%20demo\obj/../CODE/Get_deta.c:29
        data_analysis(temp_buff);                       //数据解析
    3eac:	86418513          	addi	a0,gp,-1948 # 200000ec <temp_buff>
    3eb0:	2861                	jal	3f48 <data_analysis>
D:\WCH\代码\3-pit%20demo\obj/../CODE/Get_deta.c:31

        show_flag = 1;                                  //屏幕显示标志位
    3eb2:	4705                	li	a4,1
    3eb4:	86e18823          	sb	a4,-1936(gp) # 200000f8 <show_flag>
D:\WCH\代码\3-pit%20demo\obj/../CODE/Get_deta.c:33
    }
}
    3eb8:	0001                	nop
    3eba:	4432                	lw	s0,12(sp)
    3ebc:	0141                	addi	sp,sp,16
    3ebe:	30200073          	mret

00003ec2 <get_slave_data>:
get_slave_data():
D:\WCH\代码\3-pit%20demo\obj/../CODE/Get_deta.c:48
//  @return     void
//  @since      v1.0
//  Sample usage:
//-------------------------------------------------------------------------------------------------------------------
void get_slave_data(uint8 data)
{
    3ec2:	1101                	addi	sp,sp,-32
    3ec4:	ce22                	sw	s0,28(sp)
    3ec6:	1000                	addi	s0,sp,32
    3ec8:	87aa                	mv	a5,a0
    3eca:	fef407a3          	sb	a5,-17(s0)
D:\WCH\代码\3-pit%20demo\obj/../CODE/Get_deta.c:50
    static uint8 uart_num = 0;
    temp_buff[uart_num++] = data;
    3ece:	8341c783          	lbu	a5,-1996(gp) # 200000bc <uart_num.6117>
    3ed2:	00178713          	addi	a4,a5,1 # 40021001 <_eusrstack+0x2001c001>
    3ed6:	0ff77693          	andi	a3,a4,255
    3eda:	82d18a23          	sb	a3,-1996(gp) # 200000bc <uart_num.6117>
    3ede:	873e                	mv	a4,a5
    3ee0:	86418793          	addi	a5,gp,-1948 # 200000ec <temp_buff>
    3ee4:	97ba                	add	a5,a5,a4
    3ee6:	fef44703          	lbu	a4,-17(s0)
    3eea:	00e78023          	sb	a4,0(a5)
D:\WCH\代码\3-pit%20demo\obj/../CODE/Get_deta.c:52

    if(1 == uart_num)
    3eee:	8341c703          	lbu	a4,-1996(gp) # 200000bc <uart_num.6117>
    3ef2:	4785                	li	a5,1
    3ef4:	00f71d63          	bne	a4,a5,3f0e <get_slave_data+0x4c>
D:\WCH\代码\3-pit%20demo\obj/../CODE/Get_deta.c:55
    {
        //接收到的第一个字符不为0xD8，帧头错误
        if(0xD8 != temp_buff[0])
    3ef8:	8641c703          	lbu	a4,-1948(gp) # 200000ec <temp_buff>
    3efc:	0d800793          	li	a5,216
    3f00:	00f70763          	beq	a4,a5,3f0e <get_slave_data+0x4c>
D:\WCH\代码\3-pit%20demo\obj/../CODE/Get_deta.c:57
        {
            uart_num = 0;
    3f04:	82018a23          	sb	zero,-1996(gp) # 200000bc <uart_num.6117>
D:\WCH\代码\3-pit%20demo\obj/../CODE/Get_deta.c:58
            uart_flag = E_FRAME_HEADER_ERROR;
    3f08:	4709                	li	a4,2
    3f0a:	86e187a3          	sb	a4,-1937(gp) # 200000f7 <uart_flag>
D:\WCH\代码\3-pit%20demo\obj/../CODE/Get_deta.c:62
        }
    }

    if(LINE_LEN == uart_num)
    3f0e:	8341c703          	lbu	a4,-1996(gp) # 200000bc <uart_num.6117>
    3f12:	47ad                	li	a5,11
    3f14:	02f71663          	bne	a4,a5,3f40 <get_slave_data+0x7e>
D:\WCH\代码\3-pit%20demo\obj/../CODE/Get_deta.c:64
    {
        uart_flag = E_OK;
    3f18:	4705                	li	a4,1
    3f1a:	86e187a3          	sb	a4,-1937(gp) # 200000f7 <uart_flag>
D:\WCH\代码\3-pit%20demo\obj/../CODE/Get_deta.c:66
        //接收到最后一个字节为0xEE
        if(0xEE == temp_buff[LINE_LEN - 1])
    3f1e:	86418793          	addi	a5,gp,-1948 # 200000ec <temp_buff>
    3f22:	00a7c703          	lbu	a4,10(a5)
    3f26:	0ee00793          	li	a5,238
    3f2a:	00f71663          	bne	a4,a5,3f36 <get_slave_data+0x74>
D:\WCH\代码\3-pit%20demo\obj/../CODE/Get_deta.c:68
        {
            uart_flag = E_OK;
    3f2e:	4705                	li	a4,1
    3f30:	86e187a3          	sb	a4,-1937(gp) # 200000f7 <uart_flag>
    3f34:	a021                	j	3f3c <get_slave_data+0x7a>
D:\WCH\代码\3-pit%20demo\obj/../CODE/Get_deta.c:72
        }
        else    //接收到最后一个字节不是0xEE，帧尾错误
        {
            uart_flag = E_FRAME_RTAIL_ERROR;
    3f36:	470d                	li	a4,3
    3f38:	86e187a3          	sb	a4,-1937(gp) # 200000f7 <uart_flag>
D:\WCH\代码\3-pit%20demo\obj/../CODE/Get_deta.c:74
        }
        uart_num = 0;
    3f3c:	82018a23          	sb	zero,-1996(gp) # 200000bc <uart_num.6117>
D:\WCH\代码\3-pit%20demo\obj/../CODE/Get_deta.c:76
    }
}
    3f40:	0001                	nop
    3f42:	4472                	lw	s0,28(sp)
    3f44:	6105                	addi	sp,sp,32
    3f46:	8082                	ret

00003f48 <data_analysis>:
data_analysis():
D:\WCH\代码\3-pit%20demo\obj/../CODE/Get_deta.c:86
//  @return     void
//  @since      v1.0
//  Sample usage:
//-------------------------------------------------------------------------------------------------------------------
void data_analysis(uint8 *line)
{
    3f48:	1101                	addi	sp,sp,-32
    3f4a:	ce22                	sw	s0,28(sp)
    3f4c:	1000                	addi	s0,sp,32
    3f4e:	fea42623          	sw	a0,-20(s0)
D:\WCH\代码\3-pit%20demo\obj/../CODE/Get_deta.c:87
    if(line[1] == 0xB0)    slave_a  = ((int16)line[2] << 8) | line[3];
    3f52:	fec42783          	lw	a5,-20(s0)
    3f56:	0785                	addi	a5,a5,1
    3f58:	0007c703          	lbu	a4,0(a5)
    3f5c:	0b000793          	li	a5,176
    3f60:	02f71863          	bne	a4,a5,3f90 <data_analysis+0x48>
D:\WCH\代码\3-pit%20demo\obj/../CODE/Get_deta.c:87 (discriminator 1)
    3f64:	fec42783          	lw	a5,-20(s0)
    3f68:	0789                	addi	a5,a5,2
    3f6a:	0007c783          	lbu	a5,0(a5)
    3f6e:	07a2                	slli	a5,a5,0x8
    3f70:	01079713          	slli	a4,a5,0x10
    3f74:	8741                	srai	a4,a4,0x10
    3f76:	fec42783          	lw	a5,-20(s0)
    3f7a:	078d                	addi	a5,a5,3
    3f7c:	0007c783          	lbu	a5,0(a5)
    3f80:	07c2                	slli	a5,a5,0x10
    3f82:	87c1                	srai	a5,a5,0x10
    3f84:	8fd9                	or	a5,a5,a4
    3f86:	01079713          	slli	a4,a5,0x10
    3f8a:	8741                	srai	a4,a4,0x10
    3f8c:	86e19923          	sh	a4,-1934(gp) # 200000fa <slave_a>
D:\WCH\代码\3-pit%20demo\obj/../CODE/Get_deta.c:88
    if(line[4] == 0xB1)    slave_b = ((int16)line[5] << 8) | line[6];
    3f90:	fec42783          	lw	a5,-20(s0)
    3f94:	0791                	addi	a5,a5,4
    3f96:	0007c703          	lbu	a4,0(a5)
    3f9a:	0b100793          	li	a5,177
    3f9e:	02f71863          	bne	a4,a5,3fce <data_analysis+0x86>
D:\WCH\代码\3-pit%20demo\obj/../CODE/Get_deta.c:88 (discriminator 1)
    3fa2:	fec42783          	lw	a5,-20(s0)
    3fa6:	0795                	addi	a5,a5,5
    3fa8:	0007c783          	lbu	a5,0(a5)
    3fac:	07a2                	slli	a5,a5,0x8
    3fae:	01079713          	slli	a4,a5,0x10
    3fb2:	8741                	srai	a4,a4,0x10
    3fb4:	fec42783          	lw	a5,-20(s0)
    3fb8:	0799                	addi	a5,a5,6
    3fba:	0007c783          	lbu	a5,0(a5)
    3fbe:	07c2                	slli	a5,a5,0x10
    3fc0:	87c1                	srai	a5,a5,0x10
    3fc2:	8fd9                	or	a5,a5,a4
    3fc4:	01079713          	slli	a4,a5,0x10
    3fc8:	8741                	srai	a4,a4,0x10
    3fca:	86e19023          	sh	a4,-1952(gp) # 200000e8 <slave_b>
D:\WCH\代码\3-pit%20demo\obj/../CODE/Get_deta.c:89
    if(line[7] == 0xB2)    slave_c      = ((int16)line[8] << 8) | line[9];
    3fce:	fec42783          	lw	a5,-20(s0)
    3fd2:	079d                	addi	a5,a5,7
    3fd4:	0007c703          	lbu	a4,0(a5)
    3fd8:	0b200793          	li	a5,178
    3fdc:	02f71863          	bne	a4,a5,400c <data_analysis+0xc4>
D:\WCH\代码\3-pit%20demo\obj/../CODE/Get_deta.c:89 (discriminator 1)
    3fe0:	fec42783          	lw	a5,-20(s0)
    3fe4:	07a1                	addi	a5,a5,8
    3fe6:	0007c783          	lbu	a5,0(a5)
    3fea:	07a2                	slli	a5,a5,0x8
    3fec:	01079713          	slli	a4,a5,0x10
    3ff0:	8741                	srai	a4,a4,0x10
    3ff2:	fec42783          	lw	a5,-20(s0)
    3ff6:	07a5                	addi	a5,a5,9
    3ff8:	0007c783          	lbu	a5,0(a5)
    3ffc:	07c2                	slli	a5,a5,0x10
    3ffe:	87c1                	srai	a5,a5,0x10
    4000:	8fd9                	or	a5,a5,a4
    4002:	01079713          	slli	a4,a5,0x10
    4006:	8741                	srai	a4,a4,0x10
    4008:	86e19123          	sh	a4,-1950(gp) # 200000ea <slave_c>
D:\WCH\代码\3-pit%20demo\obj/../CODE/Get_deta.c:90
}
    400c:	0001                	nop
    400e:	4472                	lw	s0,28(sp)
    4010:	6105                	addi	sp,sp,32
    4012:	8082                	ret

00004014 <Init_ALL>:
Init_ALL():
D:\WCH\代码\3-pit%20demo\obj/../CODE/Init.c:4
#include "FIRELOCK.h"

void Init_ALL()
{
    4014:	1141                	addi	sp,sp,-16
    4016:	c606                	sw	ra,12(sp)
    4018:	c422                	sw	s0,8(sp)
    401a:	0800                	addi	s0,sp,16
D:\WCH\代码\3-pit%20demo\obj/../CODE/Init.c:6
//    DisableGlobalIRQ();
        board_init();           //务必保留，本函数用于初始化MPU 时钟 调试串口
    401c:	bd5ff0ef          	jal	ra,3bf0 <board_init>
D:\WCH\代码\3-pit%20demo\obj/../CODE/Init.c:9


        key_init(KEY_MAX);
    4020:	4519                	li	a0,6
    4022:	28f5                	jal	411e <key_init>
D:\WCH\代码\3-pit%20demo\obj/../CODE/Init.c:11

        gpio_init(A4, GPO, 0, GPIO_PIN_CONFIG);
    4024:	31000693          	li	a3,784
    4028:	4601                	li	a2,0
    402a:	4585                	li	a1,1
    402c:	4511                	li	a0,4
    402e:	a3ffe0ef          	jal	ra,2a6c <gpio_init>
D:\WCH\代码\3-pit%20demo\obj/../CODE/Init.c:12
        gpio_init(A9, GPO, 0, GPIO_PIN_CONFIG);
    4032:	31000693          	li	a3,784
    4036:	4601                	li	a2,0
    4038:	4585                	li	a1,1
    403a:	4525                	li	a0,9
    403c:	a31fe0ef          	jal	ra,2a6c <gpio_init>
D:\WCH\代码\3-pit%20demo\obj/../CODE/Init.c:14

       timer_pit_interrupt_ms(TIMER_3, 10); //主中断  10ms
    4040:	45a9                	li	a1,10
    4042:	4509                	li	a0,2
    4044:	d8ffe0ef          	jal	ra,2dd2 <timer_pit_interrupt_ms>
D:\WCH\代码\3-pit%20demo\obj/../CODE/Init.c:17


        pwm_init(PWM2_CH2_B3,  18000, 0);      //RB  前
    4048:	4601                	li	a2,0
    404a:	6791                	lui	a5,0x4
    404c:	65078593          	addi	a1,a5,1616 # 4650 <Menu_player+0x12>
    4050:	11100513          	li	a0,273
    4054:	a40ff0ef          	jal	ra,3294 <pwm_init>
D:\WCH\代码\3-pit%20demo\obj/../CODE/Init.c:18
        pwm_init(PWM2_CH1_A15, 18000, 0);      //RB  后
    4058:	4601                	li	a2,0
    405a:	6791                	lui	a5,0x4
    405c:	65078593          	addi	a1,a5,1616 # 4650 <Menu_player+0x12>
    4060:	11000513          	li	a0,272
    4064:	a30ff0ef          	jal	ra,3294 <pwm_init>
D:\WCH\代码\3-pit%20demo\obj/../CODE/Init.c:19
        pwm_init(PWM2_CH3_B10, 18000, 0);      //LB  前
    4068:	4601                	li	a2,0
    406a:	6791                	lui	a5,0x4
    406c:	65078593          	addi	a1,a5,1616 # 4650 <Menu_player+0x12>
    4070:	11200513          	li	a0,274
    4074:	a20ff0ef          	jal	ra,3294 <pwm_init>
D:\WCH\代码\3-pit%20demo\obj/../CODE/Init.c:20
        pwm_init(PWM2_CH4_B11, 18000, 0);     //LB  后
    4078:	4601                	li	a2,0
    407a:	6791                	lui	a5,0x4
    407c:	65078593          	addi	a1,a5,1616 # 4650 <Menu_player+0x12>
    4080:	11300513          	li	a0,275
    4084:	a10ff0ef          	jal	ra,3294 <pwm_init>
D:\WCH\代码\3-pit%20demo\obj/../CODE/Init.c:21
        pwm_init(PWM4_CH1_B6,  18000, 0);     //RF  前
    4088:	4601                	li	a2,0
    408a:	6791                	lui	a5,0x4
    408c:	65078593          	addi	a1,a5,1616 # 4650 <Menu_player+0x12>
    4090:	30000513          	li	a0,768
    4094:	a00ff0ef          	jal	ra,3294 <pwm_init>
D:\WCH\代码\3-pit%20demo\obj/../CODE/Init.c:22
        pwm_init(PWM4_CH2_B7,  18000, 0);     //RF  后
    4098:	4601                	li	a2,0
    409a:	6791                	lui	a5,0x4
    409c:	65078593          	addi	a1,a5,1616 # 4650 <Menu_player+0x12>
    40a0:	30100513          	li	a0,769
    40a4:	9f0ff0ef          	jal	ra,3294 <pwm_init>
D:\WCH\代码\3-pit%20demo\obj/../CODE/Init.c:23
        pwm_init(PWM4_CH3_B8,  18000, 0);     //LF  前
    40a8:	4601                	li	a2,0
    40aa:	6791                	lui	a5,0x4
    40ac:	65078593          	addi	a1,a5,1616 # 4650 <Menu_player+0x12>
    40b0:	30200513          	li	a0,770
    40b4:	9e0ff0ef          	jal	ra,3294 <pwm_init>
D:\WCH\代码\3-pit%20demo\obj/../CODE/Init.c:24
        pwm_init(PWM4_CH4_B9,  18000, 0);     //LF  后
    40b8:	4601                	li	a2,0
    40ba:	6791                	lui	a5,0x4
    40bc:	65078593          	addi	a1,a5,1616 # 4650 <Menu_player+0x12>
    40c0:	30300513          	li	a0,771
    40c4:	9d0ff0ef          	jal	ra,3294 <pwm_init>
D:\WCH\代码\3-pit%20demo\obj/../CODE/Init.c:25
        pwm_init(PWM1_CH3_A10, 333,   0); //舵机
    40c8:	4601                	li	a2,0
    40ca:	14d00593          	li	a1,333
    40ce:	4509                	li	a0,2
    40d0:	9c4ff0ef          	jal	ra,3294 <pwm_init>
D:\WCH\代码\3-pit%20demo\obj/../CODE/Init.c:27

        encoder_init_spi(ABS_ENCODER_SPI_PC1_PIN);      //编码器1初始化。
    40d4:	04900513          	li	a0,73
    40d8:	bd2fe0ef          	jal	ra,24aa <encoder_init_spi>
D:\WCH\代码\3-pit%20demo\obj/../CODE/Init.c:28
        encoder_init_spi(ABS_ENCODER_SPI_PC2_PIN);      //编码器2初始化。
    40dc:	04800513          	li	a0,72
    40e0:	bcafe0ef          	jal	ra,24aa <encoder_init_spi>
D:\WCH\代码\3-pit%20demo\obj/../CODE/Init.c:29
        encoder_init_spi(ABS_ENCODER_SPI_PC3_PIN);      //编码器3初始化。
    40e4:	02c00513          	li	a0,44
    40e8:	bc2fe0ef          	jal	ra,24aa <encoder_init_spi>
D:\WCH\代码\3-pit%20demo\obj/../CODE/Init.c:30
        encoder_init_spi(ABS_ENCODER_SPI_PC4_PIN);      //编码器4初始化。
    40ec:	4521                	li	a0,8
    40ee:	bbcfe0ef          	jal	ra,24aa <encoder_init_spi>
D:\WCH\代码\3-pit%20demo\obj/../CODE/Init.c:41
//
//        gpio_interrupt_init(A0, RISING, GPIO_INT_CONFIG);       //A0初始化为GPIO 上升沿触发
//        nvic_init(EXTI0_IRQn, 1, 1, ENABLE);                    //EXTI0优先级配置，抢占优先级1，次优先级1


        oled_init();
    40f2:	ddcfe0ef          	jal	ra,26ce <oled_init>
D:\WCH\代码\3-pit%20demo\obj/../CODE/Init.c:43

        EnableGlobalIRQ(0);
    40f6:	4501                	li	a0,0
    40f8:	cb7fe0ef          	jal	ra,2dae <EnableGlobalIRQ>
D:\WCH\代码\3-pit%20demo\obj/../CODE/Init.c:45

}
    40fc:	0001                	nop
    40fe:	40b2                	lw	ra,12(sp)
    4100:	4422                	lw	s0,8(sp)
    4102:	0141                	addi	sp,sp,16
    4104:	8082                	ret

00004106 <running>:
running():
D:\WCH\代码\3-pit%20demo\obj/../CODE/Init.c:49


void running(void)
{
    4106:	1141                	addi	sp,sp,-16
    4108:	c606                	sw	ra,12(sp)
    410a:	c422                	sw	s0,8(sp)
    410c:	0800                	addi	s0,sp,16
D:\WCH\代码\3-pit%20demo\obj/../CODE/Init.c:50
    Menu_player();
    410e:	2b05                	jal	463e <Menu_player>
D:\WCH\代码\3-pit%20demo\obj/../CODE/Init.c:54

//  if(Skey_flag)
//  {
      main_control();                                            //主控
    4110:	d5bff0ef          	jal	ra,3e6a <main_control>
D:\WCH\代码\3-pit%20demo\obj/../CODE/Init.c:67
//     PID_MotorClear(&motor_4);
//     PID_PositionClear(&pid_position);
//     PID_TurnClear(&pid_turn);
//     Speed_caculation(&wheels,0,0,0);
//  }
}
    4114:	0001                	nop
    4116:	40b2                	lw	ra,12(sp)
    4118:	4422                	lw	s0,8(sp)
    411a:	0141                	addi	sp,sp,16
    411c:	8082                	ret

0000411e <key_init>:
key_init():
D:\WCH\代码\3-pit%20demo\obj/../CODE/Key.c:7


PIN_enum KEY_PTxn[KEY_MAX] = { A12,B4,C12,B5,D2,C7};//

void    key_init(KEY_e key)
{
    411e:	1101                	addi	sp,sp,-32
    4120:	ce06                	sw	ra,28(sp)
    4122:	cc22                	sw	s0,24(sp)
    4124:	1000                	addi	s0,sp,32
    4126:	fea42623          	sw	a0,-20(s0)
D:\WCH\代码\3-pit%20demo\obj/../CODE/Key.c:8
    if(key < KEY_MAX)
    412a:	fec42703          	lw	a4,-20(s0)
    412e:	4795                	li	a5,5
    4130:	02e7e363          	bltu	a5,a4,4156 <key_init+0x38>
D:\WCH\代码\3-pit%20demo\obj/../CODE/Key.c:10
    {
        gpio_init(KEY_PTxn[key], GPI, 0, GPIO_INT_CONFIG);
    4134:	200007b7          	lui	a5,0x20000
    4138:	fec42703          	lw	a4,-20(s0)
    413c:	070a                	slli	a4,a4,0x2
    413e:	01078793          	addi	a5,a5,16 # 20000010 <KEY_PTxn>
    4142:	97ba                	add	a5,a5,a4
    4144:	439c                	lw	a5,0(a5)
    4146:	04800693          	li	a3,72
    414a:	4601                	li	a2,0
    414c:	4581                	li	a1,0
    414e:	853e                	mv	a0,a5
    4150:	91dfe0ef          	jal	ra,2a6c <gpio_init>
D:\WCH\代码\3-pit%20demo\obj/../CODE/Key.c:24
            gpio_init(KEY_PTxn[key], GPI, 0, GPIO_INT_CONFIG);

        }

    }
}
    4154:	a825                	j	418c <key_init+0x6e>
D:\WCH\代码\3-pit%20demo\obj/../CODE/Key.c:14
        key = KEY_MAX;
    4156:	4799                	li	a5,6
    4158:	fef42623          	sw	a5,-20(s0)
D:\WCH\代码\3-pit%20demo\obj/../CODE/Key.c:17
        while(key--)
    415c:	a00d                	j	417e <key_init+0x60>
D:\WCH\代码\3-pit%20demo\obj/../CODE/Key.c:19
            gpio_init(KEY_PTxn[key], GPI, 0, GPIO_INT_CONFIG);
    415e:	200007b7          	lui	a5,0x20000
    4162:	fec42703          	lw	a4,-20(s0)
    4166:	070a                	slli	a4,a4,0x2
    4168:	01078793          	addi	a5,a5,16 # 20000010 <KEY_PTxn>
    416c:	97ba                	add	a5,a5,a4
    416e:	439c                	lw	a5,0(a5)
    4170:	04800693          	li	a3,72
    4174:	4601                	li	a2,0
    4176:	4581                	li	a1,0
    4178:	853e                	mv	a0,a5
    417a:	8f3fe0ef          	jal	ra,2a6c <gpio_init>
D:\WCH\代码\3-pit%20demo\obj/../CODE/Key.c:17
        while(key--)
    417e:	fec42783          	lw	a5,-20(s0)
    4182:	fff78713          	addi	a4,a5,-1
    4186:	fee42623          	sw	a4,-20(s0)
    418a:	fbf1                	bnez	a5,415e <key_init+0x40>
D:\WCH\代码\3-pit%20demo\obj/../CODE/Key.c:24
}
    418c:	0001                	nop
    418e:	40f2                	lw	ra,28(sp)
    4190:	4462                	lw	s0,24(sp)
    4192:	6105                	addi	sp,sp,32
    4194:	8082                	ret

00004196 <key_get>:
key_get():
D:\WCH\代码\3-pit%20demo\obj/../CODE/Key.c:38
                    {
                        printf("\n按键按下")
                    }
 */
KEY_STATUS_e key_get(KEY_e key)
{
    4196:	1101                	addi	sp,sp,-32
    4198:	ce06                	sw	ra,28(sp)
    419a:	cc22                	sw	s0,24(sp)
    419c:	1000                	addi	s0,sp,32
    419e:	fea42623          	sw	a0,-20(s0)
D:\WCH\代码\3-pit%20demo\obj/../CODE/Key.c:39
    if(gpio_get(KEY_PTxn[key]) == KEY_DOWN)
    41a2:	200007b7          	lui	a5,0x20000
    41a6:	fec42703          	lw	a4,-20(s0)
    41aa:	070a                	slli	a4,a4,0x2
    41ac:	01078793          	addi	a5,a5,16 # 20000010 <KEY_PTxn>
    41b0:	97ba                	add	a5,a5,a4
    41b2:	439c                	lw	a5,0(a5)
    41b4:	853e                	mv	a0,a5
    41b6:	a5bfe0ef          	jal	ra,2c10 <gpio_get>
    41ba:	87aa                	mv	a5,a0
    41bc:	e399                	bnez	a5,41c2 <key_get+0x2c>
D:\WCH\代码\3-pit%20demo\obj/../CODE/Key.c:41
    {
        return KEY_DOWN;
    41be:	4781                	li	a5,0
    41c0:	a011                	j	41c4 <key_get+0x2e>
D:\WCH\代码\3-pit%20demo\obj/../CODE/Key.c:43
    }
    return KEY_UP;
    41c2:	4785                	li	a5,1
D:\WCH\代码\3-pit%20demo\obj/../CODE/Key.c:44
}
    41c4:	853e                	mv	a0,a5
    41c6:	40f2                	lw	ra,28(sp)
    41c8:	4462                	lw	s0,24(sp)
    41ca:	6105                	addi	sp,sp,32
    41cc:	8082                	ret

000041ce <send_key_msg>:
send_key_msg():
D:\WCH\代码\3-pit%20demo\obj/../CODE/Key.c:103
                    keymsg.key      = KEY_U;
                    keymsg.status   = KEY_HOLD;
                    send_key_msg(keymsg);                   //发送
 */
void send_key_msg(KEY_MSG_t keymsg)
{
    41ce:	7179                	addi	sp,sp,-48
    41d0:	d622                	sw	s0,44(sp)
    41d2:	1800                	addi	s0,sp,48
    41d4:	fca42c23          	sw	a0,-40(s0)
    41d8:	fcb42e23          	sw	a1,-36(s0)
D:\WCH\代码\3-pit%20demo\obj/../CODE/Key.c:106
    uint8 tmp;
    //保存在FIFO里
    if(key_msg_flag == KEY_MSG_FULL)
    41dc:	8371c783          	lbu	a5,-1993(gp) # 200000bf <key_msg_flag>
    41e0:	0ff7f713          	andi	a4,a5,255
    41e4:	4789                	li	a5,2
    41e6:	08f70563          	beq	a4,a5,4270 <send_key_msg+0xa2>
D:\WCH\代码\3-pit%20demo\obj/../CODE/Key.c:111
    {
        //满了直接不处理
        return ;
    }
    key_msg[key_msg_rear].key = keymsg.key;
    41ea:	8361c783          	lbu	a5,-1994(gp) # 200000be <key_msg_rear>
    41ee:	0ff7f793          	andi	a5,a5,255
    41f2:	86be                	mv	a3,a5
    41f4:	fd842703          	lw	a4,-40(s0)
    41f8:	200007b7          	lui	a5,0x20000
    41fc:	068e                	slli	a3,a3,0x3
    41fe:	0fc78793          	addi	a5,a5,252 # 200000fc <key_msg>
    4202:	97b6                	add	a5,a5,a3
    4204:	c398                	sw	a4,0(a5)
D:\WCH\代码\3-pit%20demo\obj/../CODE/Key.c:112
    key_msg[key_msg_rear].status = keymsg.status;
    4206:	8361c783          	lbu	a5,-1994(gp) # 200000be <key_msg_rear>
    420a:	0ff7f793          	andi	a5,a5,255
    420e:	863e                	mv	a2,a5
    4210:	fdc42703          	lw	a4,-36(s0)
    4214:	200007b7          	lui	a5,0x20000
    4218:	0fc78693          	addi	a3,a5,252 # 200000fc <key_msg>
    421c:	00361793          	slli	a5,a2,0x3
    4220:	97b6                	add	a5,a5,a3
    4222:	c3d8                	sw	a4,4(a5)
D:\WCH\代码\3-pit%20demo\obj/../CODE/Key.c:114

    key_msg_rear++;
    4224:	8361c783          	lbu	a5,-1994(gp) # 200000be <key_msg_rear>
    4228:	0ff7f793          	andi	a5,a5,255
    422c:	0785                	addi	a5,a5,1
    422e:	0ff7f713          	andi	a4,a5,255
    4232:	82e18b23          	sb	a4,-1994(gp) # 200000be <key_msg_rear>
D:\WCH\代码\3-pit%20demo\obj/../CODE/Key.c:116

    if(key_msg_rear >= KEY_MSG_FIFO_SIZE)
    4236:	8361c783          	lbu	a5,-1994(gp) # 200000be <key_msg_rear>
    423a:	0ff7f713          	andi	a4,a5,255
    423e:	47cd                	li	a5,19
    4240:	00e7f463          	bgeu	a5,a4,4248 <send_key_msg+0x7a>
D:\WCH\代码\3-pit%20demo\obj/../CODE/Key.c:118
    {
        key_msg_rear = 0;                       //重头开始
    4244:	82018b23          	sb	zero,-1994(gp) # 200000be <key_msg_rear>
D:\WCH\代码\3-pit%20demo\obj/../CODE/Key.c:121
    }

    tmp = key_msg_rear;
    4248:	8361c783          	lbu	a5,-1994(gp) # 200000be <key_msg_rear>
    424c:	fef407a3          	sb	a5,-17(s0)
D:\WCH\代码\3-pit%20demo\obj/../CODE/Key.c:122
    if(tmp == key_msg_front)                   //追到屁股了，满了
    4250:	8351c783          	lbu	a5,-1995(gp) # 200000bd <key_msg_front>
    4254:	0ff7f793          	andi	a5,a5,255
    4258:	fef44703          	lbu	a4,-17(s0)
    425c:	00f71663          	bne	a4,a5,4268 <send_key_msg+0x9a>
D:\WCH\代码\3-pit%20demo\obj/../CODE/Key.c:124
    {
        key_msg_flag = KEY_MSG_FULL;
    4260:	4709                	li	a4,2
    4262:	82e18ba3          	sb	a4,-1993(gp) # 200000bf <key_msg_flag>
    4266:	a031                	j	4272 <send_key_msg+0xa4>
D:\WCH\代码\3-pit%20demo\obj/../CODE/Key.c:128
    }
    else
    {
        key_msg_flag = KEY_MSG_NORMAL;
    4268:	4705                	li	a4,1
    426a:	82e18ba3          	sb	a4,-1993(gp) # 200000bf <key_msg_flag>
    426e:	a011                	j	4272 <send_key_msg+0xa4>
D:\WCH\代码\3-pit%20demo\obj/../CODE/Key.c:109
        return ;
    4270:	0001                	nop
D:\WCH\代码\3-pit%20demo\obj/../CODE/Key.c:130
    }
}
    4272:	5432                	lw	s0,44(sp)
    4274:	6145                	addi	sp,sp,48
    4276:	8082                	ret

00004278 <get_key_msg>:
get_key_msg():
D:\WCH\代码\3-pit%20demo\obj/../CODE/Key.c:146
                    {
                        printf("\n按下按键KEY%d,类型为%d（0为按下，1为弹起，2为长按）",keymsg.key,keymsg.status);
                    }
 */
uint8 get_key_msg(KEY_MSG_t *keymsg)
{
    4278:	7179                	addi	sp,sp,-48
    427a:	d622                	sw	s0,44(sp)
    427c:	1800                	addi	s0,sp,48
    427e:	fca42e23          	sw	a0,-36(s0)
D:\WCH\代码\3-pit%20demo\obj/../CODE/Key.c:149
    uint8 tmp;

    if(key_msg_flag == KEY_MSG_EMPTY)               //按键消息FIFO为空，直接返回0
    4282:	8371c783          	lbu	a5,-1993(gp) # 200000bf <key_msg_flag>
    4286:	0ff7f793          	andi	a5,a5,255
    428a:	e399                	bnez	a5,4290 <get_key_msg+0x18>
D:\WCH\代码\3-pit%20demo\obj/../CODE/Key.c:151
    {
        return 0;
    428c:	4781                	li	a5,0
    428e:	a069                	j	4318 <get_key_msg+0xa0>
D:\WCH\代码\3-pit%20demo\obj/../CODE/Key.c:154
    }

    keymsg->key = key_msg[key_msg_front].key;       //从FIFO队首中获取按键值
    4290:	8351c783          	lbu	a5,-1995(gp) # 200000bd <key_msg_front>
    4294:	0ff7f793          	andi	a5,a5,255
    4298:	873e                	mv	a4,a5
    429a:	200007b7          	lui	a5,0x20000
    429e:	070e                	slli	a4,a4,0x3
    42a0:	0fc78793          	addi	a5,a5,252 # 200000fc <key_msg>
    42a4:	97ba                	add	a5,a5,a4
    42a6:	4398                	lw	a4,0(a5)
    42a8:	fdc42783          	lw	a5,-36(s0)
    42ac:	c398                	sw	a4,0(a5)
D:\WCH\代码\3-pit%20demo\obj/../CODE/Key.c:155
    keymsg->status = key_msg[key_msg_front].status; //从FIFO队首中获取按键类型
    42ae:	8351c783          	lbu	a5,-1995(gp) # 200000bd <key_msg_front>
    42b2:	0ff7f793          	andi	a5,a5,255
    42b6:	86be                	mv	a3,a5
    42b8:	200007b7          	lui	a5,0x20000
    42bc:	0fc78713          	addi	a4,a5,252 # 200000fc <key_msg>
    42c0:	00369793          	slli	a5,a3,0x3
    42c4:	97ba                	add	a5,a5,a4
    42c6:	43d8                	lw	a4,4(a5)
    42c8:	fdc42783          	lw	a5,-36(s0)
    42cc:	c3d8                	sw	a4,4(a5)
D:\WCH\代码\3-pit%20demo\obj/../CODE/Key.c:157

    key_msg_front++;                                //FIFO队首指针加1，指向下一个消息
    42ce:	8351c783          	lbu	a5,-1995(gp) # 200000bd <key_msg_front>
    42d2:	0ff7f793          	andi	a5,a5,255
    42d6:	0785                	addi	a5,a5,1
    42d8:	0ff7f713          	andi	a4,a5,255
    42dc:	82e18aa3          	sb	a4,-1995(gp) # 200000bd <key_msg_front>
D:\WCH\代码\3-pit%20demo\obj/../CODE/Key.c:159

    if(key_msg_front >= KEY_MSG_FIFO_SIZE)          //FIFO指针队首溢出则从0开始计数
    42e0:	8351c783          	lbu	a5,-1995(gp) # 200000bd <key_msg_front>
    42e4:	0ff7f713          	andi	a4,a5,255
    42e8:	47cd                	li	a5,19
    42ea:	00e7f463          	bgeu	a5,a4,42f2 <get_key_msg+0x7a>
D:\WCH\代码\3-pit%20demo\obj/../CODE/Key.c:161
    {
        key_msg_front = 0;                          //重头开始计数（循环利用数组）
    42ee:	82018aa3          	sb	zero,-1995(gp) # 200000bd <key_msg_front>
D:\WCH\代码\3-pit%20demo\obj/../CODE/Key.c:164
    }

    tmp = key_msg_rear;
    42f2:	8361c783          	lbu	a5,-1994(gp) # 200000be <key_msg_rear>
    42f6:	fef407a3          	sb	a5,-17(s0)
D:\WCH\代码\3-pit%20demo\obj/../CODE/Key.c:165
    if(key_msg_front == tmp)                        //比较队首和队尾是否一样，一样则表示FIFO已空了
    42fa:	8351c783          	lbu	a5,-1995(gp) # 200000bd <key_msg_front>
    42fe:	0ff7f793          	andi	a5,a5,255
    4302:	fef44703          	lbu	a4,-17(s0)
    4306:	00f71563          	bne	a4,a5,4310 <get_key_msg+0x98>
D:\WCH\代码\3-pit%20demo\obj/../CODE/Key.c:167
    {
        key_msg_flag = KEY_MSG_EMPTY;
    430a:	82018ba3          	sb	zero,-1993(gp) # 200000bf <key_msg_flag>
    430e:	a021                	j	4316 <get_key_msg+0x9e>
D:\WCH\代码\3-pit%20demo\obj/../CODE/Key.c:171
    }
    else
    {
        key_msg_flag = KEY_MSG_NORMAL;
    4310:	4705                	li	a4,1
    4312:	82e18ba3          	sb	a4,-1993(gp) # 200000bf <key_msg_flag>
D:\WCH\代码\3-pit%20demo\obj/../CODE/Key.c:174
    }

    return 1;
    4316:	4785                	li	a5,1
D:\WCH\代码\3-pit%20demo\obj/../CODE/Key.c:175
}
    4318:	853e                	mv	a0,a5
    431a:	5432                	lw	s0,44(sp)
    431c:	6145                	addi	sp,sp,48
    431e:	8082                	ret

00004320 <key_IRQHandler>:
key_IRQHandler():
D:\WCH\代码\3-pit%20demo\obj/../CODE/Key.c:183
 *  @brief      定时检测key状态
 *  @since      v5.0
 *  @note       此函数需要放入 定时中断服务函数里，定时10ms执行一次
 */
void key_IRQHandler(void)
{
    4320:	1101                	addi	sp,sp,-32
    4322:	ce06                	sw	ra,28(sp)
    4324:	cc22                	sw	s0,24(sp)
    4326:	1000                	addi	s0,sp,32
D:\WCH\代码\3-pit%20demo\obj/../CODE/Key.c:190
    KEY_e   keynum;
    static uint8 keytime[KEY_MAX];                          //静态数组，保存各数组按下时间

    KEY_MSG_t keymsg;                                       //按键消息

    for(keynum = (KEY_e)0 ; keynum < KEY_MAX; keynum ++)    //每个按键轮询
    4328:	fe042623          	sw	zero,-20(s0)
    432c:	a21d                	j	4452 <key_IRQHandler+0x132>
D:\WCH\代码\3-pit%20demo\obj/../CODE/Key.c:192
    {
        if(key_get(keynum) == KEY_DOWN)                     //判断按键是否按下
    432e:	fec42503          	lw	a0,-20(s0)
    4332:	e65ff0ef          	jal	ra,4196 <key_get>
    4336:	87aa                	mv	a5,a0
    4338:	e7f1                	bnez	a5,4404 <key_IRQHandler+0xe4>
D:\WCH\代码\3-pit%20demo\obj/../CODE/Key.c:194
        {
            keytime[keynum]++;                              //按下时间累加
    433a:	83818713          	addi	a4,gp,-1992 # 200000c0 <keytime.6137>
    433e:	fec42783          	lw	a5,-20(s0)
    4342:	97ba                	add	a5,a5,a4
    4344:	0007c783          	lbu	a5,0(a5)
    4348:	0785                	addi	a5,a5,1
    434a:	0ff7f713          	andi	a4,a5,255
    434e:	83818693          	addi	a3,gp,-1992 # 200000c0 <keytime.6137>
    4352:	fec42783          	lw	a5,-20(s0)
    4356:	97b6                	add	a5,a5,a3
    4358:	00e78023          	sb	a4,0(a5)
D:\WCH\代码\3-pit%20demo\obj/../CODE/Key.c:196

            if(keytime[keynum] <= KEY_DOWN_TIME)            //判断时间是否没超过消抖确认按下时间
    435c:	83818713          	addi	a4,gp,-1992 # 200000c0 <keytime.6137>
    4360:	fec42783          	lw	a5,-20(s0)
    4364:	97ba                	add	a5,a5,a4
    4366:	0007c703          	lbu	a4,0(a5)
    436a:	4785                	li	a5,1
    436c:	0ce7fb63          	bgeu	a5,a4,4442 <key_IRQHandler+0x122>
D:\WCH\代码\3-pit%20demo\obj/../CODE/Key.c:200
            {
                continue;                                   //没达到，则继续等待
            }
            else if(keytime[keynum] == KEY_DOWN_TIME + 1 )  //判断时间是否为消抖确认按下时间
    4370:	83818713          	addi	a4,gp,-1992 # 200000c0 <keytime.6137>
    4374:	fec42783          	lw	a5,-20(s0)
    4378:	97ba                	add	a5,a5,a4
    437a:	0007c703          	lbu	a4,0(a5)
    437e:	4789                	li	a5,2
    4380:	00f71f63          	bne	a4,a5,439e <key_IRQHandler+0x7e>
D:\WCH\代码\3-pit%20demo\obj/../CODE/Key.c:203
            {
                //确认按键按下
                keymsg.key = keynum;
    4384:	fec42783          	lw	a5,-20(s0)
    4388:	fef42223          	sw	a5,-28(s0)
D:\WCH\代码\3-pit%20demo\obj/../CODE/Key.c:204
                keymsg.status = KEY_DOWN;
    438c:	fe042423          	sw	zero,-24(s0)
D:\WCH\代码\3-pit%20demo\obj/../CODE/Key.c:205
                send_key_msg(keymsg);                       //把按键值和按键类型发送消息到FIFO
    4390:	fe442503          	lw	a0,-28(s0)
    4394:	fe842583          	lw	a1,-24(s0)
    4398:	e37ff0ef          	jal	ra,41ce <send_key_msg>
    439c:	a075                	j	4448 <key_IRQHandler+0x128>
D:\WCH\代码\3-pit%20demo\obj/../CODE/Key.c:207
            }
            else if(keytime[keynum] <= KEY_HOLD_TIME)       //是否没超过长按HOLD按键确认时间
    439e:	83818713          	addi	a4,gp,-1992 # 200000c0 <keytime.6137>
    43a2:	fec42783          	lw	a5,-20(s0)
    43a6:	97ba                	add	a5,a5,a4
    43a8:	0007c703          	lbu	a4,0(a5)
    43ac:	47a5                	li	a5,9
    43ae:	08e7fc63          	bgeu	a5,a4,4446 <key_IRQHandler+0x126>
D:\WCH\代码\3-pit%20demo\obj/../CODE/Key.c:211
            {
                continue;                                   //没超过，则继续等待
            }
            else if(keytime[keynum]  == KEY_HOLD_TIME + 1)  //是否为长按hold确认时间
    43b2:	83818713          	addi	a4,gp,-1992 # 200000c0 <keytime.6137>
    43b6:	fec42783          	lw	a5,-20(s0)
    43ba:	97ba                	add	a5,a5,a4
    43bc:	0007c703          	lbu	a4,0(a5)
    43c0:	47a9                	li	a5,10
    43c2:	02f71863          	bne	a4,a5,43f2 <key_IRQHandler+0xd2>
D:\WCH\代码\3-pit%20demo\obj/../CODE/Key.c:214
            {
                //确认长按HOLD
                keymsg.key = keynum;
    43c6:	fec42783          	lw	a5,-20(s0)
    43ca:	fef42223          	sw	a5,-28(s0)
D:\WCH\代码\3-pit%20demo\obj/../CODE/Key.c:215
                keymsg.status = KEY_HOLD;
    43ce:	4789                	li	a5,2
    43d0:	fef42423          	sw	a5,-24(s0)
D:\WCH\代码\3-pit%20demo\obj/../CODE/Key.c:216
                send_key_msg(keymsg);                       //发送
    43d4:	fe442503          	lw	a0,-28(s0)
    43d8:	fe842583          	lw	a1,-24(s0)
    43dc:	df3ff0ef          	jal	ra,41ce <send_key_msg>
D:\WCH\代码\3-pit%20demo\obj/../CODE/Key.c:217
                keytime[keynum] = KEY_DOWN_TIME + 1;
    43e0:	83818713          	addi	a4,gp,-1992 # 200000c0 <keytime.6137>
    43e4:	fec42783          	lw	a5,-20(s0)
    43e8:	97ba                	add	a5,a5,a4
    43ea:	4709                	li	a4,2
    43ec:	00e78023          	sb	a4,0(a5)
    43f0:	a8a1                	j	4448 <key_IRQHandler+0x128>
D:\WCH\代码\3-pit%20demo\obj/../CODE/Key.c:221
            }
            else
            {
                keytime[keynum] = KEY_DOWN_TIME + 1;        //继续重复检测 hold 状态
    43f2:	83818713          	addi	a4,gp,-1992 # 200000c0 <keytime.6137>
    43f6:	fec42783          	lw	a5,-20(s0)
    43fa:	97ba                	add	a5,a5,a4
    43fc:	4709                	li	a4,2
    43fe:	00e78023          	sb	a4,0(a5)
    4402:	a099                	j	4448 <key_IRQHandler+0x128>
D:\WCH\代码\3-pit%20demo\obj/../CODE/Key.c:226
            }
        }
        else
        {
            if(keytime[keynum] > KEY_DOWN_TIME)             //如果确认过按下按键
    4404:	83818713          	addi	a4,gp,-1992 # 200000c0 <keytime.6137>
    4408:	fec42783          	lw	a5,-20(s0)
    440c:	97ba                	add	a5,a5,a4
    440e:	0007c703          	lbu	a4,0(a5)
    4412:	4785                	li	a5,1
    4414:	00e7ff63          	bgeu	a5,a4,4432 <key_IRQHandler+0x112>
D:\WCH\代码\3-pit%20demo\obj/../CODE/Key.c:228
            {
                keymsg.key = keynum;
    4418:	fec42783          	lw	a5,-20(s0)
    441c:	fef42223          	sw	a5,-28(s0)
D:\WCH\代码\3-pit%20demo\obj/../CODE/Key.c:229
                keymsg.status = KEY_UP;
    4420:	4785                	li	a5,1
    4422:	fef42423          	sw	a5,-24(s0)
D:\WCH\代码\3-pit%20demo\obj/../CODE/Key.c:230
                send_key_msg(keymsg);                       //发送按键弹起消息
    4426:	fe442503          	lw	a0,-28(s0)
    442a:	fe842583          	lw	a1,-24(s0)
    442e:	da1ff0ef          	jal	ra,41ce <send_key_msg>
D:\WCH\代码\3-pit%20demo\obj/../CODE/Key.c:233
            }

            keytime[keynum] = 0;                            //时间累计清0
    4432:	83818713          	addi	a4,gp,-1992 # 200000c0 <keytime.6137>
    4436:	fec42783          	lw	a5,-20(s0)
    443a:	97ba                	add	a5,a5,a4
    443c:	00078023          	sb	zero,0(a5)
    4440:	a021                	j	4448 <key_IRQHandler+0x128>
D:\WCH\代码\3-pit%20demo\obj/../CODE/Key.c:198
                continue;                                   //没达到，则继续等待
    4442:	0001                	nop
    4444:	a011                	j	4448 <key_IRQHandler+0x128>
D:\WCH\代码\3-pit%20demo\obj/../CODE/Key.c:209
                continue;                                   //没超过，则继续等待
    4446:	0001                	nop
D:\WCH\代码\3-pit%20demo\obj/../CODE/Key.c:190 (discriminator 2)
    for(keynum = (KEY_e)0 ; keynum < KEY_MAX; keynum ++)    //每个按键轮询
    4448:	fec42783          	lw	a5,-20(s0)
    444c:	0785                	addi	a5,a5,1
    444e:	fef42623          	sw	a5,-20(s0)
D:\WCH\代码\3-pit%20demo\obj/../CODE/Key.c:190 (discriminator 1)
    4452:	fec42703          	lw	a4,-20(s0)
    4456:	4795                	li	a5,5
    4458:	ece7fbe3          	bgeu	a5,a4,432e <key_IRQHandler+0xe>
D:\WCH\代码\3-pit%20demo\obj/../CODE/Key.c:236
        }
    }
}
    445c:	0001                	nop
    445e:	40f2                	lw	ra,28(sp)
    4460:	4462                	lw	s0,24(sp)
    4462:	6105                	addi	sp,sp,32
    4464:	8082                	ret

00004466 <encode>:
encode():
D:\WCH\代码\3-pit%20demo\obj/../CODE/encode.c:7




void encode(void)
{
    4466:	1141                	addi	sp,sp,-16
    4468:	c606                	sw	ra,12(sp)
    446a:	c422                	sw	s0,8(sp)
    446c:	0800                	addi	s0,sp,16
D:\WCH\代码\3-pit%20demo\obj/../CODE/encode.c:8
    RB = encoder2_speed_spi(ABS_ENCODER_SPI_PC2_PIN);
    446e:	04800513          	li	a0,72
    4472:	cfffd0ef          	jal	ra,2170 <encoder2_speed_spi>
    4476:	87aa                	mv	a5,a0
    4478:	873e                	mv	a4,a5
    447a:	92e19923          	sh	a4,-1742(gp) # 200001ba <RB>
D:\WCH\代码\3-pit%20demo\obj/../CODE/encode.c:10

    RF = encoder1_speed_spi(ABS_ENCODER_SPI_PC1_PIN);
    447e:	04900513          	li	a0,73
    4482:	bebfd0ef          	jal	ra,206c <encoder1_speed_spi>
    4486:	87aa                	mv	a5,a0
    4488:	873e                	mv	a4,a5
    448a:	92e19823          	sh	a4,-1744(gp) # 200001b8 <RF>
D:\WCH\代码\3-pit%20demo\obj/../CODE/encode.c:12

    LF = encoder4_speed_spi(ABS_ENCODER_SPI_PC4_PIN);
    448e:	4521                	li	a0,8
    4490:	ee9fd0ef          	jal	ra,2378 <encoder4_speed_spi>
    4494:	87aa                	mv	a5,a0
    4496:	873e                	mv	a4,a5
    4498:	94e19a23          	sh	a4,-1708(gp) # 200001dc <LF>
D:\WCH\代码\3-pit%20demo\obj/../CODE/encode.c:14

    LB = encoder3_speed_spi(ABS_ENCODER_SPI_PC3_PIN);
    449c:	02c00513          	li	a0,44
    44a0:	dd5fd0ef          	jal	ra,2274 <encoder3_speed_spi>
    44a4:	87aa                	mv	a5,a0
    44a6:	873e                	mv	a4,a5
    44a8:	92e19a23          	sh	a4,-1740(gp) # 200001bc <LB>
D:\WCH\代码\3-pit%20demo\obj/../CODE/encode.c:16

    RB = (int16)((RB)*50*1.0/WHEEL_PULSE*WHEEL_C/10);    //cm/s
    44ac:	93219783          	lh	a5,-1742(gp) # 200001ba <RB>
    44b0:	873e                	mv	a4,a5
    44b2:	03200793          	li	a5,50
    44b6:	02f707b3          	mul	a5,a4,a5
    44ba:	853e                	mv	a0,a5
    44bc:	6c9000ef          	jal	ra,5384 <__floatsidf>
    44c0:	6799                	lui	a5,0x6
    44c2:	7787a603          	lw	a2,1912(a5) # 6778 <_exit+0xce>
    44c6:	77c7a683          	lw	a3,1916(a5)
    44ca:	2ecd                	jal	48bc <__divdf3>
    44cc:	87aa                	mv	a5,a0
    44ce:	882e                	mv	a6,a1
    44d0:	853e                	mv	a0,a5
    44d2:	85c2                	mv	a1,a6
    44d4:	6799                	lui	a5,0x6
    44d6:	7807a603          	lw	a2,1920(a5) # 6780 <_exit+0xd6>
    44da:	7847a683          	lw	a3,1924(a5)
    44de:	18f000ef          	jal	ra,4e6c <__muldf3>
    44e2:	87aa                	mv	a5,a0
    44e4:	882e                	mv	a6,a1
    44e6:	853e                	mv	a0,a5
    44e8:	85c2                	mv	a1,a6
    44ea:	6799                	lui	a5,0x6
    44ec:	7887a603          	lw	a2,1928(a5) # 6788 <_exit+0xde>
    44f0:	78c7a683          	lw	a3,1932(a5)
    44f4:	26e1                	jal	48bc <__divdf3>
    44f6:	87aa                	mv	a5,a0
    44f8:	882e                	mv	a6,a1
    44fa:	853e                	mv	a0,a5
    44fc:	85c2                	mv	a1,a6
    44fe:	61f000ef          	jal	ra,531c <__fixdfsi>
    4502:	87aa                	mv	a5,a0
    4504:	01079713          	slli	a4,a5,0x10
    4508:	8741                	srai	a4,a4,0x10
    450a:	92e19923          	sh	a4,-1742(gp) # 200001ba <RB>
D:\WCH\代码\3-pit%20demo\obj/../CODE/encode.c:17
    RF = (int16)((RF)*50*1.0/WHEEL_PULSE*WHEEL_C/10);    //cm/s
    450e:	93019783          	lh	a5,-1744(gp) # 200001b8 <RF>
    4512:	873e                	mv	a4,a5
    4514:	03200793          	li	a5,50
    4518:	02f707b3          	mul	a5,a4,a5
    451c:	853e                	mv	a0,a5
    451e:	667000ef          	jal	ra,5384 <__floatsidf>
    4522:	6799                	lui	a5,0x6
    4524:	7787a603          	lw	a2,1912(a5) # 6778 <_exit+0xce>
    4528:	77c7a683          	lw	a3,1916(a5)
    452c:	2e41                	jal	48bc <__divdf3>
    452e:	87aa                	mv	a5,a0
    4530:	882e                	mv	a6,a1
    4532:	853e                	mv	a0,a5
    4534:	85c2                	mv	a1,a6
    4536:	6799                	lui	a5,0x6
    4538:	7807a603          	lw	a2,1920(a5) # 6780 <_exit+0xd6>
    453c:	7847a683          	lw	a3,1924(a5)
    4540:	12d000ef          	jal	ra,4e6c <__muldf3>
    4544:	87aa                	mv	a5,a0
    4546:	882e                	mv	a6,a1
    4548:	853e                	mv	a0,a5
    454a:	85c2                	mv	a1,a6
    454c:	6799                	lui	a5,0x6
    454e:	7887a603          	lw	a2,1928(a5) # 6788 <_exit+0xde>
    4552:	78c7a683          	lw	a3,1932(a5)
    4556:	269d                	jal	48bc <__divdf3>
    4558:	87aa                	mv	a5,a0
    455a:	882e                	mv	a6,a1
    455c:	853e                	mv	a0,a5
    455e:	85c2                	mv	a1,a6
    4560:	5bd000ef          	jal	ra,531c <__fixdfsi>
    4564:	87aa                	mv	a5,a0
    4566:	01079713          	slli	a4,a5,0x10
    456a:	8741                	srai	a4,a4,0x10
    456c:	92e19823          	sh	a4,-1744(gp) # 200001b8 <RF>
D:\WCH\代码\3-pit%20demo\obj/../CODE/encode.c:18
    LF = (int16)((LF)*50*1.0/WHEEL_PULSE*WHEEL_C/10);    //cm/s
    4570:	95419783          	lh	a5,-1708(gp) # 200001dc <LF>
    4574:	873e                	mv	a4,a5
    4576:	03200793          	li	a5,50
    457a:	02f707b3          	mul	a5,a4,a5
    457e:	853e                	mv	a0,a5
    4580:	605000ef          	jal	ra,5384 <__floatsidf>
    4584:	6799                	lui	a5,0x6
    4586:	7787a603          	lw	a2,1912(a5) # 6778 <_exit+0xce>
    458a:	77c7a683          	lw	a3,1916(a5)
    458e:	263d                	jal	48bc <__divdf3>
    4590:	87aa                	mv	a5,a0
    4592:	882e                	mv	a6,a1
    4594:	853e                	mv	a0,a5
    4596:	85c2                	mv	a1,a6
    4598:	6799                	lui	a5,0x6
    459a:	7807a603          	lw	a2,1920(a5) # 6780 <_exit+0xd6>
    459e:	7847a683          	lw	a3,1924(a5)
    45a2:	0cb000ef          	jal	ra,4e6c <__muldf3>
    45a6:	87aa                	mv	a5,a0
    45a8:	882e                	mv	a6,a1
    45aa:	853e                	mv	a0,a5
    45ac:	85c2                	mv	a1,a6
    45ae:	6799                	lui	a5,0x6
    45b0:	7887a603          	lw	a2,1928(a5) # 6788 <_exit+0xde>
    45b4:	78c7a683          	lw	a3,1932(a5)
    45b8:	2611                	jal	48bc <__divdf3>
    45ba:	87aa                	mv	a5,a0
    45bc:	882e                	mv	a6,a1
    45be:	853e                	mv	a0,a5
    45c0:	85c2                	mv	a1,a6
    45c2:	55b000ef          	jal	ra,531c <__fixdfsi>
    45c6:	87aa                	mv	a5,a0
    45c8:	01079713          	slli	a4,a5,0x10
    45cc:	8741                	srai	a4,a4,0x10
    45ce:	94e19a23          	sh	a4,-1708(gp) # 200001dc <LF>
D:\WCH\代码\3-pit%20demo\obj/../CODE/encode.c:19
    LB = (int16)((LB)*50*1.0/WHEEL_PULSE*WHEEL_C/10);    //cm/s
    45d2:	93419783          	lh	a5,-1740(gp) # 200001bc <LB>
    45d6:	873e                	mv	a4,a5
    45d8:	03200793          	li	a5,50
    45dc:	02f707b3          	mul	a5,a4,a5
    45e0:	853e                	mv	a0,a5
    45e2:	5a3000ef          	jal	ra,5384 <__floatsidf>
    45e6:	6799                	lui	a5,0x6
    45e8:	7787a603          	lw	a2,1912(a5) # 6778 <_exit+0xce>
    45ec:	77c7a683          	lw	a3,1916(a5)
    45f0:	24f1                	jal	48bc <__divdf3>
    45f2:	87aa                	mv	a5,a0
    45f4:	882e                	mv	a6,a1
    45f6:	853e                	mv	a0,a5
    45f8:	85c2                	mv	a1,a6
    45fa:	6799                	lui	a5,0x6
    45fc:	7807a603          	lw	a2,1920(a5) # 6780 <_exit+0xd6>
    4600:	7847a683          	lw	a3,1924(a5)
    4604:	069000ef          	jal	ra,4e6c <__muldf3>
    4608:	87aa                	mv	a5,a0
    460a:	882e                	mv	a6,a1
    460c:	853e                	mv	a0,a5
    460e:	85c2                	mv	a1,a6
    4610:	6799                	lui	a5,0x6
    4612:	7887a603          	lw	a2,1928(a5) # 6788 <_exit+0xde>
    4616:	78c7a683          	lw	a3,1932(a5)
    461a:	244d                	jal	48bc <__divdf3>
    461c:	87aa                	mv	a5,a0
    461e:	882e                	mv	a6,a1
    4620:	853e                	mv	a0,a5
    4622:	85c2                	mv	a1,a6
    4624:	4f9000ef          	jal	ra,531c <__fixdfsi>
    4628:	87aa                	mv	a5,a0
    462a:	01079713          	slli	a4,a5,0x10
    462e:	8741                	srai	a4,a4,0x10
    4630:	92e19a23          	sh	a4,-1740(gp) # 200001bc <LB>
D:\WCH\代码\3-pit%20demo\obj/../CODE/encode.c:23



}
    4634:	0001                	nop
    4636:	40b2                	lw	ra,12(sp)
    4638:	4422                	lw	s0,8(sp)
    463a:	0141                	addi	sp,sp,16
    463c:	8082                	ret

0000463e <Menu_player>:
Menu_player():
D:\WCH\代码\3-pit%20demo\obj/../CODE/menu.c:9
uint8 cwheels=0;
enum key_sign interact_signal = nosign;
enum page_def interact_page = main_page;

void Menu_player()
{
    463e:	1141                	addi	sp,sp,-16
    4640:	c606                	sw	ra,12(sp)
    4642:	c422                	sw	s0,8(sp)
    4644:	0800                	addi	s0,sp,16
D:\WCH\代码\3-pit%20demo\obj/../CODE/menu.c:10
    Menu_Getsign();
    4646:	2801                	jal	4656 <Menu_Getsign>
D:\WCH\代码\3-pit%20demo\obj/../CODE/menu.c:11
    Menu_Key_Page_Handle();
    4648:	28d1                	jal	471c <Menu_Key_Page_Handle>
D:\WCH\代码\3-pit%20demo\obj/../CODE/menu.c:12
    Menu_Display();
    464a:	228d                	jal	47ac <Menu_Display>
D:\WCH\代码\3-pit%20demo\obj/../CODE/menu.c:13
}
    464c:	0001                	nop
    464e:	40b2                	lw	ra,12(sp)
    4650:	4422                	lw	s0,8(sp)
    4652:	0141                	addi	sp,sp,16
    4654:	8082                	ret

00004656 <Menu_Getsign>:
Menu_Getsign():
D:\WCH\代码\3-pit%20demo\obj/../CODE/menu.c:16

enum key_sign Menu_Getsign()  //返回按键消息，更改interact_signal
{
    4656:	1101                	addi	sp,sp,-32
    4658:	ce06                	sw	ra,28(sp)
    465a:	cc22                	sw	s0,24(sp)
    465c:	1000                	addi	s0,sp,32
D:\WCH\代码\3-pit%20demo\obj/../CODE/menu.c:17
    enum key_sign signflag = nosign;
    465e:	fe042623          	sw	zero,-20(s0)
D:\WCH\代码\3-pit%20demo\obj/../CODE/menu.c:19
    KEY_MSG_t keymsg;
    uint8 key_flag = 0;
    4662:	fe0405a3          	sb	zero,-21(s0)
D:\WCH\代码\3-pit%20demo\obj/../CODE/menu.c:21

    key_IRQHandler();
    4666:	cbbff0ef          	jal	ra,4320 <key_IRQHandler>
D:\WCH\代码\3-pit%20demo\obj/../CODE/menu.c:23

    key_flag=get_key_msg(&keymsg);
    466a:	fe040793          	addi	a5,s0,-32
    466e:	853e                	mv	a0,a5
    4670:	c09ff0ef          	jal	ra,4278 <get_key_msg>
    4674:	87aa                	mv	a5,a0
    4676:	fef405a3          	sb	a5,-21(s0)
D:\WCH\代码\3-pit%20demo\obj/../CODE/menu.c:25

    if (key_flag)
    467a:	feb44783          	lbu	a5,-21(s0)
    467e:	c7c1                	beqz	a5,4706 <Menu_Getsign+0xb0>
D:\WCH\代码\3-pit%20demo\obj/../CODE/menu.c:27
    {
        if (keymsg.key == KEY_U && keymsg.status == KEY_DOWN )
    4680:	fe042783          	lw	a5,-32(s0)
    4684:	e799                	bnez	a5,4692 <Menu_Getsign+0x3c>
D:\WCH\代码\3-pit%20demo\obj/../CODE/menu.c:27 (discriminator 1)
    4686:	fe442783          	lw	a5,-28(s0)
    468a:	e781                	bnez	a5,4692 <Menu_Getsign+0x3c>
D:\WCH\代码\3-pit%20demo\obj/../CODE/menu.c:29
        {
            signflag = upsign;
    468c:	4785                	li	a5,1
    468e:	fef42623          	sw	a5,-20(s0)
D:\WCH\代码\3-pit%20demo\obj/../CODE/menu.c:31
        }
        if (keymsg.key == KEY_D && keymsg.status == KEY_DOWN )
    4692:	fe042703          	lw	a4,-32(s0)
    4696:	4785                	li	a5,1
    4698:	00f71863          	bne	a4,a5,46a8 <Menu_Getsign+0x52>
D:\WCH\代码\3-pit%20demo\obj/../CODE/menu.c:31 (discriminator 1)
    469c:	fe442783          	lw	a5,-28(s0)
    46a0:	e781                	bnez	a5,46a8 <Menu_Getsign+0x52>
D:\WCH\代码\3-pit%20demo\obj/../CODE/menu.c:33
        {
            signflag = downsign;
    46a2:	4789                	li	a5,2
    46a4:	fef42623          	sw	a5,-20(s0)
D:\WCH\代码\3-pit%20demo\obj/../CODE/menu.c:35
        }
        if (keymsg.key == KEY_L && keymsg.status == KEY_DOWN )
    46a8:	fe042703          	lw	a4,-32(s0)
    46ac:	4789                	li	a5,2
    46ae:	00f71963          	bne	a4,a5,46c0 <Menu_Getsign+0x6a>
D:\WCH\代码\3-pit%20demo\obj/../CODE/menu.c:35 (discriminator 1)
    46b2:	fe442783          	lw	a5,-28(s0)
    46b6:	e789                	bnez	a5,46c0 <Menu_Getsign+0x6a>
D:\WCH\代码\3-pit%20demo\obj/../CODE/menu.c:37
        {
            signflag = leftsign;
    46b8:	478d                	li	a5,3
    46ba:	fef42623          	sw	a5,-20(s0)
    46be:	a0a1                	j	4706 <Menu_Getsign+0xb0>
D:\WCH\代码\3-pit%20demo\obj/../CODE/menu.c:39
        }
        else if (keymsg.key == KEY_R && keymsg.status == KEY_DOWN )
    46c0:	fe042703          	lw	a4,-32(s0)
    46c4:	478d                	li	a5,3
    46c6:	00f71963          	bne	a4,a5,46d8 <Menu_Getsign+0x82>
D:\WCH\代码\3-pit%20demo\obj/../CODE/menu.c:39 (discriminator 1)
    46ca:	fe442783          	lw	a5,-28(s0)
    46ce:	e789                	bnez	a5,46d8 <Menu_Getsign+0x82>
D:\WCH\代码\3-pit%20demo\obj/../CODE/menu.c:41
        {
            signflag = rightsign;
    46d0:	4791                	li	a5,4
    46d2:	fef42623          	sw	a5,-20(s0)
    46d6:	a805                	j	4706 <Menu_Getsign+0xb0>
D:\WCH\代码\3-pit%20demo\obj/../CODE/menu.c:43
        }
        else if (keymsg.key == KEY_P && keymsg.status == KEY_DOWN)
    46d8:	fe042703          	lw	a4,-32(s0)
    46dc:	4791                	li	a5,4
    46de:	00f71963          	bne	a4,a5,46f0 <Menu_Getsign+0x9a>
D:\WCH\代码\3-pit%20demo\obj/../CODE/menu.c:43 (discriminator 1)
    46e2:	fe442783          	lw	a5,-28(s0)
    46e6:	e789                	bnez	a5,46f0 <Menu_Getsign+0x9a>
D:\WCH\代码\3-pit%20demo\obj/../CODE/menu.c:45
        {
            signflag = insign;
    46e8:	4795                	li	a5,5
    46ea:	fef42623          	sw	a5,-20(s0)
    46ee:	a821                	j	4706 <Menu_Getsign+0xb0>
D:\WCH\代码\3-pit%20demo\obj/../CODE/menu.c:47
        }
        else if (keymsg.key == KEY_1 && keymsg.status == KEY_DOWN)
    46f0:	fe042703          	lw	a4,-32(s0)
    46f4:	4795                	li	a5,5
    46f6:	00f71863          	bne	a4,a5,4706 <Menu_Getsign+0xb0>
D:\WCH\代码\3-pit%20demo\obj/../CODE/menu.c:47 (discriminator 1)
    46fa:	fe442783          	lw	a5,-28(s0)
    46fe:	e781                	bnez	a5,4706 <Menu_Getsign+0xb0>
D:\WCH\代码\3-pit%20demo\obj/../CODE/menu.c:49
        {
            signflag = outsign;
    4700:	4799                	li	a5,6
    4702:	fef42623          	sw	a5,-20(s0)
D:\WCH\代码\3-pit%20demo\obj/../CODE/menu.c:52
        }
    }
    interact_signal = signflag;
    4706:	fec42703          	lw	a4,-20(s0)
    470a:	84e1a023          	sw	a4,-1984(gp) # 200000c8 <interact_signal>
D:\WCH\代码\3-pit%20demo\obj/../CODE/menu.c:53
    return signflag;
    470e:	fec42783          	lw	a5,-20(s0)
D:\WCH\代码\3-pit%20demo\obj/../CODE/menu.c:54
}
    4712:	853e                	mv	a0,a5
    4714:	40f2                	lw	ra,28(sp)
    4716:	4462                	lw	s0,24(sp)
    4718:	6105                	addi	sp,sp,32
    471a:	8082                	ret

0000471c <Menu_Key_Page_Handle>:
Menu_Key_Page_Handle():
D:\WCH\代码\3-pit%20demo\obj/../CODE/menu.c:57

void Menu_Key_Page_Handle()
{
    471c:	1141                	addi	sp,sp,-16
    471e:	c606                	sw	ra,12(sp)
    4720:	c422                	sw	s0,8(sp)
    4722:	0800                	addi	s0,sp,16
D:\WCH\代码\3-pit%20demo\obj/../CODE/menu.c:58
    if (interact_signal == insign)
    4724:	8401a703          	lw	a4,-1984(gp) # 200000c8 <interact_signal>
    4728:	4795                	li	a5,5
    472a:	00f71c63          	bne	a4,a5,4742 <Menu_Key_Page_Handle+0x26>
D:\WCH\代码\3-pit%20demo\obj/../CODE/menu.c:60
    {
        change_enable = !change_enable;
    472e:	83e1c783          	lbu	a5,-1986(gp) # 200000c6 <change_enable>
    4732:	0017b793          	seqz	a5,a5
    4736:	0ff7f793          	andi	a5,a5,255
    473a:	873e                	mv	a4,a5
    473c:	82e18f23          	sb	a4,-1986(gp) # 200000c6 <change_enable>
D:\WCH\代码\3-pit%20demo\obj/../CODE/menu.c:78
        if (interact_page == (enum page_def)(max_page-1))
            interact_page = main_page;
        else    interact_page++;
        change_enable = 0;
    }
}
    4740:	a08d                	j	47a2 <Menu_Key_Page_Handle+0x86>
D:\WCH\代码\3-pit%20demo\obj/../CODE/menu.c:62
    else if (interact_signal == leftsign)
    4742:	8401a703          	lw	a4,-1984(gp) # 200000c8 <interact_signal>
    4746:	478d                	li	a5,3
    4748:	02f71563          	bne	a4,a5,4772 <Menu_Key_Page_Handle+0x56>
D:\WCH\代码\3-pit%20demo\obj/../CODE/menu.c:64
        oled_fill(0);
    474c:	4501                	li	a0,0
    474e:	948fe0ef          	jal	ra,2896 <oled_fill>
D:\WCH\代码\3-pit%20demo\obj/../CODE/menu.c:65
        if (interact_page == main_page)
    4752:	8441a783          	lw	a5,-1980(gp) # 200000cc <interact_page>
    4756:	e789                	bnez	a5,4760 <Menu_Key_Page_Handle+0x44>
D:\WCH\代码\3-pit%20demo\obj/../CODE/menu.c:66
            interact_page = (enum page_def)(max_page-1);
    4758:	4709                	li	a4,2
    475a:	84e1a223          	sw	a4,-1980(gp) # 200000cc <interact_page>
    475e:	a039                	j	476c <Menu_Key_Page_Handle+0x50>
D:\WCH\代码\3-pit%20demo\obj/../CODE/menu.c:67
        else    interact_page--;
    4760:	8441a783          	lw	a5,-1980(gp) # 200000cc <interact_page>
    4764:	fff78713          	addi	a4,a5,-1
    4768:	84e1a223          	sw	a4,-1980(gp) # 200000cc <interact_page>
D:\WCH\代码\3-pit%20demo\obj/../CODE/menu.c:68
        change_enable = 0;
    476c:	82018f23          	sb	zero,-1986(gp) # 200000c6 <change_enable>
D:\WCH\代码\3-pit%20demo\obj/../CODE/menu.c:78
}
    4770:	a80d                	j	47a2 <Menu_Key_Page_Handle+0x86>
D:\WCH\代码\3-pit%20demo\obj/../CODE/menu.c:70
    else if (interact_signal == rightsign)
    4772:	8401a703          	lw	a4,-1984(gp) # 200000c8 <interact_signal>
    4776:	4791                	li	a5,4
    4778:	02f71563          	bne	a4,a5,47a2 <Menu_Key_Page_Handle+0x86>
D:\WCH\代码\3-pit%20demo\obj/../CODE/menu.c:72
        oled_fill(0);
    477c:	4501                	li	a0,0
    477e:	918fe0ef          	jal	ra,2896 <oled_fill>
D:\WCH\代码\3-pit%20demo\obj/../CODE/menu.c:73
        if (interact_page == (enum page_def)(max_page-1))
    4782:	8441a703          	lw	a4,-1980(gp) # 200000cc <interact_page>
    4786:	4789                	li	a5,2
    4788:	00f71563          	bne	a4,a5,4792 <Menu_Key_Page_Handle+0x76>
D:\WCH\代码\3-pit%20demo\obj/../CODE/menu.c:74
            interact_page = main_page;
    478c:	8401a223          	sw	zero,-1980(gp) # 200000cc <interact_page>
    4790:	a039                	j	479e <Menu_Key_Page_Handle+0x82>
D:\WCH\代码\3-pit%20demo\obj/../CODE/menu.c:75
        else    interact_page++;
    4792:	8441a783          	lw	a5,-1980(gp) # 200000cc <interact_page>
    4796:	00178713          	addi	a4,a5,1
    479a:	84e1a223          	sw	a4,-1980(gp) # 200000cc <interact_page>
D:\WCH\代码\3-pit%20demo\obj/../CODE/menu.c:76
        change_enable = 0;
    479e:	82018f23          	sb	zero,-1986(gp) # 200000c6 <change_enable>
D:\WCH\代码\3-pit%20demo\obj/../CODE/menu.c:78
}
    47a2:	0001                	nop
    47a4:	40b2                	lw	ra,12(sp)
    47a6:	4422                	lw	s0,8(sp)
    47a8:	0141                	addi	sp,sp,16
    47aa:	8082                	ret

000047ac <Menu_Display>:
Menu_Display():
D:\WCH\代码\3-pit%20demo\obj/../CODE/menu.c:81

void Menu_Display()
{
    47ac:	1141                	addi	sp,sp,-16
    47ae:	c606                	sw	ra,12(sp)
    47b0:	c422                	sw	s0,8(sp)
    47b2:	0800                	addi	s0,sp,16
D:\WCH\代码\3-pit%20demo\obj/../CODE/menu.c:82
    switch (interact_page)
    47b4:	8441a783          	lw	a5,-1980(gp) # 200000cc <interact_page>
    47b8:	4705                	li	a4,1
    47ba:	00e78963          	beq	a5,a4,47cc <Menu_Display+0x20>
    47be:	c789                	beqz	a5,47c8 <Menu_Display+0x1c>
    47c0:	4709                	li	a4,2
    47c2:	00e78763          	beq	a5,a4,47d0 <Menu_Display+0x24>
    47c6:	a039                	j	47d4 <Menu_Display+0x28>
D:\WCH\代码\3-pit%20demo\obj/../CODE/menu.c:84
    {
        case main_page:  Menu_Main();       break;
    47c8:	2829                	jal	47e2 <Menu_Main>
    47ca:	a039                	j	47d8 <Menu_Display+0x2c>
D:\WCH\代码\3-pit%20demo\obj/../CODE/menu.c:85
        case Image_page: Menu_Image();      break;
    47cc:	2869                	jal	4866 <Menu_Image>
    47ce:	a029                	j	47d8 <Menu_Display+0x2c>
D:\WCH\代码\3-pit%20demo\obj/../CODE/menu.c:86
        case Line_page:   Menu_Line();      break;
    47d0:	28c1                	jal	48a0 <Menu_Line>
    47d2:	a019                	j	47d8 <Menu_Display+0x2c>
D:\WCH\代码\3-pit%20demo\obj/../CODE/menu.c:87
       default :        Menu_Main();        break;
    47d4:	2039                	jal	47e2 <Menu_Main>
    47d6:	0001                	nop
D:\WCH\代码\3-pit%20demo\obj/../CODE/menu.c:89
    }
}
    47d8:	0001                	nop
    47da:	40b2                	lw	ra,12(sp)
    47dc:	4422                	lw	s0,8(sp)
    47de:	0141                	addi	sp,sp,16
    47e0:	8082                	ret

000047e2 <Menu_Main>:
Menu_Main():
D:\WCH\代码\3-pit%20demo\obj/../CODE/menu.c:93


void Menu_Main()
{
    47e2:	1141                	addi	sp,sp,-16
    47e4:	c606                	sw	ra,12(sp)
    47e6:	c422                	sw	s0,8(sp)
    47e8:	0800                	addi	s0,sp,16
D:\WCH\代码\3-pit%20demo\obj/../CODE/menu.c:94
    oled_int16(70, 1, 01);
    47ea:	4605                	li	a2,1
    47ec:	4585                	li	a1,1
    47ee:	04600513          	li	a0,70
    47f2:	9e0fe0ef          	jal	ra,29d2 <oled_int16>
D:\WCH\代码\3-pit%20demo\obj/../CODE/menu.c:95
    if (interact_signal == outsign)
    47f6:	8401a703          	lw	a4,-1984(gp) # 200000c8 <interact_signal>
    47fa:	4799                	li	a5,6
    47fc:	00f71663          	bne	a4,a5,4808 <Menu_Main+0x26>
D:\WCH\代码\3-pit%20demo\obj/../CODE/menu.c:97
    {
        gpio_toggle(A9);
    4800:	4525                	li	a0,9
    4802:	c64fe0ef          	jal	ra,2c66 <gpio_toggle>
    4806:	a081                	j	4846 <Menu_Main+0x64>
D:\WCH\代码\3-pit%20demo\obj/../CODE/menu.c:99
    }
    else if (interact_signal == downsign)
    4808:	8401a703          	lw	a4,-1984(gp) # 200000c8 <interact_signal>
    480c:	4789                	li	a5,2
    480e:	00f71d63          	bne	a4,a5,4828 <Menu_Main+0x46>
D:\WCH\代码\3-pit%20demo\obj/../CODE/menu.c:101
    {
        flash_a_test--;
    4812:	200007b7          	lui	a5,0x20000
    4816:	08c7a783          	lw	a5,140(a5) # 2000008c <flash_a_test>
    481a:	fff78713          	addi	a4,a5,-1
    481e:	200007b7          	lui	a5,0x20000
    4822:	08e7a623          	sw	a4,140(a5) # 2000008c <flash_a_test>
    4826:	a005                	j	4846 <Menu_Main+0x64>
D:\WCH\代码\3-pit%20demo\obj/../CODE/menu.c:103
    }
    else if (interact_signal == upsign)
    4828:	8401a703          	lw	a4,-1984(gp) # 200000c8 <interact_signal>
    482c:	4785                	li	a5,1
    482e:	00f71c63          	bne	a4,a5,4846 <Menu_Main+0x64>
D:\WCH\代码\3-pit%20demo\obj/../CODE/menu.c:108
    {
//        write_buff[Flash_flash_a_test]=flash_a_test;
//        flash_page_program(FLASH_SECTION_15, FLASH_PAGE_0, write_buff, Flash_Max);

        flash_a_test++;
    4832:	200007b7          	lui	a5,0x20000
    4836:	08c7a783          	lw	a5,140(a5) # 2000008c <flash_a_test>
    483a:	00178713          	addi	a4,a5,1
    483e:	200007b7          	lui	a5,0x20000
    4842:	08e7a623          	sw	a4,140(a5) # 2000008c <flash_a_test>
D:\WCH\代码\3-pit%20demo\obj/../CODE/menu.c:110
    }
    oled_int16(1,3,flash_a_test);
    4846:	200007b7          	lui	a5,0x20000
    484a:	08c7a783          	lw	a5,140(a5) # 2000008c <flash_a_test>
    484e:	07c2                	slli	a5,a5,0x10
    4850:	87c1                	srai	a5,a5,0x10
    4852:	863e                	mv	a2,a5
    4854:	458d                	li	a1,3
    4856:	4505                	li	a0,1
    4858:	97afe0ef          	jal	ra,29d2 <oled_int16>
D:\WCH\代码\3-pit%20demo\obj/../CODE/menu.c:119





}
    485c:	0001                	nop
    485e:	40b2                	lw	ra,12(sp)
    4860:	4422                	lw	s0,8(sp)
    4862:	0141                	addi	sp,sp,16
    4864:	8082                	ret

00004866 <Menu_Image>:
Menu_Image():
D:\WCH\代码\3-pit%20demo\obj/../CODE/menu.c:122

void Menu_Image()
{
    4866:	1141                	addi	sp,sp,-16
    4868:	c606                	sw	ra,12(sp)
    486a:	c422                	sw	s0,8(sp)
    486c:	0800                	addi	s0,sp,16
D:\WCH\代码\3-pit%20demo\obj/../CODE/menu.c:125

        //将接收到的从机数据显示到屏幕上。
        oled_int16(1, 1, slave_a);
    486e:	87219783          	lh	a5,-1934(gp) # 200000fa <slave_a>
    4872:	863e                	mv	a2,a5
    4874:	4585                	li	a1,1
    4876:	4505                	li	a0,1
    4878:	95afe0ef          	jal	ra,29d2 <oled_int16>
D:\WCH\代码\3-pit%20demo\obj/../CODE/menu.c:126
        oled_int16(1, 2, slave_b);
    487c:	86019783          	lh	a5,-1952(gp) # 200000e8 <slave_b>
    4880:	863e                	mv	a2,a5
    4882:	4589                	li	a1,2
    4884:	4505                	li	a0,1
    4886:	94cfe0ef          	jal	ra,29d2 <oled_int16>
D:\WCH\代码\3-pit%20demo\obj/../CODE/menu.c:128

    oled_int16(40, 2, 02);
    488a:	4609                	li	a2,2
    488c:	4589                	li	a1,2
    488e:	02800513          	li	a0,40
    4892:	940fe0ef          	jal	ra,29d2 <oled_int16>
D:\WCH\代码\3-pit%20demo\obj/../CODE/menu.c:130

}
    4896:	0001                	nop
    4898:	40b2                	lw	ra,12(sp)
    489a:	4422                	lw	s0,8(sp)
    489c:	0141                	addi	sp,sp,16
    489e:	8082                	ret

000048a0 <Menu_Line>:
Menu_Line():
D:\WCH\代码\3-pit%20demo\obj/../CODE/menu.c:132
void Menu_Line()
{
    48a0:	1141                	addi	sp,sp,-16
    48a2:	c606                	sw	ra,12(sp)
    48a4:	c422                	sw	s0,8(sp)
    48a6:	0800                	addi	s0,sp,16
D:\WCH\代码\3-pit%20demo\obj/../CODE/menu.c:133
    oled_int16(1, 1, 03);
    48a8:	460d                	li	a2,3
    48aa:	4585                	li	a1,1
    48ac:	4505                	li	a0,1
    48ae:	924fe0ef          	jal	ra,29d2 <oled_int16>
D:\WCH\代码\3-pit%20demo\obj/../CODE/menu.c:134
}
    48b2:	0001                	nop
    48b4:	40b2                	lw	ra,12(sp)
    48b6:	4422                	lw	s0,8(sp)
    48b8:	0141                	addi	sp,sp,16
    48ba:	8082                	ret

000048bc <__divdf3>:
__divdf3():
    48bc:	7139                	addi	sp,sp,-64
    48be:	0145d793          	srli	a5,a1,0x14
    48c2:	dc22                	sw	s0,56(sp)
    48c4:	d84a                	sw	s2,48(sp)
    48c6:	d256                	sw	s5,36(sp)
    48c8:	892a                	mv	s2,a0
    48ca:	00c59413          	slli	s0,a1,0xc
    48ce:	de06                	sw	ra,60(sp)
    48d0:	da26                	sw	s1,52(sp)
    48d2:	d64e                	sw	s3,44(sp)
    48d4:	d452                	sw	s4,40(sp)
    48d6:	d05a                	sw	s6,32(sp)
    48d8:	ce5e                	sw	s7,28(sp)
    48da:	7ff7f513          	andi	a0,a5,2047
    48de:	8031                	srli	s0,s0,0xc
    48e0:	01f5da93          	srli	s5,a1,0x1f
    48e4:	10050b63          	beqz	a0,49fa <__divdf3+0x13e>
    48e8:	7ff00793          	li	a5,2047
    48ec:	14f50b63          	beq	a0,a5,4a42 <__divdf3+0x186>
    48f0:	01d95a13          	srli	s4,s2,0x1d
    48f4:	040e                	slli	s0,s0,0x3
    48f6:	008a6433          	or	s0,s4,s0
    48fa:	00800a37          	lui	s4,0x800
    48fe:	01446a33          	or	s4,s0,s4
    4902:	00391b13          	slli	s6,s2,0x3
    4906:	c0150493          	addi	s1,a0,-1023 # 3fc01 <_data_lma+0x38f85>
    490a:	4401                	li	s0,0
    490c:	4b81                	li	s7,0
    490e:	0146d813          	srli	a6,a3,0x14
    4912:	00c69913          	slli	s2,a3,0xc
    4916:	7ff87813          	andi	a6,a6,2047
    491a:	88b2                	mv	a7,a2
    491c:	00c95913          	srli	s2,s2,0xc
    4920:	01f6d993          	srli	s3,a3,0x1f
    4924:	08080e63          	beqz	a6,49c0 <__divdf3+0x104>
    4928:	7ff00793          	li	a5,2047
    492c:	04f80063          	beq	a6,a5,496c <__divdf3+0xb0>
    4930:	01d65713          	srli	a4,a2,0x1d
    4934:	090e                	slli	s2,s2,0x3
    4936:	01276933          	or	s2,a4,s2
    493a:	c0180813          	addi	a6,a6,-1023
    493e:	008007b7          	lui	a5,0x800
    4942:	00f96733          	or	a4,s2,a5
    4946:	00361893          	slli	a7,a2,0x3
    494a:	410484b3          	sub	s1,s1,a6
    494e:	4581                	li	a1,0
    4950:	47bd                	li	a5,15
    4952:	013ac833          	xor	a6,s5,s3
    4956:	1a87e463          	bltu	a5,s0,4afe <__divdf3+0x242>
    495a:	00002797          	auipc	a5,0x2
    495e:	0c678793          	addi	a5,a5,198 # 6a20 <UARTN+0x10>
    4962:	040a                	slli	s0,s0,0x2
    4964:	943e                	add	s0,s0,a5
    4966:	4010                	lw	a2,0(s0)
    4968:	963e                	add	a2,a2,a5
    496a:	8602                	jr	a2
    496c:	00c96733          	or	a4,s2,a2
    4970:	80148493          	addi	s1,s1,-2047
    4974:	10071263          	bnez	a4,4a78 <__divdf3+0x1bc>
    4978:	00246413          	ori	s0,s0,2
    497c:	4881                	li	a7,0
    497e:	4589                	li	a1,2
    4980:	bfc1                	j	4950 <__divdf3+0x94>
    4982:	7ff00613          	li	a2,2047
    4986:	4781                	li	a5,0
    4988:	4701                	li	a4,0
    498a:	07b2                	slli	a5,a5,0xc
    498c:	50f2                	lw	ra,60(sp)
    498e:	5462                	lw	s0,56(sp)
    4990:	0652                	slli	a2,a2,0x14
    4992:	83b1                	srli	a5,a5,0xc
    4994:	087e                	slli	a6,a6,0x1f
    4996:	8fd1                	or	a5,a5,a2
    4998:	0107e7b3          	or	a5,a5,a6
    499c:	54d2                	lw	s1,52(sp)
    499e:	5942                	lw	s2,48(sp)
    49a0:	59b2                	lw	s3,44(sp)
    49a2:	5a22                	lw	s4,40(sp)
    49a4:	5a92                	lw	s5,36(sp)
    49a6:	5b02                	lw	s6,32(sp)
    49a8:	4bf2                	lw	s7,28(sp)
    49aa:	853a                	mv	a0,a4
    49ac:	85be                	mv	a1,a5
    49ae:	6121                	addi	sp,sp,64
    49b0:	8082                	ret
    49b2:	4801                	li	a6,0
    49b4:	7ff00613          	li	a2,2047
    49b8:	000807b7          	lui	a5,0x80
    49bc:	4701                	li	a4,0
    49be:	b7f1                	j	498a <__divdf3+0xce>
    49c0:	00c96733          	or	a4,s2,a2
    49c4:	c74d                	beqz	a4,4a6e <__divdf3+0x1b2>
    49c6:	30090763          	beqz	s2,4cd4 <__divdf3+0x418>
    49ca:	854a                	mv	a0,s2
    49cc:	c432                	sw	a2,8(sp)
    49ce:	227000ef          	jal	ra,53f4 <__clzsi2>
    49d2:	4622                	lw	a2,8(sp)
    49d4:	ff550713          	addi	a4,a0,-11
    49d8:	47f5                	li	a5,29
    49da:	ff850693          	addi	a3,a0,-8
    49de:	8f99                	sub	a5,a5,a4
    49e0:	00d91933          	sll	s2,s2,a3
    49e4:	00f657b3          	srl	a5,a2,a5
    49e8:	0127e733          	or	a4,a5,s2
    49ec:	00d618b3          	sll	a7,a2,a3
    49f0:	9526                	add	a0,a0,s1
    49f2:	3f350493          	addi	s1,a0,1011
    49f6:	4581                	li	a1,0
    49f8:	bfa1                	j	4950 <__divdf3+0x94>
    49fa:	01246a33          	or	s4,s0,s2
    49fe:	060a0363          	beqz	s4,4a64 <__divdf3+0x1a8>
    4a02:	c636                	sw	a3,12(sp)
    4a04:	c432                	sw	a2,8(sp)
    4a06:	2a040663          	beqz	s0,4cb2 <__divdf3+0x3f6>
    4a0a:	8522                	mv	a0,s0
    4a0c:	1e9000ef          	jal	ra,53f4 <__clzsi2>
    4a10:	4622                	lw	a2,8(sp)
    4a12:	46b2                	lw	a3,12(sp)
    4a14:	84aa                	mv	s1,a0
    4a16:	ff550713          	addi	a4,a0,-11
    4a1a:	4a75                	li	s4,29
    4a1c:	ff848b13          	addi	s6,s1,-8
    4a20:	40ea0a33          	sub	s4,s4,a4
    4a24:	01641433          	sll	s0,s0,s6
    4a28:	01495a33          	srl	s4,s2,s4
    4a2c:	008a6a33          	or	s4,s4,s0
    4a30:	01691b33          	sll	s6,s2,s6
    4a34:	c0d00513          	li	a0,-1011
    4a38:	409504b3          	sub	s1,a0,s1
    4a3c:	4401                	li	s0,0
    4a3e:	4b81                	li	s7,0
    4a40:	b5f9                	j	490e <__divdf3+0x52>
    4a42:	01246a33          	or	s4,s0,s2
    4a46:	000a1863          	bnez	s4,4a56 <__divdf3+0x19a>
    4a4a:	4421                	li	s0,8
    4a4c:	4b01                	li	s6,0
    4a4e:	7ff00493          	li	s1,2047
    4a52:	4b89                	li	s7,2
    4a54:	bd6d                	j	490e <__divdf3+0x52>
    4a56:	8a22                	mv	s4,s0
    4a58:	8b4a                	mv	s6,s2
    4a5a:	4431                	li	s0,12
    4a5c:	7ff00493          	li	s1,2047
    4a60:	4b8d                	li	s7,3
    4a62:	b575                	j	490e <__divdf3+0x52>
    4a64:	4411                	li	s0,4
    4a66:	4b01                	li	s6,0
    4a68:	4481                	li	s1,0
    4a6a:	4b85                	li	s7,1
    4a6c:	b54d                	j	490e <__divdf3+0x52>
    4a6e:	00146413          	ori	s0,s0,1
    4a72:	4881                	li	a7,0
    4a74:	4585                	li	a1,1
    4a76:	bde9                	j	4950 <__divdf3+0x94>
    4a78:	00346413          	ori	s0,s0,3
    4a7c:	874a                	mv	a4,s2
    4a7e:	458d                	li	a1,3
    4a80:	bdc1                	j	4950 <__divdf3+0x94>
    4a82:	2e050863          	beqz	a0,4d72 <__divdf3+0x4b6>
    4a86:	4785                	li	a5,1
    4a88:	8f89                	sub	a5,a5,a0
    4a8a:	03800693          	li	a3,56
    4a8e:	32f6db63          	bge	a3,a5,4dc4 <__divdf3+0x508>
    4a92:	4601                	li	a2,0
    4a94:	4781                	li	a5,0
    4a96:	4701                	li	a4,0
    4a98:	bdcd                	j	498a <__divdf3+0xce>
    4a9a:	86ce                	mv	a3,s3
    4a9c:	4789                	li	a5,2
    4a9e:	3af58b63          	beq	a1,a5,4e54 <__divdf3+0x598>
    4aa2:	478d                	li	a5,3
    4aa4:	f0f587e3          	beq	a1,a5,49b2 <__divdf3+0xf6>
    4aa8:	4785                	li	a5,1
    4aaa:	8836                	mv	a6,a3
    4aac:	fef583e3          	beq	a1,a5,4a92 <__divdf3+0x1d6>
    4ab0:	3ff48513          	addi	a0,s1,1023
    4ab4:	fca057e3          	blez	a0,4a82 <__divdf3+0x1c6>
    4ab8:	0078f793          	andi	a5,a7,7
    4abc:	28079463          	bnez	a5,4d44 <__divdf3+0x488>
    4ac0:	0038d693          	srli	a3,a7,0x3
    4ac4:	00771793          	slli	a5,a4,0x7
    4ac8:	0007d863          	bgez	a5,4ad8 <__divdf3+0x21c>
    4acc:	ff0007b7          	lui	a5,0xff000
    4ad0:	17fd                	addi	a5,a5,-1
    4ad2:	8f7d                	and	a4,a4,a5
    4ad4:	40048513          	addi	a0,s1,1024
    4ad8:	7fe00793          	li	a5,2046
    4adc:	eaa7c3e3          	blt	a5,a0,4982 <__divdf3+0xc6>
    4ae0:	01d71613          	slli	a2,a4,0x1d
    4ae4:	00971793          	slli	a5,a4,0x9
    4ae8:	83b1                	srli	a5,a5,0xc
    4aea:	00d66733          	or	a4,a2,a3
    4aee:	7ff57613          	andi	a2,a0,2047
    4af2:	bd61                	j	498a <__divdf3+0xce>
    4af4:	86d6                	mv	a3,s5
    4af6:	8752                	mv	a4,s4
    4af8:	88da                	mv	a7,s6
    4afa:	85de                	mv	a1,s7
    4afc:	b745                	j	4a9c <__divdf3+0x1e0>
    4afe:	21476f63          	bltu	a4,s4,4d1c <__divdf3+0x460>
    4b02:	20ea0b63          	beq	s4,a4,4d18 <__divdf3+0x45c>
    4b06:	86da                	mv	a3,s6
    4b08:	14fd                	addi	s1,s1,-1
    4b0a:	8452                	mv	s0,s4
    4b0c:	4b01                	li	s6,0
    4b0e:	00871793          	slli	a5,a4,0x8
    4b12:	0188d313          	srli	t1,a7,0x18
    4b16:	00f36333          	or	t1,t1,a5
    4b1a:	01035e93          	srli	t4,t1,0x10
    4b1e:	03d457b3          	divu	a5,s0,t4
    4b22:	01031f13          	slli	t5,t1,0x10
    4b26:	010f5f13          	srli	t5,t5,0x10
    4b2a:	0106d593          	srli	a1,a3,0x10
    4b2e:	00889e13          	slli	t3,a7,0x8
    4b32:	03d47433          	remu	s0,s0,t4
    4b36:	02ff0733          	mul	a4,t5,a5
    4b3a:	0442                	slli	s0,s0,0x10
    4b3c:	8dc1                	or	a1,a1,s0
    4b3e:	00e5fb63          	bgeu	a1,a4,4b54 <__divdf3+0x298>
    4b42:	959a                	add	a1,a1,t1
    4b44:	fff78613          	addi	a2,a5,-1 # feffffff <_eusrstack+0xdeffafff>
    4b48:	2665ec63          	bltu	a1,t1,4dc0 <__divdf3+0x504>
    4b4c:	26e5fa63          	bgeu	a1,a4,4dc0 <__divdf3+0x504>
    4b50:	17f9                	addi	a5,a5,-2
    4b52:	959a                	add	a1,a1,t1
    4b54:	8d99                	sub	a1,a1,a4
    4b56:	03d5d733          	divu	a4,a1,t4
    4b5a:	06c2                	slli	a3,a3,0x10
    4b5c:	82c1                	srli	a3,a3,0x10
    4b5e:	03d5f5b3          	remu	a1,a1,t4
    4b62:	02ef0633          	mul	a2,t5,a4
    4b66:	05c2                	slli	a1,a1,0x10
    4b68:	8dd5                	or	a1,a1,a3
    4b6a:	00c5fb63          	bgeu	a1,a2,4b80 <__divdf3+0x2c4>
    4b6e:	959a                	add	a1,a1,t1
    4b70:	fff70693          	addi	a3,a4,-1 # 9effff <_data_lma+0x9e9383>
    4b74:	2465e463          	bltu	a1,t1,4dbc <__divdf3+0x500>
    4b78:	24c5f263          	bgeu	a1,a2,4dbc <__divdf3+0x500>
    4b7c:	1779                	addi	a4,a4,-2
    4b7e:	959a                	add	a1,a1,t1
    4b80:	07c2                	slli	a5,a5,0x10
    4b82:	6441                	lui	s0,0x10
    4b84:	8f5d                	or	a4,a4,a5
    4b86:	fff40793          	addi	a5,s0,-1 # ffff <_data_lma+0x9383>
    4b8a:	00f77533          	and	a0,a4,a5
    4b8e:	01075893          	srli	a7,a4,0x10
    4b92:	010e5f93          	srli	t6,t3,0x10
    4b96:	00fe77b3          	and	a5,t3,a5
    4b9a:	02f502b3          	mul	t0,a0,a5
    4b9e:	40c586b3          	sub	a3,a1,a2
    4ba2:	02f883b3          	mul	t2,a7,a5
    4ba6:	0102d593          	srli	a1,t0,0x10
    4baa:	02af8633          	mul	a2,t6,a0
    4bae:	961e                	add	a2,a2,t2
    4bb0:	962e                	add	a2,a2,a1
    4bb2:	03f88533          	mul	a0,a7,t6
    4bb6:	00767363          	bgeu	a2,t2,4bbc <__divdf3+0x300>
    4bba:	9522                	add	a0,a0,s0
    4bbc:	68c1                	lui	a7,0x10
    4bbe:	18fd                	addi	a7,a7,-1
    4bc0:	01065593          	srli	a1,a2,0x10
    4bc4:	01167633          	and	a2,a2,a7
    4bc8:	0642                	slli	a2,a2,0x10
    4bca:	0112f8b3          	and	a7,t0,a7
    4bce:	95aa                	add	a1,a1,a0
    4bd0:	9646                	add	a2,a2,a7
    4bd2:	12b6e463          	bltu	a3,a1,4cfa <__divdf3+0x43e>
    4bd6:	12b68063          	beq	a3,a1,4cf6 <__divdf3+0x43a>
    4bda:	40cb0633          	sub	a2,s6,a2
    4bde:	8e8d                	sub	a3,a3,a1
    4be0:	00cb3b33          	sltu	s6,s6,a2
    4be4:	41668b33          	sub	s6,a3,s6
    4be8:	3ff48513          	addi	a0,s1,1023
    4bec:	17630a63          	beq	t1,s6,4d60 <__divdf3+0x4a4>
    4bf0:	03db58b3          	divu	a7,s6,t4
    4bf4:	01065593          	srli	a1,a2,0x10
    4bf8:	03db7b33          	remu	s6,s6,t4
    4bfc:	031f06b3          	mul	a3,t5,a7
    4c00:	0b42                	slli	s6,s6,0x10
    4c02:	0165eb33          	or	s6,a1,s6
    4c06:	00db7b63          	bgeu	s6,a3,4c1c <__divdf3+0x360>
    4c0a:	9b1a                	add	s6,s6,t1
    4c0c:	fff88593          	addi	a1,a7,-1 # ffff <_data_lma+0x9383>
    4c10:	206b6b63          	bltu	s6,t1,4e26 <__divdf3+0x56a>
    4c14:	20db7963          	bgeu	s6,a3,4e26 <__divdf3+0x56a>
    4c18:	18f9                	addi	a7,a7,-2
    4c1a:	9b1a                	add	s6,s6,t1
    4c1c:	40db0b33          	sub	s6,s6,a3
    4c20:	03db56b3          	divu	a3,s6,t4
    4c24:	0642                	slli	a2,a2,0x10
    4c26:	8241                	srli	a2,a2,0x10
    4c28:	03db7b33          	remu	s6,s6,t4
    4c2c:	02df0f33          	mul	t5,t5,a3
    4c30:	0b42                	slli	s6,s6,0x10
    4c32:	01666633          	or	a2,a2,s6
    4c36:	01e67b63          	bgeu	a2,t5,4c4c <__divdf3+0x390>
    4c3a:	961a                	add	a2,a2,t1
    4c3c:	fff68593          	addi	a1,a3,-1
    4c40:	1e666563          	bltu	a2,t1,4e2a <__divdf3+0x56e>
    4c44:	1fe67363          	bgeu	a2,t5,4e2a <__divdf3+0x56e>
    4c48:	16f9                	addi	a3,a3,-2
    4c4a:	961a                	add	a2,a2,t1
    4c4c:	08c2                	slli	a7,a7,0x10
    4c4e:	00d8e8b3          	or	a7,a7,a3
    4c52:	01089593          	slli	a1,a7,0x10
    4c56:	0108d293          	srli	t0,a7,0x10
    4c5a:	81c1                	srli	a1,a1,0x10
    4c5c:	02f58eb3          	mul	t4,a1,a5
    4c60:	41e60633          	sub	a2,a2,t5
    4c64:	02bf85b3          	mul	a1,t6,a1
    4c68:	010ed693          	srli	a3,t4,0x10
    4c6c:	02f287b3          	mul	a5,t0,a5
    4c70:	95be                	add	a1,a1,a5
    4c72:	96ae                	add	a3,a3,a1
    4c74:	025f8fb3          	mul	t6,t6,t0
    4c78:	00f6f463          	bgeu	a3,a5,4c80 <__divdf3+0x3c4>
    4c7c:	67c1                	lui	a5,0x10
    4c7e:	9fbe                	add	t6,t6,a5
    4c80:	65c1                	lui	a1,0x10
    4c82:	15fd                	addi	a1,a1,-1
    4c84:	0106d793          	srli	a5,a3,0x10
    4c88:	8eed                	and	a3,a3,a1
    4c8a:	06c2                	slli	a3,a3,0x10
    4c8c:	00befeb3          	and	t4,t4,a1
    4c90:	9fbe                	add	t6,t6,a5
    4c92:	96f6                	add	a3,a3,t4
    4c94:	09f67d63          	bgeu	a2,t6,4d2e <__divdf3+0x472>
    4c98:	961a                	add	a2,a2,t1
    4c9a:	fff88793          	addi	a5,a7,-1
    4c9e:	1a666763          	bltu	a2,t1,4e4c <__divdf3+0x590>
    4ca2:	19f66663          	bltu	a2,t6,4e2e <__divdf3+0x572>
    4ca6:	1bf60d63          	beq	a2,t6,4e60 <__divdf3+0x5a4>
    4caa:	88be                	mv	a7,a5
    4cac:	0018e893          	ori	a7,a7,1
    4cb0:	b511                	j	4ab4 <__divdf3+0x1f8>
    4cb2:	854a                	mv	a0,s2
    4cb4:	2781                	jal	53f4 <__clzsi2>
    4cb6:	01550713          	addi	a4,a0,21
    4cba:	45f1                	li	a1,28
    4cbc:	02050493          	addi	s1,a0,32
    4cc0:	4622                	lw	a2,8(sp)
    4cc2:	46b2                	lw	a3,12(sp)
    4cc4:	d4e5dbe3          	bge	a1,a4,4a1a <__divdf3+0x15e>
    4cc8:	ff850413          	addi	s0,a0,-8
    4ccc:	00891a33          	sll	s4,s2,s0
    4cd0:	4b01                	li	s6,0
    4cd2:	b38d                	j	4a34 <__divdf3+0x178>
    4cd4:	8532                	mv	a0,a2
    4cd6:	c432                	sw	a2,8(sp)
    4cd8:	2f31                	jal	53f4 <__clzsi2>
    4cda:	01550713          	addi	a4,a0,21
    4cde:	46f1                	li	a3,28
    4ce0:	87aa                	mv	a5,a0
    4ce2:	4622                	lw	a2,8(sp)
    4ce4:	02050513          	addi	a0,a0,32
    4ce8:	cee6d8e3          	bge	a3,a4,49d8 <__divdf3+0x11c>
    4cec:	17e1                	addi	a5,a5,-8
    4cee:	00f61733          	sll	a4,a2,a5
    4cf2:	4881                	li	a7,0
    4cf4:	b9f5                	j	49f0 <__divdf3+0x134>
    4cf6:	eecb72e3          	bgeu	s6,a2,4bda <__divdf3+0x31e>
    4cfa:	9b72                	add	s6,s6,t3
    4cfc:	01cb3533          	sltu	a0,s6,t3
    4d00:	951a                	add	a0,a0,t1
    4d02:	96aa                	add	a3,a3,a0
    4d04:	fff70513          	addi	a0,a4,-1
    4d08:	02d37863          	bgeu	t1,a3,4d38 <__divdf3+0x47c>
    4d0c:	10b6e663          	bltu	a3,a1,4e18 <__divdf3+0x55c>
    4d10:	10d58263          	beq	a1,a3,4e14 <__divdf3+0x558>
    4d14:	872a                	mv	a4,a0
    4d16:	b5d1                	j	4bda <__divdf3+0x31e>
    4d18:	df1b67e3          	bltu	s6,a7,4b06 <__divdf3+0x24a>
    4d1c:	001b5593          	srli	a1,s6,0x1
    4d20:	01fa1693          	slli	a3,s4,0x1f
    4d24:	001a5413          	srli	s0,s4,0x1
    4d28:	8ecd                	or	a3,a3,a1
    4d2a:	0b7e                	slli	s6,s6,0x1f
    4d2c:	b3cd                	j	4b0e <__divdf3+0x252>
    4d2e:	f7f61fe3          	bne	a2,t6,4cac <__divdf3+0x3f0>
    4d32:	d80681e3          	beqz	a3,4ab4 <__divdf3+0x1f8>
    4d36:	b78d                	j	4c98 <__divdf3+0x3dc>
    4d38:	fcd31ee3          	bne	t1,a3,4d14 <__divdf3+0x458>
    4d3c:	fdcb78e3          	bgeu	s6,t3,4d0c <__divdf3+0x450>
    4d40:	872a                	mv	a4,a0
    4d42:	bd61                	j	4bda <__divdf3+0x31e>
    4d44:	00f8f793          	andi	a5,a7,15
    4d48:	4691                	li	a3,4
    4d4a:	d6d78be3          	beq	a5,a3,4ac0 <__divdf3+0x204>
    4d4e:	ffc8b793          	sltiu	a5,a7,-4
    4d52:	00488693          	addi	a3,a7,4
    4d56:	0017c793          	xori	a5,a5,1
    4d5a:	828d                	srli	a3,a3,0x3
    4d5c:	973e                	add	a4,a4,a5
    4d5e:	b39d                	j	4ac4 <__divdf3+0x208>
    4d60:	4681                	li	a3,0
    4d62:	4785                	li	a5,1
    4d64:	fea04ce3          	bgtz	a0,4d5c <__divdf3+0x4a0>
    4d68:	58fd                	li	a7,-1
    4d6a:	d0051ee3          	bnez	a0,4a86 <__divdf3+0x1ca>
    4d6e:	c0100493          	li	s1,-1023
    4d72:	4785                	li	a5,1
    4d74:	41e48513          	addi	a0,s1,1054
    4d78:	00a716b3          	sll	a3,a4,a0
    4d7c:	00f8d633          	srl	a2,a7,a5
    4d80:	00a89533          	sll	a0,a7,a0
    4d84:	8ed1                	or	a3,a3,a2
    4d86:	00a03533          	snez	a0,a0
    4d8a:	8ec9                	or	a3,a3,a0
    4d8c:	0076f613          	andi	a2,a3,7
    4d90:	00f75733          	srl	a4,a4,a5
    4d94:	ce01                	beqz	a2,4dac <__divdf3+0x4f0>
    4d96:	00f6f793          	andi	a5,a3,15
    4d9a:	4611                	li	a2,4
    4d9c:	00c78863          	beq	a5,a2,4dac <__divdf3+0x4f0>
    4da0:	00468793          	addi	a5,a3,4
    4da4:	00d7b6b3          	sltu	a3,a5,a3
    4da8:	9736                	add	a4,a4,a3
    4daa:	86be                	mv	a3,a5
    4dac:	00871793          	slli	a5,a4,0x8
    4db0:	0407d863          	bgez	a5,4e00 <__divdf3+0x544>
    4db4:	4605                	li	a2,1
    4db6:	4781                	li	a5,0
    4db8:	4701                	li	a4,0
    4dba:	bec1                	j	498a <__divdf3+0xce>
    4dbc:	8736                	mv	a4,a3
    4dbe:	b3c9                	j	4b80 <__divdf3+0x2c4>
    4dc0:	87b2                	mv	a5,a2
    4dc2:	bb49                	j	4b54 <__divdf3+0x298>
    4dc4:	46fd                	li	a3,31
    4dc6:	faf6d7e3          	bge	a3,a5,4d74 <__divdf3+0x4b8>
    4dca:	5605                	li	a2,-31
    4dcc:	8e09                	sub	a2,a2,a0
    4dce:	02000693          	li	a3,32
    4dd2:	00c75633          	srl	a2,a4,a2
    4dd6:	00d78863          	beq	a5,a3,4de6 <__divdf3+0x52a>
    4dda:	43e48793          	addi	a5,s1,1086
    4dde:	00f717b3          	sll	a5,a4,a5
    4de2:	00f8e8b3          	or	a7,a7,a5
    4de6:	011036b3          	snez	a3,a7
    4dea:	8ed1                	or	a3,a3,a2
    4dec:	0076f613          	andi	a2,a3,7
    4df0:	4781                	li	a5,0
    4df2:	ce01                	beqz	a2,4e0a <__divdf3+0x54e>
    4df4:	00f6f793          	andi	a5,a3,15
    4df8:	4611                	li	a2,4
    4dfa:	4701                	li	a4,0
    4dfc:	fac792e3          	bne	a5,a2,4da0 <__divdf3+0x4e4>
    4e00:	00971793          	slli	a5,a4,0x9
    4e04:	01d71613          	slli	a2,a4,0x1d
    4e08:	83b1                	srli	a5,a5,0xc
    4e0a:	0036d713          	srli	a4,a3,0x3
    4e0e:	8f51                	or	a4,a4,a2
    4e10:	4601                	li	a2,0
    4e12:	bea5                	j	498a <__divdf3+0xce>
    4e14:	f0cb70e3          	bgeu	s6,a2,4d14 <__divdf3+0x458>
    4e18:	9b72                	add	s6,s6,t3
    4e1a:	01cb3533          	sltu	a0,s6,t3
    4e1e:	951a                	add	a0,a0,t1
    4e20:	1779                	addi	a4,a4,-2
    4e22:	96aa                	add	a3,a3,a0
    4e24:	bb5d                	j	4bda <__divdf3+0x31e>
    4e26:	88ae                	mv	a7,a1
    4e28:	bbd5                	j	4c1c <__divdf3+0x360>
    4e2a:	86ae                	mv	a3,a1
    4e2c:	b505                	j	4c4c <__divdf3+0x390>
    4e2e:	001e1793          	slli	a5,t3,0x1
    4e32:	01c7be33          	sltu	t3,a5,t3
    4e36:	9372                	add	t1,t1,t3
    4e38:	961a                	add	a2,a2,t1
    4e3a:	18f9                	addi	a7,a7,-2
    4e3c:	8e3e                	mv	t3,a5
    4e3e:	e7f617e3          	bne	a2,t6,4cac <__divdf3+0x3f0>
    4e42:	c6de09e3          	beq	t3,a3,4ab4 <__divdf3+0x1f8>
    4e46:	0018e893          	ori	a7,a7,1
    4e4a:	b1ad                	j	4ab4 <__divdf3+0x1f8>
    4e4c:	88be                	mv	a7,a5
    4e4e:	fff60ae3          	beq	a2,t6,4e42 <__divdf3+0x586>
    4e52:	bda9                	j	4cac <__divdf3+0x3f0>
    4e54:	8836                	mv	a6,a3
    4e56:	7ff00613          	li	a2,2047
    4e5a:	4781                	li	a5,0
    4e5c:	4701                	li	a4,0
    4e5e:	b635                	j	498a <__divdf3+0xce>
    4e60:	fcde67e3          	bltu	t3,a3,4e2e <__divdf3+0x572>
    4e64:	88be                	mv	a7,a5
    4e66:	fede10e3          	bne	t3,a3,4e46 <__divdf3+0x58a>
    4e6a:	b1a9                	j	4ab4 <__divdf3+0x1f8>

00004e6c <__muldf3>:
__muldf3():
    4e6c:	7139                	addi	sp,sp,-64
    4e6e:	d84a                	sw	s2,48(sp)
    4e70:	0145d913          	srli	s2,a1,0x14
    4e74:	d64e                	sw	s3,44(sp)
    4e76:	d452                	sw	s4,40(sp)
    4e78:	d256                	sw	s5,36(sp)
    4e7a:	00c59993          	slli	s3,a1,0xc
    4e7e:	de06                	sw	ra,60(sp)
    4e80:	dc22                	sw	s0,56(sp)
    4e82:	da26                	sw	s1,52(sp)
    4e84:	d05a                	sw	s6,32(sp)
    4e86:	ce5e                	sw	s7,28(sp)
    4e88:	7ff97913          	andi	s2,s2,2047
    4e8c:	8a2a                	mv	s4,a0
    4e8e:	00c9d993          	srli	s3,s3,0xc
    4e92:	01f5da93          	srli	s5,a1,0x1f
    4e96:	0e090d63          	beqz	s2,4f90 <__muldf3+0x124>
    4e9a:	7ff00793          	li	a5,2047
    4e9e:	18f90463          	beq	s2,a5,5026 <__muldf3+0x1ba>
    4ea2:	01d55413          	srli	s0,a0,0x1d
    4ea6:	098e                	slli	s3,s3,0x3
    4ea8:	013469b3          	or	s3,s0,s3
    4eac:	00800437          	lui	s0,0x800
    4eb0:	0089e433          	or	s0,s3,s0
    4eb4:	00351493          	slli	s1,a0,0x3
    4eb8:	c0190913          	addi	s2,s2,-1023
    4ebc:	4981                	li	s3,0
    4ebe:	4b81                	li	s7,0
    4ec0:	0146d713          	srli	a4,a3,0x14
    4ec4:	00c69a13          	slli	s4,a3,0xc
    4ec8:	7ff77713          	andi	a4,a4,2047
    4ecc:	85b2                	mv	a1,a2
    4ece:	00ca5a13          	srli	s4,s4,0xc
    4ed2:	01f6db13          	srli	s6,a3,0x1f
    4ed6:	10070a63          	beqz	a4,4fea <__muldf3+0x17e>
    4eda:	7ff00793          	li	a5,2047
    4ede:	04f70363          	beq	a4,a5,4f24 <__muldf3+0xb8>
    4ee2:	01d65793          	srli	a5,a2,0x1d
    4ee6:	0a0e                	slli	s4,s4,0x3
    4ee8:	0147ea33          	or	s4,a5,s4
    4eec:	c0170713          	addi	a4,a4,-1023
    4ef0:	008007b7          	lui	a5,0x800
    4ef4:	00fa67b3          	or	a5,s4,a5
    4ef8:	00361593          	slli	a1,a2,0x3
    4efc:	993a                	add	s2,s2,a4
    4efe:	4881                	li	a7,0
    4f00:	016ac733          	xor	a4,s5,s6
    4f04:	46bd                	li	a3,15
    4f06:	853a                	mv	a0,a4
    4f08:	00190813          	addi	a6,s2,1
    4f0c:	1736e663          	bltu	a3,s3,5078 <__muldf3+0x20c>
    4f10:	00002617          	auipc	a2,0x2
    4f14:	b5060613          	addi	a2,a2,-1200 # 6a60 <UARTN+0x50>
    4f18:	098a                	slli	s3,s3,0x2
    4f1a:	99b2                	add	s3,s3,a2
    4f1c:	0009a683          	lw	a3,0(s3)
    4f20:	96b2                	add	a3,a3,a2
    4f22:	8682                	jr	a3
    4f24:	00ca67b3          	or	a5,s4,a2
    4f28:	7ff90913          	addi	s2,s2,2047
    4f2c:	12079763          	bnez	a5,505a <__muldf3+0x1ee>
    4f30:	0029e993          	ori	s3,s3,2
    4f34:	4581                	li	a1,0
    4f36:	4889                	li	a7,2
    4f38:	b7e1                	j	4f00 <__muldf3+0x94>
    4f3a:	4701                	li	a4,0
    4f3c:	7ff00793          	li	a5,2047
    4f40:	00080437          	lui	s0,0x80
    4f44:	4481                	li	s1,0
    4f46:	0432                	slli	s0,s0,0xc
    4f48:	07d2                	slli	a5,a5,0x14
    4f4a:	8031                	srli	s0,s0,0xc
    4f4c:	077e                	slli	a4,a4,0x1f
    4f4e:	8c5d                	or	s0,s0,a5
    4f50:	8c59                	or	s0,s0,a4
    4f52:	85a2                	mv	a1,s0
    4f54:	50f2                	lw	ra,60(sp)
    4f56:	5462                	lw	s0,56(sp)
    4f58:	8526                	mv	a0,s1
    4f5a:	5942                	lw	s2,48(sp)
    4f5c:	54d2                	lw	s1,52(sp)
    4f5e:	59b2                	lw	s3,44(sp)
    4f60:	5a22                	lw	s4,40(sp)
    4f62:	5a92                	lw	s5,36(sp)
    4f64:	5b02                	lw	s6,32(sp)
    4f66:	4bf2                	lw	s7,28(sp)
    4f68:	6121                	addi	sp,sp,64
    4f6a:	8082                	ret
    4f6c:	855a                	mv	a0,s6
    4f6e:	843e                	mv	s0,a5
    4f70:	84ae                	mv	s1,a1
    4f72:	8bc6                	mv	s7,a7
    4f74:	4789                	li	a5,2
    4f76:	0efb8b63          	beq	s7,a5,506c <__muldf3+0x200>
    4f7a:	478d                	li	a5,3
    4f7c:	fafb8fe3          	beq	s7,a5,4f3a <__muldf3+0xce>
    4f80:	4785                	li	a5,1
    4f82:	872a                	mv	a4,a0
    4f84:	38fb9a63          	bne	s7,a5,5318 <__muldf3+0x4ac>
    4f88:	4781                	li	a5,0
    4f8a:	4401                	li	s0,0
    4f8c:	4481                	li	s1,0
    4f8e:	bf65                	j	4f46 <__muldf3+0xda>
    4f90:	00a9e433          	or	s0,s3,a0
    4f94:	cc55                	beqz	s0,5050 <__muldf3+0x1e4>
    4f96:	c636                	sw	a3,12(sp)
    4f98:	c432                	sw	a2,8(sp)
    4f9a:	2a098963          	beqz	s3,524c <__muldf3+0x3e0>
    4f9e:	854e                	mv	a0,s3
    4fa0:	2991                	jal	53f4 <__clzsi2>
    4fa2:	4622                	lw	a2,8(sp)
    4fa4:	46b2                	lw	a3,12(sp)
    4fa6:	87aa                	mv	a5,a0
    4fa8:	ff550713          	addi	a4,a0,-11
    4fac:	4475                	li	s0,29
    4fae:	ff878493          	addi	s1,a5,-8 # 7ffff8 <_data_lma+0x7f937c>
    4fb2:	8c19                	sub	s0,s0,a4
    4fb4:	009999b3          	sll	s3,s3,s1
    4fb8:	008a5433          	srl	s0,s4,s0
    4fbc:	01346433          	or	s0,s0,s3
    4fc0:	009a14b3          	sll	s1,s4,s1
    4fc4:	0146d713          	srli	a4,a3,0x14
    4fc8:	c0d00913          	li	s2,-1011
    4fcc:	00c69a13          	slli	s4,a3,0xc
    4fd0:	7ff77713          	andi	a4,a4,2047
    4fd4:	40f90933          	sub	s2,s2,a5
    4fd8:	4981                	li	s3,0
    4fda:	4b81                	li	s7,0
    4fdc:	85b2                	mv	a1,a2
    4fde:	00ca5a13          	srli	s4,s4,0xc
    4fe2:	01f6db13          	srli	s6,a3,0x1f
    4fe6:	ee071ae3          	bnez	a4,4eda <__muldf3+0x6e>
    4fea:	00ca67b3          	or	a5,s4,a2
    4fee:	c7a9                	beqz	a5,5038 <__muldf3+0x1cc>
    4ff0:	220a0e63          	beqz	s4,522c <__muldf3+0x3c0>
    4ff4:	8552                	mv	a0,s4
    4ff6:	c432                	sw	a2,8(sp)
    4ff8:	2ef5                	jal	53f4 <__clzsi2>
    4ffa:	4622                	lw	a2,8(sp)
    4ffc:	872a                	mv	a4,a0
    4ffe:	ff550693          	addi	a3,a0,-11
    5002:	47f5                	li	a5,29
    5004:	ff870593          	addi	a1,a4,-8
    5008:	8f95                	sub	a5,a5,a3
    500a:	00ba1a33          	sll	s4,s4,a1
    500e:	00f657b3          	srl	a5,a2,a5
    5012:	0147e7b3          	or	a5,a5,s4
    5016:	00b615b3          	sll	a1,a2,a1
    501a:	40e90933          	sub	s2,s2,a4
    501e:	c0d90913          	addi	s2,s2,-1011
    5022:	4881                	li	a7,0
    5024:	bdf1                	j	4f00 <__muldf3+0x94>
    5026:	00a9e433          	or	s0,s3,a0
    502a:	ec01                	bnez	s0,5042 <__muldf3+0x1d6>
    502c:	49a1                	li	s3,8
    502e:	4481                	li	s1,0
    5030:	7ff00913          	li	s2,2047
    5034:	4b89                	li	s7,2
    5036:	b569                	j	4ec0 <__muldf3+0x54>
    5038:	0019e993          	ori	s3,s3,1
    503c:	4581                	li	a1,0
    503e:	4885                	li	a7,1
    5040:	b5c1                	j	4f00 <__muldf3+0x94>
    5042:	844e                	mv	s0,s3
    5044:	84aa                	mv	s1,a0
    5046:	49b1                	li	s3,12
    5048:	7ff00913          	li	s2,2047
    504c:	4b8d                	li	s7,3
    504e:	bd8d                	j	4ec0 <__muldf3+0x54>
    5050:	4991                	li	s3,4
    5052:	4481                	li	s1,0
    5054:	4901                	li	s2,0
    5056:	4b85                	li	s7,1
    5058:	b5a5                	j	4ec0 <__muldf3+0x54>
    505a:	0039e993          	ori	s3,s3,3
    505e:	87d2                	mv	a5,s4
    5060:	488d                	li	a7,3
    5062:	bd79                	j	4f00 <__muldf3+0x94>
    5064:	4789                	li	a5,2
    5066:	8556                	mv	a0,s5
    5068:	f0fb99e3          	bne	s7,a5,4f7a <__muldf3+0x10e>
    506c:	872a                	mv	a4,a0
    506e:	7ff00793          	li	a5,2047
    5072:	4401                	li	s0,0
    5074:	4481                	li	s1,0
    5076:	bdc1                	j	4f46 <__muldf3+0xda>
    5078:	6ec1                	lui	t4,0x10
    507a:	fffe8613          	addi	a2,t4,-1 # ffff <_data_lma+0x9383>
    507e:	0104d693          	srli	a3,s1,0x10
    5082:	0105de13          	srli	t3,a1,0x10
    5086:	8cf1                	and	s1,s1,a2
    5088:	8df1                	and	a1,a1,a2
    508a:	02958633          	mul	a2,a1,s1
    508e:	02b68333          	mul	t1,a3,a1
    5092:	01065893          	srli	a7,a2,0x10
    5096:	029e0533          	mul	a0,t3,s1
    509a:	951a                	add	a0,a0,t1
    509c:	98aa                	add	a7,a7,a0
    509e:	03c682b3          	mul	t0,a3,t3
    50a2:	0068f363          	bgeu	a7,t1,50a8 <__muldf3+0x23c>
    50a6:	92f6                	add	t0,t0,t4
    50a8:	6fc1                	lui	t6,0x10
    50aa:	ffff8313          	addi	t1,t6,-1 # ffff <_data_lma+0x9383>
    50ae:	0067f533          	and	a0,a5,t1
    50b2:	0107d393          	srli	t2,a5,0x10
    50b6:	0068f7b3          	and	a5,a7,t1
    50ba:	07c2                	slli	a5,a5,0x10
    50bc:	00667333          	and	t1,a2,t1
    50c0:	933e                	add	t1,t1,a5
    50c2:	02950633          	mul	a2,a0,s1
    50c6:	0108d893          	srli	a7,a7,0x10
    50ca:	02a687b3          	mul	a5,a3,a0
    50ce:	01065f13          	srli	t5,a2,0x10
    50d2:	029384b3          	mul	s1,t2,s1
    50d6:	94be                	add	s1,s1,a5
    50d8:	94fa                	add	s1,s1,t5
    50da:	02768eb3          	mul	t4,a3,t2
    50de:	00f4f363          	bgeu	s1,a5,50e4 <__muldf3+0x278>
    50e2:	9efe                	add	t4,t4,t6
    50e4:	6a41                	lui	s4,0x10
    50e6:	fffa0793          	addi	a5,s4,-1 # ffff <_data_lma+0x9383>
    50ea:	01045f93          	srli	t6,s0,0x10
    50ee:	00f476b3          	and	a3,s0,a5
    50f2:	00f4f9b3          	and	s3,s1,a5
    50f6:	8e7d                	and	a2,a2,a5
    50f8:	80c1                	srli	s1,s1,0x10
    50fa:	02d58433          	mul	s0,a1,a3
    50fe:	09c2                	slli	s3,s3,0x10
    5100:	01d48f33          	add	t5,s1,t4
    5104:	99b2                	add	s3,s3,a2
    5106:	98ce                	add	a7,a7,s3
    5108:	02de07b3          	mul	a5,t3,a3
    510c:	01045e93          	srli	t4,s0,0x10
    5110:	02bf85b3          	mul	a1,t6,a1
    5114:	97ae                	add	a5,a5,a1
    5116:	9ebe                	add	t4,t4,a5
    5118:	03fe0e33          	mul	t3,t3,t6
    511c:	00bef363          	bgeu	t4,a1,5122 <__muldf3+0x2b6>
    5120:	9e52                	add	t3,t3,s4
    5122:	67c1                	lui	a5,0x10
    5124:	fff78593          	addi	a1,a5,-1 # ffff <_data_lma+0x9383>
    5128:	00bef633          	and	a2,t4,a1
    512c:	8c6d                	and	s0,s0,a1
    512e:	0642                	slli	a2,a2,0x10
    5130:	9622                	add	a2,a2,s0
    5132:	010ede93          	srli	t4,t4,0x10
    5136:	02d505b3          	mul	a1,a0,a3
    513a:	9e76                	add	t3,t3,t4
    513c:	02af8533          	mul	a0,t6,a0
    5140:	0105d413          	srli	s0,a1,0x10
    5144:	02d386b3          	mul	a3,t2,a3
    5148:	96aa                	add	a3,a3,a0
    514a:	96a2                	add	a3,a3,s0
    514c:	03f38fb3          	mul	t6,t2,t6
    5150:	00a6f363          	bgeu	a3,a0,5156 <__muldf3+0x2ea>
    5154:	9fbe                	add	t6,t6,a5
    5156:	6541                	lui	a0,0x10
    5158:	157d                	addi	a0,a0,-1
    515a:	00a6f7b3          	and	a5,a3,a0
    515e:	07c2                	slli	a5,a5,0x10
    5160:	8d6d                	and	a0,a0,a1
    5162:	97aa                	add	a5,a5,a0
    5164:	005885b3          	add	a1,a7,t0
    5168:	0135b9b3          	sltu	s3,a1,s3
    516c:	97fa                	add	a5,a5,t5
    516e:	95b2                	add	a1,a1,a2
    5170:	01378433          	add	s0,a5,s3
    5174:	00c5b633          	sltu	a2,a1,a2
    5178:	01c40eb3          	add	t4,s0,t3
    517c:	00ce8533          	add	a0,t4,a2
    5180:	01343433          	sltu	s0,s0,s3
    5184:	01e7b7b3          	sltu	a5,a5,t5
    5188:	8fc1                	or	a5,a5,s0
    518a:	01cebe33          	sltu	t3,t4,t3
    518e:	0106d413          	srli	s0,a3,0x10
    5192:	00c53633          	sltu	a2,a0,a2
    5196:	943e                	add	s0,s0,a5
    5198:	00ce6633          	or	a2,t3,a2
    519c:	00959493          	slli	s1,a1,0x9
    51a0:	9432                	add	s0,s0,a2
    51a2:	947e                	add	s0,s0,t6
    51a4:	0064e4b3          	or	s1,s1,t1
    51a8:	0426                	slli	s0,s0,0x9
    51aa:	01755693          	srli	a3,a0,0x17
    51ae:	009034b3          	snez	s1,s1
    51b2:	81dd                	srli	a1,a1,0x17
    51b4:	00951793          	slli	a5,a0,0x9
    51b8:	8ccd                	or	s1,s1,a1
    51ba:	8c55                	or	s0,s0,a3
    51bc:	8cdd                	or	s1,s1,a5
    51be:	00741793          	slli	a5,s0,0x7
    51c2:	0007db63          	bgez	a5,51d8 <__muldf3+0x36c>
    51c6:	0014d793          	srli	a5,s1,0x1
    51ca:	8885                	andi	s1,s1,1
    51cc:	01f41693          	slli	a3,s0,0x1f
    51d0:	8cdd                	or	s1,s1,a5
    51d2:	8cd5                	or	s1,s1,a3
    51d4:	8005                	srli	s0,s0,0x1
    51d6:	8942                	mv	s2,a6
    51d8:	3ff90793          	addi	a5,s2,1023
    51dc:	08f05763          	blez	a5,526a <__muldf3+0x3fe>
    51e0:	0074f693          	andi	a3,s1,7
    51e4:	ce81                	beqz	a3,51fc <__muldf3+0x390>
    51e6:	00f4f693          	andi	a3,s1,15
    51ea:	4611                	li	a2,4
    51ec:	00c68863          	beq	a3,a2,51fc <__muldf3+0x390>
    51f0:	00448693          	addi	a3,s1,4
    51f4:	0096b4b3          	sltu	s1,a3,s1
    51f8:	9426                	add	s0,s0,s1
    51fa:	84b6                	mv	s1,a3
    51fc:	00741693          	slli	a3,s0,0x7
    5200:	0006d863          	bgez	a3,5210 <__muldf3+0x3a4>
    5204:	ff0007b7          	lui	a5,0xff000
    5208:	17fd                	addi	a5,a5,-1
    520a:	8c7d                	and	s0,s0,a5
    520c:	40090793          	addi	a5,s2,1024
    5210:	7fe00693          	li	a3,2046
    5214:	0ef6cd63          	blt	a3,a5,530e <__muldf3+0x4a2>
    5218:	0034d693          	srli	a3,s1,0x3
    521c:	01d41493          	slli	s1,s0,0x1d
    5220:	0426                	slli	s0,s0,0x9
    5222:	8cd5                	or	s1,s1,a3
    5224:	8031                	srli	s0,s0,0xc
    5226:	7ff7f793          	andi	a5,a5,2047
    522a:	bb31                	j	4f46 <__muldf3+0xda>
    522c:	8532                	mv	a0,a2
    522e:	c432                	sw	a2,8(sp)
    5230:	22d1                	jal	53f4 <__clzsi2>
    5232:	01550693          	addi	a3,a0,21 # 10015 <_data_lma+0x9399>
    5236:	47f1                	li	a5,28
    5238:	02050713          	addi	a4,a0,32
    523c:	4622                	lw	a2,8(sp)
    523e:	dcd7d2e3          	bge	a5,a3,5002 <__muldf3+0x196>
    5242:	1561                	addi	a0,a0,-8
    5244:	00a617b3          	sll	a5,a2,a0
    5248:	4581                	li	a1,0
    524a:	bbc1                	j	501a <__muldf3+0x1ae>
    524c:	2265                	jal	53f4 <__clzsi2>
    524e:	01550713          	addi	a4,a0,21
    5252:	45f1                	li	a1,28
    5254:	02050793          	addi	a5,a0,32
    5258:	4622                	lw	a2,8(sp)
    525a:	46b2                	lw	a3,12(sp)
    525c:	d4e5d8e3          	bge	a1,a4,4fac <__muldf3+0x140>
    5260:	1561                	addi	a0,a0,-8
    5262:	00aa1433          	sll	s0,s4,a0
    5266:	4481                	li	s1,0
    5268:	bbb1                	j	4fc4 <__muldf3+0x158>
    526a:	4685                	li	a3,1
    526c:	8e9d                	sub	a3,a3,a5
    526e:	e7b1                	bnez	a5,52ba <__muldf3+0x44e>
    5270:	41e90913          	addi	s2,s2,1054
    5274:	012497b3          	sll	a5,s1,s2
    5278:	00d4d4b3          	srl	s1,s1,a3
    527c:	01241933          	sll	s2,s0,s2
    5280:	00f037b3          	snez	a5,a5
    5284:	009964b3          	or	s1,s2,s1
    5288:	8cdd                	or	s1,s1,a5
    528a:	0074f793          	andi	a5,s1,7
    528e:	00d456b3          	srl	a3,s0,a3
    5292:	cf81                	beqz	a5,52aa <__muldf3+0x43e>
    5294:	00f4f793          	andi	a5,s1,15
    5298:	4611                	li	a2,4
    529a:	00c78863          	beq	a5,a2,52aa <__muldf3+0x43e>
    529e:	00448793          	addi	a5,s1,4
    52a2:	0097b4b3          	sltu	s1,a5,s1
    52a6:	96a6                	add	a3,a3,s1
    52a8:	84be                	mv	s1,a5
    52aa:	00869793          	slli	a5,a3,0x8
    52ae:	0407d863          	bgez	a5,52fe <__muldf3+0x492>
    52b2:	4785                	li	a5,1
    52b4:	4401                	li	s0,0
    52b6:	4481                	li	s1,0
    52b8:	b179                	j	4f46 <__muldf3+0xda>
    52ba:	03800613          	li	a2,56
    52be:	ccd645e3          	blt	a2,a3,4f88 <__muldf3+0x11c>
    52c2:	467d                	li	a2,31
    52c4:	fad656e3          	bge	a2,a3,5270 <__muldf3+0x404>
    52c8:	5605                	li	a2,-31
    52ca:	40f607b3          	sub	a5,a2,a5
    52ce:	02000593          	li	a1,32
    52d2:	00f45633          	srl	a2,s0,a5
    52d6:	00b68763          	beq	a3,a1,52e4 <__muldf3+0x478>
    52da:	43e90913          	addi	s2,s2,1086
    52de:	012417b3          	sll	a5,s0,s2
    52e2:	8cdd                	or	s1,s1,a5
    52e4:	009034b3          	snez	s1,s1
    52e8:	8cd1                	or	s1,s1,a2
    52ea:	0074f693          	andi	a3,s1,7
    52ee:	4401                	li	s0,0
    52f0:	ca99                	beqz	a3,5306 <__muldf3+0x49a>
    52f2:	00f4f793          	andi	a5,s1,15
    52f6:	4611                	li	a2,4
    52f8:	4681                	li	a3,0
    52fa:	fac792e3          	bne	a5,a2,529e <__muldf3+0x432>
    52fe:	00969413          	slli	s0,a3,0x9
    5302:	8031                	srli	s0,s0,0xc
    5304:	06f6                	slli	a3,a3,0x1d
    5306:	808d                	srli	s1,s1,0x3
    5308:	8cd5                	or	s1,s1,a3
    530a:	4781                	li	a5,0
    530c:	b92d                	j	4f46 <__muldf3+0xda>
    530e:	7ff00793          	li	a5,2047
    5312:	4401                	li	s0,0
    5314:	4481                	li	s1,0
    5316:	b905                	j	4f46 <__muldf3+0xda>
    5318:	8942                	mv	s2,a6
    531a:	bd7d                	j	51d8 <__muldf3+0x36c>

0000531c <__fixdfsi>:
__fixdfsi():
    531c:	0145d793          	srli	a5,a1,0x14
    5320:	001006b7          	lui	a3,0x100
    5324:	fff68713          	addi	a4,a3,-1 # fffff <_data_lma+0xf9383>
    5328:	7ff7f793          	andi	a5,a5,2047
    532c:	3fe00613          	li	a2,1022
    5330:	8f6d                	and	a4,a4,a1
    5332:	81fd                	srli	a1,a1,0x1f
    5334:	00f65c63          	bge	a2,a5,534c <__fixdfsi+0x30>
    5338:	41d00613          	li	a2,1053
    533c:	00f65a63          	bge	a2,a5,5350 <__fixdfsi+0x34>
    5340:	80000537          	lui	a0,0x80000
    5344:	fff54513          	not	a0,a0
    5348:	952e                	add	a0,a0,a1
    534a:	8082                	ret
    534c:	4501                	li	a0,0
    534e:	8082                	ret
    5350:	43300613          	li	a2,1075
    5354:	8e1d                	sub	a2,a2,a5
    5356:	487d                	li	a6,31
    5358:	8f55                	or	a4,a4,a3
    535a:	00c85d63          	bge	a6,a2,5374 <__fixdfsi+0x58>
    535e:	41300693          	li	a3,1043
    5362:	40f687b3          	sub	a5,a3,a5
    5366:	00f757b3          	srl	a5,a4,a5
    536a:	40f00533          	neg	a0,a5
    536e:	f1e5                	bnez	a1,534e <__fixdfsi+0x32>
    5370:	853e                	mv	a0,a5
    5372:	8082                	ret
    5374:	bed78793          	addi	a5,a5,-1043 # fefffbed <_eusrstack+0xdeffabed>
    5378:	00f717b3          	sll	a5,a4,a5
    537c:	00c55533          	srl	a0,a0,a2
    5380:	8fc9                	or	a5,a5,a0
    5382:	b7e5                	j	536a <__fixdfsi+0x4e>

00005384 <__floatsidf>:
__floatsidf():
    5384:	1141                	addi	sp,sp,-16
    5386:	c606                	sw	ra,12(sp)
    5388:	c422                	sw	s0,8(sp)
    538a:	c226                	sw	s1,4(sp)
    538c:	cd05                	beqz	a0,53c4 <__floatsidf+0x40>
    538e:	41f55793          	srai	a5,a0,0x1f
    5392:	00a7c4b3          	xor	s1,a5,a0
    5396:	8c9d                	sub	s1,s1,a5
    5398:	842a                	mv	s0,a0
    539a:	8526                	mv	a0,s1
    539c:	28a1                	jal	53f4 <__clzsi2>
    539e:	41e00693          	li	a3,1054
    53a2:	8e89                	sub	a3,a3,a0
    53a4:	47a9                	li	a5,10
    53a6:	807d                	srli	s0,s0,0x1f
    53a8:	7ff6f693          	andi	a3,a3,2047
    53ac:	02a7cd63          	blt	a5,a0,53e6 <__floatsidf+0x62>
    53b0:	472d                	li	a4,11
    53b2:	8f09                	sub	a4,a4,a0
    53b4:	00e4d7b3          	srl	a5,s1,a4
    53b8:	0555                	addi	a0,a0,21
    53ba:	07b2                	slli	a5,a5,0xc
    53bc:	00a494b3          	sll	s1,s1,a0
    53c0:	83b1                	srli	a5,a5,0xc
    53c2:	a029                	j	53cc <__floatsidf+0x48>
    53c4:	4401                	li	s0,0
    53c6:	4681                	li	a3,0
    53c8:	4781                	li	a5,0
    53ca:	4481                	li	s1,0
    53cc:	07b2                	slli	a5,a5,0xc
    53ce:	06d2                	slli	a3,a3,0x14
    53d0:	83b1                	srli	a5,a5,0xc
    53d2:	047e                	slli	s0,s0,0x1f
    53d4:	8fd5                	or	a5,a5,a3
    53d6:	8fc1                	or	a5,a5,s0
    53d8:	40b2                	lw	ra,12(sp)
    53da:	4422                	lw	s0,8(sp)
    53dc:	8526                	mv	a0,s1
    53de:	85be                	mv	a1,a5
    53e0:	4492                	lw	s1,4(sp)
    53e2:	0141                	addi	sp,sp,16
    53e4:	8082                	ret
    53e6:	1555                	addi	a0,a0,-11
    53e8:	00a497b3          	sll	a5,s1,a0
    53ec:	07b2                	slli	a5,a5,0xc
    53ee:	83b1                	srli	a5,a5,0xc
    53f0:	4481                	li	s1,0
    53f2:	bfe9                	j	53cc <__floatsidf+0x48>

000053f4 <__clzsi2>:
__clzsi2():
    53f4:	67c1                	lui	a5,0x10
    53f6:	02f57e63          	bgeu	a0,a5,5432 <__clzsi2+0x3e>
    53fa:	0ff00793          	li	a5,255
    53fe:	02000713          	li	a4,32
    5402:	00a7ec63          	bltu	a5,a0,541a <__clzsi2+0x26>
    5406:	00001797          	auipc	a5,0x1
    540a:	69a78793          	addi	a5,a5,1690 # 6aa0 <__clz_tab>
    540e:	97aa                	add	a5,a5,a0
    5410:	0007c503          	lbu	a0,0(a5)
    5414:	40a70533          	sub	a0,a4,a0
    5418:	8082                	ret
    541a:	8121                	srli	a0,a0,0x8
    541c:	00001797          	auipc	a5,0x1
    5420:	68478793          	addi	a5,a5,1668 # 6aa0 <__clz_tab>
    5424:	97aa                	add	a5,a5,a0
    5426:	0007c503          	lbu	a0,0(a5)
    542a:	4761                	li	a4,24
    542c:	40a70533          	sub	a0,a4,a0
    5430:	8082                	ret
    5432:	010007b7          	lui	a5,0x1000
    5436:	00f56e63          	bltu	a0,a5,5452 <__clzsi2+0x5e>
    543a:	8161                	srli	a0,a0,0x18
    543c:	00001797          	auipc	a5,0x1
    5440:	66478793          	addi	a5,a5,1636 # 6aa0 <__clz_tab>
    5444:	97aa                	add	a5,a5,a0
    5446:	0007c503          	lbu	a0,0(a5)
    544a:	4721                	li	a4,8
    544c:	40a70533          	sub	a0,a4,a0
    5450:	8082                	ret
    5452:	8141                	srli	a0,a0,0x10
    5454:	00001797          	auipc	a5,0x1
    5458:	64c78793          	addi	a5,a5,1612 # 6aa0 <__clz_tab>
    545c:	97aa                	add	a5,a5,a0
    545e:	0007c503          	lbu	a0,0(a5)
    5462:	4741                	li	a4,16
    5464:	40a70533          	sub	a0,a4,a0
    5468:	8082                	ret

0000546a <__assert_func>:
__assert_func():
    546a:	80818793          	addi	a5,gp,-2040 # 20000090 <_impure_ptr>
    546e:	439c                	lw	a5,0(a5)
    5470:	1141                	addi	sp,sp,-16
    5472:	8832                	mv	a6,a2
    5474:	c606                	sw	ra,12(sp)
    5476:	88aa                	mv	a7,a0
    5478:	872e                	mv	a4,a1
    547a:	47c8                	lw	a0,12(a5)
    547c:	8636                	mv	a2,a3
    547e:	00001797          	auipc	a5,0x1
    5482:	72278793          	addi	a5,a5,1826 # 6ba0 <__clz_tab+0x100>
    5486:	00081763          	bnez	a6,5494 <__assert_func+0x2a>
    548a:	00001797          	auipc	a5,0x1
    548e:	72278793          	addi	a5,a5,1826 # 6bac <__clz_tab+0x10c>
    5492:	883e                	mv	a6,a5
    5494:	86c6                	mv	a3,a7
    5496:	00001597          	auipc	a1,0x1
    549a:	71a58593          	addi	a1,a1,1818 # 6bb0 <__clz_tab+0x110>
    549e:	2019                	jal	54a4 <fiprintf>
    54a0:	0b3000ef          	jal	ra,5d52 <abort>

000054a4 <fiprintf>:
fprintf():
    54a4:	7139                	addi	sp,sp,-64
    54a6:	d432                	sw	a2,40(sp)
    54a8:	d636                	sw	a3,44(sp)
    54aa:	da3e                	sw	a5,52(sp)
    54ac:	d83a                	sw	a4,48(sp)
    54ae:	dc42                	sw	a6,56(sp)
    54b0:	de46                	sw	a7,60(sp)
    54b2:	80818793          	addi	a5,gp,-2040 # 20000090 <_impure_ptr>
    54b6:	862e                	mv	a2,a1
    54b8:	85aa                	mv	a1,a0
    54ba:	4388                	lw	a0,0(a5)
    54bc:	1034                	addi	a3,sp,40
    54be:	ce06                	sw	ra,28(sp)
    54c0:	c636                	sw	a3,12(sp)
    54c2:	2895                	jal	5536 <_vfiprintf_r>
    54c4:	40f2                	lw	ra,28(sp)
    54c6:	6121                	addi	sp,sp,64
    54c8:	8082                	ret

000054ca <__sfputc_r>:
__sfputc_r():
    54ca:	461c                	lw	a5,8(a2)
    54cc:	17fd                	addi	a5,a5,-1
    54ce:	c61c                	sw	a5,8(a2)
    54d0:	0007d963          	bgez	a5,54e2 <__sfputc_r+0x18>
    54d4:	4e18                	lw	a4,24(a2)
    54d6:	00e7c563          	blt	a5,a4,54e0 <__sfputc_r+0x16>
    54da:	47a9                	li	a5,10
    54dc:	00f59363          	bne	a1,a5,54e2 <__sfputc_r+0x18>
    54e0:	a55d                	j	5b86 <__swbuf_r>
    54e2:	421c                	lw	a5,0(a2)
    54e4:	852e                	mv	a0,a1
    54e6:	00178713          	addi	a4,a5,1
    54ea:	c218                	sw	a4,0(a2)
    54ec:	00b78023          	sb	a1,0(a5)
    54f0:	8082                	ret

000054f2 <__sfputs_r>:
__sfputs_r():
    54f2:	1101                	addi	sp,sp,-32
    54f4:	cc22                	sw	s0,24(sp)
    54f6:	ca26                	sw	s1,20(sp)
    54f8:	c84a                	sw	s2,16(sp)
    54fa:	c64e                	sw	s3,12(sp)
    54fc:	c452                	sw	s4,8(sp)
    54fe:	ce06                	sw	ra,28(sp)
    5500:	892a                	mv	s2,a0
    5502:	89ae                	mv	s3,a1
    5504:	8432                	mv	s0,a2
    5506:	00d604b3          	add	s1,a2,a3
    550a:	5a7d                	li	s4,-1
    550c:	00941463          	bne	s0,s1,5514 <__sfputs_r+0x22>
    5510:	4501                	li	a0,0
    5512:	a811                	j	5526 <__sfputs_r+0x34>
    5514:	00044583          	lbu	a1,0(s0) # 80000 <_data_lma+0x79384>
    5518:	864e                	mv	a2,s3
    551a:	854a                	mv	a0,s2
    551c:	fafff0ef          	jal	ra,54ca <__sfputc_r>
    5520:	0405                	addi	s0,s0,1
    5522:	ff4515e3          	bne	a0,s4,550c <__sfputs_r+0x1a>
    5526:	40f2                	lw	ra,28(sp)
    5528:	4462                	lw	s0,24(sp)
    552a:	44d2                	lw	s1,20(sp)
    552c:	4942                	lw	s2,16(sp)
    552e:	49b2                	lw	s3,12(sp)
    5530:	4a22                	lw	s4,8(sp)
    5532:	6105                	addi	sp,sp,32
    5534:	8082                	ret

00005536 <_vfiprintf_r>:
_vfiprintf_r():
    5536:	7135                	addi	sp,sp,-160
    5538:	cd22                	sw	s0,152(sp)
    553a:	cb26                	sw	s1,148(sp)
    553c:	c94a                	sw	s2,144(sp)
    553e:	c74e                	sw	s3,140(sp)
    5540:	cf06                	sw	ra,156(sp)
    5542:	c552                	sw	s4,136(sp)
    5544:	c356                	sw	s5,132(sp)
    5546:	c15a                	sw	s6,128(sp)
    5548:	dede                	sw	s7,124(sp)
    554a:	dce2                	sw	s8,120(sp)
    554c:	dae6                	sw	s9,116(sp)
    554e:	89aa                	mv	s3,a0
    5550:	84ae                	mv	s1,a1
    5552:	8932                	mv	s2,a2
    5554:	8436                	mv	s0,a3
    5556:	c509                	beqz	a0,5560 <_vfiprintf_r+0x2a>
    5558:	4d1c                	lw	a5,24(a0)
    555a:	e399                	bnez	a5,5560 <_vfiprintf_r+0x2a>
    555c:	261000ef          	jal	ra,5fbc <__sinit>
    5560:	00001797          	auipc	a5,0x1
    5564:	6dc78793          	addi	a5,a5,1756 # 6c3c <__sf_fake_stdin>
    5568:	0cf49d63          	bne	s1,a5,5642 <_vfiprintf_r+0x10c>
    556c:	0049a483          	lw	s1,4(s3)
    5570:	00c4d783          	lhu	a5,12(s1)
    5574:	8ba1                	andi	a5,a5,8
    5576:	cbe5                	beqz	a5,5666 <_vfiprintf_r+0x130>
    5578:	489c                	lw	a5,16(s1)
    557a:	c7f5                	beqz	a5,5666 <_vfiprintf_r+0x130>
    557c:	02000793          	li	a5,32
    5580:	02f104a3          	sb	a5,41(sp)
    5584:	03000793          	li	a5,48
    5588:	d202                	sw	zero,36(sp)
    558a:	02f10523          	sb	a5,42(sp)
    558e:	c622                	sw	s0,12(sp)
    5590:	02500b93          	li	s7,37
    5594:	00001a97          	auipc	s5,0x1
    5598:	64ca8a93          	addi	s5,s5,1612 # 6be0 <__clz_tab+0x140>
    559c:	4c05                	li	s8,1
    559e:	4b29                	li	s6,10
    55a0:	844a                	mv	s0,s2
    55a2:	00044783          	lbu	a5,0(s0)
    55a6:	c399                	beqz	a5,55ac <_vfiprintf_r+0x76>
    55a8:	0f779163          	bne	a5,s7,568a <_vfiprintf_r+0x154>
    55ac:	41240cb3          	sub	s9,s0,s2
    55b0:	000c8e63          	beqz	s9,55cc <_vfiprintf_r+0x96>
    55b4:	86e6                	mv	a3,s9
    55b6:	864a                	mv	a2,s2
    55b8:	85a6                	mv	a1,s1
    55ba:	854e                	mv	a0,s3
    55bc:	f37ff0ef          	jal	ra,54f2 <__sfputs_r>
    55c0:	57fd                	li	a5,-1
    55c2:	1ef50863          	beq	a0,a5,57b2 <_vfiprintf_r+0x27c>
    55c6:	5692                	lw	a3,36(sp)
    55c8:	96e6                	add	a3,a3,s9
    55ca:	d236                	sw	a3,36(sp)
    55cc:	00044783          	lbu	a5,0(s0)
    55d0:	1e078163          	beqz	a5,57b2 <_vfiprintf_r+0x27c>
    55d4:	57fd                	li	a5,-1
    55d6:	00140913          	addi	s2,s0,1
    55da:	c802                	sw	zero,16(sp)
    55dc:	ce02                	sw	zero,28(sp)
    55de:	ca3e                	sw	a5,20(sp)
    55e0:	cc02                	sw	zero,24(sp)
    55e2:	040109a3          	sb	zero,83(sp)
    55e6:	d482                	sw	zero,104(sp)
    55e8:	00094583          	lbu	a1,0(s2)
    55ec:	4615                	li	a2,5
    55ee:	8556                	mv	a0,s5
    55f0:	43b000ef          	jal	ra,622a <memchr>
    55f4:	00190413          	addi	s0,s2,1
    55f8:	47c2                	lw	a5,16(sp)
    55fa:	e951                	bnez	a0,568e <_vfiprintf_r+0x158>
    55fc:	0107f713          	andi	a4,a5,16
    5600:	c709                	beqz	a4,560a <_vfiprintf_r+0xd4>
    5602:	02000713          	li	a4,32
    5606:	04e109a3          	sb	a4,83(sp)
    560a:	0087f713          	andi	a4,a5,8
    560e:	c709                	beqz	a4,5618 <_vfiprintf_r+0xe2>
    5610:	02b00713          	li	a4,43
    5614:	04e109a3          	sb	a4,83(sp)
    5618:	00094683          	lbu	a3,0(s2)
    561c:	02a00713          	li	a4,42
    5620:	06e68f63          	beq	a3,a4,569e <_vfiprintf_r+0x168>
    5624:	47f2                	lw	a5,28(sp)
    5626:	844a                	mv	s0,s2
    5628:	4681                	li	a3,0
    562a:	4625                	li	a2,9
    562c:	00044703          	lbu	a4,0(s0)
    5630:	00140593          	addi	a1,s0,1
    5634:	fd070713          	addi	a4,a4,-48
    5638:	0ae67863          	bgeu	a2,a4,56e8 <_vfiprintf_r+0x1b2>
    563c:	caad                	beqz	a3,56ae <_vfiprintf_r+0x178>
    563e:	ce3e                	sw	a5,28(sp)
    5640:	a0bd                	j	56ae <_vfiprintf_r+0x178>
    5642:	00001797          	auipc	a5,0x1
    5646:	61a78793          	addi	a5,a5,1562 # 6c5c <__sf_fake_stdout>
    564a:	00f49563          	bne	s1,a5,5654 <_vfiprintf_r+0x11e>
    564e:	0089a483          	lw	s1,8(s3)
    5652:	bf39                	j	5570 <_vfiprintf_r+0x3a>
    5654:	00001797          	auipc	a5,0x1
    5658:	5c878793          	addi	a5,a5,1480 # 6c1c <__sf_fake_stderr>
    565c:	f0f49ae3          	bne	s1,a5,5570 <_vfiprintf_r+0x3a>
    5660:	00c9a483          	lw	s1,12(s3)
    5664:	b731                	j	5570 <_vfiprintf_r+0x3a>
    5666:	85a6                	mv	a1,s1
    5668:	854e                	mv	a0,s3
    566a:	2bf1                	jal	5c46 <__swsetup_r>
    566c:	d901                	beqz	a0,557c <_vfiprintf_r+0x46>
    566e:	557d                	li	a0,-1
    5670:	40fa                	lw	ra,156(sp)
    5672:	446a                	lw	s0,152(sp)
    5674:	44da                	lw	s1,148(sp)
    5676:	494a                	lw	s2,144(sp)
    5678:	49ba                	lw	s3,140(sp)
    567a:	4a2a                	lw	s4,136(sp)
    567c:	4a9a                	lw	s5,132(sp)
    567e:	4b0a                	lw	s6,128(sp)
    5680:	5bf6                	lw	s7,124(sp)
    5682:	5c66                	lw	s8,120(sp)
    5684:	5cd6                	lw	s9,116(sp)
    5686:	610d                	addi	sp,sp,160
    5688:	8082                	ret
    568a:	0405                	addi	s0,s0,1
    568c:	bf19                	j	55a2 <_vfiprintf_r+0x6c>
    568e:	41550533          	sub	a0,a0,s5
    5692:	00ac1533          	sll	a0,s8,a0
    5696:	8fc9                	or	a5,a5,a0
    5698:	c83e                	sw	a5,16(sp)
    569a:	8922                	mv	s2,s0
    569c:	b7b1                	j	55e8 <_vfiprintf_r+0xb2>
    569e:	4732                	lw	a4,12(sp)
    56a0:	00470693          	addi	a3,a4,4
    56a4:	4318                	lw	a4,0(a4)
    56a6:	c636                	sw	a3,12(sp)
    56a8:	02074963          	bltz	a4,56da <_vfiprintf_r+0x1a4>
    56ac:	ce3a                	sw	a4,28(sp)
    56ae:	00044703          	lbu	a4,0(s0)
    56b2:	02e00793          	li	a5,46
    56b6:	04f71f63          	bne	a4,a5,5714 <_vfiprintf_r+0x1de>
    56ba:	00144703          	lbu	a4,1(s0)
    56be:	02a00793          	li	a5,42
    56c2:	02f71b63          	bne	a4,a5,56f8 <_vfiprintf_r+0x1c2>
    56c6:	47b2                	lw	a5,12(sp)
    56c8:	0409                	addi	s0,s0,2
    56ca:	00478713          	addi	a4,a5,4
    56ce:	439c                	lw	a5,0(a5)
    56d0:	c63a                	sw	a4,12(sp)
    56d2:	0207c163          	bltz	a5,56f4 <_vfiprintf_r+0x1be>
    56d6:	ca3e                	sw	a5,20(sp)
    56d8:	a835                	j	5714 <_vfiprintf_r+0x1de>
    56da:	40e00733          	neg	a4,a4
    56de:	0027e793          	ori	a5,a5,2
    56e2:	ce3a                	sw	a4,28(sp)
    56e4:	c83e                	sw	a5,16(sp)
    56e6:	b7e1                	j	56ae <_vfiprintf_r+0x178>
    56e8:	036787b3          	mul	a5,a5,s6
    56ec:	4685                	li	a3,1
    56ee:	842e                	mv	s0,a1
    56f0:	97ba                	add	a5,a5,a4
    56f2:	bf2d                	j	562c <_vfiprintf_r+0xf6>
    56f4:	57fd                	li	a5,-1
    56f6:	b7c5                	j	56d6 <_vfiprintf_r+0x1a0>
    56f8:	0405                	addi	s0,s0,1
    56fa:	ca02                	sw	zero,20(sp)
    56fc:	4681                	li	a3,0
    56fe:	4781                	li	a5,0
    5700:	4625                	li	a2,9
    5702:	00044703          	lbu	a4,0(s0)
    5706:	00140593          	addi	a1,s0,1
    570a:	fd070713          	addi	a4,a4,-48
    570e:	06e67863          	bgeu	a2,a4,577e <_vfiprintf_r+0x248>
    5712:	f2f1                	bnez	a3,56d6 <_vfiprintf_r+0x1a0>
    5714:	00044583          	lbu	a1,0(s0)
    5718:	460d                	li	a2,3
    571a:	00001517          	auipc	a0,0x1
    571e:	4ce50513          	addi	a0,a0,1230 # 6be8 <__clz_tab+0x148>
    5722:	309000ef          	jal	ra,622a <memchr>
    5726:	cd11                	beqz	a0,5742 <_vfiprintf_r+0x20c>
    5728:	00001797          	auipc	a5,0x1
    572c:	4c078793          	addi	a5,a5,1216 # 6be8 <__clz_tab+0x148>
    5730:	8d1d                	sub	a0,a0,a5
    5732:	04000793          	li	a5,64
    5736:	00a797b3          	sll	a5,a5,a0
    573a:	4542                	lw	a0,16(sp)
    573c:	0405                	addi	s0,s0,1
    573e:	8d5d                	or	a0,a0,a5
    5740:	c82a                	sw	a0,16(sp)
    5742:	00044583          	lbu	a1,0(s0)
    5746:	4619                	li	a2,6
    5748:	00001517          	auipc	a0,0x1
    574c:	4a450513          	addi	a0,a0,1188 # 6bec <__clz_tab+0x14c>
    5750:	00140913          	addi	s2,s0,1
    5754:	02b10423          	sb	a1,40(sp)
    5758:	2d3000ef          	jal	ra,622a <memchr>
    575c:	c13d                	beqz	a0,57c2 <_vfiprintf_r+0x28c>
    575e:	ffffb797          	auipc	a5,0xffffb
    5762:	8a278793          	addi	a5,a5,-1886 # 0 <_sinit>
    5766:	e795                	bnez	a5,5792 <_vfiprintf_r+0x25c>
    5768:	4742                	lw	a4,16(sp)
    576a:	47b2                	lw	a5,12(sp)
    576c:	10077713          	andi	a4,a4,256
    5770:	cf09                	beqz	a4,578a <_vfiprintf_r+0x254>
    5772:	0791                	addi	a5,a5,4
    5774:	c63e                	sw	a5,12(sp)
    5776:	5792                	lw	a5,36(sp)
    5778:	97d2                	add	a5,a5,s4
    577a:	d23e                	sw	a5,36(sp)
    577c:	b515                	j	55a0 <_vfiprintf_r+0x6a>
    577e:	036787b3          	mul	a5,a5,s6
    5782:	4685                	li	a3,1
    5784:	842e                	mv	s0,a1
    5786:	97ba                	add	a5,a5,a4
    5788:	bfad                	j	5702 <_vfiprintf_r+0x1cc>
    578a:	079d                	addi	a5,a5,7
    578c:	9be1                	andi	a5,a5,-8
    578e:	07a1                	addi	a5,a5,8
    5790:	b7d5                	j	5774 <_vfiprintf_r+0x23e>
    5792:	0078                	addi	a4,sp,12
    5794:	00000697          	auipc	a3,0x0
    5798:	d5e68693          	addi	a3,a3,-674 # 54f2 <__sfputs_r>
    579c:	8626                	mv	a2,s1
    579e:	080c                	addi	a1,sp,16
    57a0:	854e                	mv	a0,s3
    57a2:	00000097          	auipc	ra,0x0
    57a6:	000000e7          	jalr	zero # 0 <_sinit>
    57aa:	57fd                	li	a5,-1
    57ac:	8a2a                	mv	s4,a0
    57ae:	fcf514e3          	bne	a0,a5,5776 <_vfiprintf_r+0x240>
    57b2:	00c4d783          	lhu	a5,12(s1)
    57b6:	0407f793          	andi	a5,a5,64
    57ba:	ea079ae3          	bnez	a5,566e <_vfiprintf_r+0x138>
    57be:	5512                	lw	a0,36(sp)
    57c0:	bd45                	j	5670 <_vfiprintf_r+0x13a>
    57c2:	0078                	addi	a4,sp,12
    57c4:	00000697          	auipc	a3,0x0
    57c8:	d2e68693          	addi	a3,a3,-722 # 54f2 <__sfputs_r>
    57cc:	8626                	mv	a2,s1
    57ce:	080c                	addi	a1,sp,16
    57d0:	854e                	mv	a0,s3
    57d2:	2a01                	jal	58e2 <_printf_i>
    57d4:	bfd9                	j	57aa <_vfiprintf_r+0x274>

000057d6 <_printf_common>:
_printf_common():
    57d6:	7179                	addi	sp,sp,-48
    57d8:	ca56                	sw	s5,20(sp)
    57da:	499c                	lw	a5,16(a1)
    57dc:	8aba                	mv	s5,a4
    57de:	4598                	lw	a4,8(a1)
    57e0:	d422                	sw	s0,40(sp)
    57e2:	d226                	sw	s1,36(sp)
    57e4:	ce4e                	sw	s3,28(sp)
    57e6:	cc52                	sw	s4,24(sp)
    57e8:	d606                	sw	ra,44(sp)
    57ea:	d04a                	sw	s2,32(sp)
    57ec:	c85a                	sw	s6,16(sp)
    57ee:	c65e                	sw	s7,12(sp)
    57f0:	89aa                	mv	s3,a0
    57f2:	842e                	mv	s0,a1
    57f4:	84b2                	mv	s1,a2
    57f6:	8a36                	mv	s4,a3
    57f8:	00e7d363          	bge	a5,a4,57fe <_printf_common+0x28>
    57fc:	87ba                	mv	a5,a4
    57fe:	c09c                	sw	a5,0(s1)
    5800:	04344703          	lbu	a4,67(s0)
    5804:	c319                	beqz	a4,580a <_printf_common+0x34>
    5806:	0785                	addi	a5,a5,1
    5808:	c09c                	sw	a5,0(s1)
    580a:	401c                	lw	a5,0(s0)
    580c:	0207f793          	andi	a5,a5,32
    5810:	c781                	beqz	a5,5818 <_printf_common+0x42>
    5812:	409c                	lw	a5,0(s1)
    5814:	0789                	addi	a5,a5,2
    5816:	c09c                	sw	a5,0(s1)
    5818:	00042903          	lw	s2,0(s0)
    581c:	00697913          	andi	s2,s2,6
    5820:	00091a63          	bnez	s2,5834 <_printf_common+0x5e>
    5824:	01940b13          	addi	s6,s0,25
    5828:	5bfd                	li	s7,-1
    582a:	445c                	lw	a5,12(s0)
    582c:	4098                	lw	a4,0(s1)
    582e:	8f99                	sub	a5,a5,a4
    5830:	04f94c63          	blt	s2,a5,5888 <_printf_common+0xb2>
    5834:	401c                	lw	a5,0(s0)
    5836:	04344683          	lbu	a3,67(s0)
    583a:	0207f793          	andi	a5,a5,32
    583e:	00d036b3          	snez	a3,a3
    5842:	eba5                	bnez	a5,58b2 <_printf_common+0xdc>
    5844:	04340613          	addi	a2,s0,67
    5848:	85d2                	mv	a1,s4
    584a:	854e                	mv	a0,s3
    584c:	9a82                	jalr	s5
    584e:	57fd                	li	a5,-1
    5850:	04f50363          	beq	a0,a5,5896 <_printf_common+0xc0>
    5854:	401c                	lw	a5,0(s0)
    5856:	4611                	li	a2,4
    5858:	4098                	lw	a4,0(s1)
    585a:	8b99                	andi	a5,a5,6
    585c:	4454                	lw	a3,12(s0)
    585e:	4481                	li	s1,0
    5860:	00c79763          	bne	a5,a2,586e <_printf_common+0x98>
    5864:	40e684b3          	sub	s1,a3,a4
    5868:	0004d363          	bgez	s1,586e <_printf_common+0x98>
    586c:	4481                	li	s1,0
    586e:	441c                	lw	a5,8(s0)
    5870:	4818                	lw	a4,16(s0)
    5872:	00f75463          	bge	a4,a5,587a <_printf_common+0xa4>
    5876:	8f99                	sub	a5,a5,a4
    5878:	94be                	add	s1,s1,a5
    587a:	4901                	li	s2,0
    587c:	0469                	addi	s0,s0,26
    587e:	5b7d                	li	s6,-1
    5880:	05249863          	bne	s1,s2,58d0 <_printf_common+0xfa>
    5884:	4501                	li	a0,0
    5886:	a809                	j	5898 <_printf_common+0xc2>
    5888:	4685                	li	a3,1
    588a:	865a                	mv	a2,s6
    588c:	85d2                	mv	a1,s4
    588e:	854e                	mv	a0,s3
    5890:	9a82                	jalr	s5
    5892:	01751e63          	bne	a0,s7,58ae <_printf_common+0xd8>
    5896:	557d                	li	a0,-1
    5898:	50b2                	lw	ra,44(sp)
    589a:	5422                	lw	s0,40(sp)
    589c:	5492                	lw	s1,36(sp)
    589e:	5902                	lw	s2,32(sp)
    58a0:	49f2                	lw	s3,28(sp)
    58a2:	4a62                	lw	s4,24(sp)
    58a4:	4ad2                	lw	s5,20(sp)
    58a6:	4b42                	lw	s6,16(sp)
    58a8:	4bb2                	lw	s7,12(sp)
    58aa:	6145                	addi	sp,sp,48
    58ac:	8082                	ret
    58ae:	0905                	addi	s2,s2,1
    58b0:	bfad                	j	582a <_printf_common+0x54>
    58b2:	00d40733          	add	a4,s0,a3
    58b6:	03000613          	li	a2,48
    58ba:	04c701a3          	sb	a2,67(a4)
    58be:	04544703          	lbu	a4,69(s0)
    58c2:	00168793          	addi	a5,a3,1
    58c6:	97a2                	add	a5,a5,s0
    58c8:	0689                	addi	a3,a3,2
    58ca:	04e781a3          	sb	a4,67(a5)
    58ce:	bf9d                	j	5844 <_printf_common+0x6e>
    58d0:	4685                	li	a3,1
    58d2:	8622                	mv	a2,s0
    58d4:	85d2                	mv	a1,s4
    58d6:	854e                	mv	a0,s3
    58d8:	9a82                	jalr	s5
    58da:	fb650ee3          	beq	a0,s6,5896 <_printf_common+0xc0>
    58de:	0905                	addi	s2,s2,1
    58e0:	b745                	j	5880 <_printf_common+0xaa>

000058e2 <_printf_i>:
_printf_i():
    58e2:	7179                	addi	sp,sp,-48
    58e4:	d422                	sw	s0,40(sp)
    58e6:	d226                	sw	s1,36(sp)
    58e8:	d04a                	sw	s2,32(sp)
    58ea:	ce4e                	sw	s3,28(sp)
    58ec:	d606                	sw	ra,44(sp)
    58ee:	cc52                	sw	s4,24(sp)
    58f0:	ca56                	sw	s5,20(sp)
    58f2:	c85a                	sw	s6,16(sp)
    58f4:	89b6                	mv	s3,a3
    58f6:	0185c683          	lbu	a3,24(a1)
    58fa:	06e00793          	li	a5,110
    58fe:	8932                	mv	s2,a2
    5900:	84aa                	mv	s1,a0
    5902:	842e                	mv	s0,a1
    5904:	04358613          	addi	a2,a1,67
    5908:	1ef68163          	beq	a3,a5,5aea <_printf_i+0x208>
    590c:	06d7e263          	bltu	a5,a3,5970 <_printf_i+0x8e>
    5910:	06300793          	li	a5,99
    5914:	0af68263          	beq	a3,a5,59b8 <_printf_i+0xd6>
    5918:	00d7ed63          	bltu	a5,a3,5932 <_printf_i+0x50>
    591c:	1e068b63          	beqz	a3,5b12 <_printf_i+0x230>
    5920:	05800793          	li	a5,88
    5924:	16f68763          	beq	a3,a5,5a92 <_printf_i+0x1b0>
    5928:	04240a93          	addi	s5,s0,66
    592c:	04d40123          	sb	a3,66(s0)
    5930:	a869                	j	59ca <_printf_i+0xe8>
    5932:	06400793          	li	a5,100
    5936:	00f68663          	beq	a3,a5,5942 <_printf_i+0x60>
    593a:	06900793          	li	a5,105
    593e:	fef695e3          	bne	a3,a5,5928 <_printf_i+0x46>
    5942:	401c                	lw	a5,0(s0)
    5944:	4308                	lw	a0,0(a4)
    5946:	0807f693          	andi	a3,a5,128
    594a:	00450593          	addi	a1,a0,4
    594e:	c2c1                	beqz	a3,59ce <_printf_i+0xec>
    5950:	411c                	lw	a5,0(a0)
    5952:	c30c                	sw	a1,0(a4)
    5954:	0007d863          	bgez	a5,5964 <_printf_i+0x82>
    5958:	02d00713          	li	a4,45
    595c:	40f007b3          	neg	a5,a5
    5960:	04e401a3          	sb	a4,67(s0)
    5964:	00001697          	auipc	a3,0x1
    5968:	29068693          	addi	a3,a3,656 # 6bf4 <__clz_tab+0x154>
    596c:	4729                	li	a4,10
    596e:	a065                	j	5a16 <_printf_i+0x134>
    5970:	07300793          	li	a5,115
    5974:	1af68363          	beq	a3,a5,5b1a <_printf_i+0x238>
    5978:	00d7ef63          	bltu	a5,a3,5996 <_printf_i+0xb4>
    597c:	06f00793          	li	a5,111
    5980:	04f68f63          	beq	a3,a5,59de <_printf_i+0xfc>
    5984:	07000793          	li	a5,112
    5988:	faf690e3          	bne	a3,a5,5928 <_printf_i+0x46>
    598c:	419c                	lw	a5,0(a1)
    598e:	0207e793          	ori	a5,a5,32
    5992:	c19c                	sw	a5,0(a1)
    5994:	a809                	j	59a6 <_printf_i+0xc4>
    5996:	07500793          	li	a5,117
    599a:	04f68263          	beq	a3,a5,59de <_printf_i+0xfc>
    599e:	07800793          	li	a5,120
    59a2:	f8f693e3          	bne	a3,a5,5928 <_printf_i+0x46>
    59a6:	07800793          	li	a5,120
    59aa:	04f402a3          	sb	a5,69(s0)
    59ae:	00001697          	auipc	a3,0x1
    59b2:	25a68693          	addi	a3,a3,602 # 6c08 <__clz_tab+0x168>
    59b6:	a0e5                	j	5a9e <_printf_i+0x1bc>
    59b8:	431c                	lw	a5,0(a4)
    59ba:	04258a93          	addi	s5,a1,66
    59be:	00478693          	addi	a3,a5,4
    59c2:	439c                	lw	a5,0(a5)
    59c4:	c314                	sw	a3,0(a4)
    59c6:	04f58123          	sb	a5,66(a1)
    59ca:	4785                	li	a5,1
    59cc:	a2b5                	j	5b38 <_printf_i+0x256>
    59ce:	0407f693          	andi	a3,a5,64
    59d2:	411c                	lw	a5,0(a0)
    59d4:	c30c                	sw	a1,0(a4)
    59d6:	debd                	beqz	a3,5954 <_printf_i+0x72>
    59d8:	07c2                	slli	a5,a5,0x10
    59da:	87c1                	srai	a5,a5,0x10
    59dc:	bfa5                	j	5954 <_printf_i+0x72>
    59de:	400c                	lw	a1,0(s0)
    59e0:	431c                	lw	a5,0(a4)
    59e2:	0805f813          	andi	a6,a1,128
    59e6:	00478513          	addi	a0,a5,4
    59ea:	00080563          	beqz	a6,59f4 <_printf_i+0x112>
    59ee:	c308                	sw	a0,0(a4)
    59f0:	439c                	lw	a5,0(a5)
    59f2:	a039                	j	5a00 <_printf_i+0x11e>
    59f4:	0405f593          	andi	a1,a1,64
    59f8:	c308                	sw	a0,0(a4)
    59fa:	d9fd                	beqz	a1,59f0 <_printf_i+0x10e>
    59fc:	0007d783          	lhu	a5,0(a5)
    5a00:	06f00713          	li	a4,111
    5a04:	0ce68b63          	beq	a3,a4,5ada <_printf_i+0x1f8>
    5a08:	00001697          	auipc	a3,0x1
    5a0c:	1ec68693          	addi	a3,a3,492 # 6bf4 <__clz_tab+0x154>
    5a10:	4729                	li	a4,10
    5a12:	040401a3          	sb	zero,67(s0)
    5a16:	404c                	lw	a1,4(s0)
    5a18:	c40c                	sw	a1,8(s0)
    5a1a:	0005c563          	bltz	a1,5a24 <_printf_i+0x142>
    5a1e:	4008                	lw	a0,0(s0)
    5a20:	996d                	andi	a0,a0,-5
    5a22:	c008                	sw	a0,0(s0)
    5a24:	e399                	bnez	a5,5a2a <_printf_i+0x148>
    5a26:	8ab2                	mv	s5,a2
    5a28:	cd91                	beqz	a1,5a44 <_printf_i+0x162>
    5a2a:	8ab2                	mv	s5,a2
    5a2c:	02e7f5b3          	remu	a1,a5,a4
    5a30:	1afd                	addi	s5,s5,-1
    5a32:	95b6                	add	a1,a1,a3
    5a34:	0005c583          	lbu	a1,0(a1)
    5a38:	00ba8023          	sb	a1,0(s5)
    5a3c:	02e7d5b3          	divu	a1,a5,a4
    5a40:	0ae7f363          	bgeu	a5,a4,5ae6 <_printf_i+0x204>
    5a44:	47a1                	li	a5,8
    5a46:	00f71e63          	bne	a4,a5,5a62 <_printf_i+0x180>
    5a4a:	401c                	lw	a5,0(s0)
    5a4c:	8b85                	andi	a5,a5,1
    5a4e:	cb91                	beqz	a5,5a62 <_printf_i+0x180>
    5a50:	4058                	lw	a4,4(s0)
    5a52:	481c                	lw	a5,16(s0)
    5a54:	00e7c763          	blt	a5,a4,5a62 <_printf_i+0x180>
    5a58:	03000793          	li	a5,48
    5a5c:	fefa8fa3          	sb	a5,-1(s5)
    5a60:	1afd                	addi	s5,s5,-1
    5a62:	41560633          	sub	a2,a2,s5
    5a66:	c810                	sw	a2,16(s0)
    5a68:	874e                	mv	a4,s3
    5a6a:	86ca                	mv	a3,s2
    5a6c:	0070                	addi	a2,sp,12
    5a6e:	85a2                	mv	a1,s0
    5a70:	8526                	mv	a0,s1
    5a72:	d65ff0ef          	jal	ra,57d6 <_printf_common>
    5a76:	5a7d                	li	s4,-1
    5a78:	0d451463          	bne	a0,s4,5b40 <_printf_i+0x25e>
    5a7c:	557d                	li	a0,-1
    5a7e:	50b2                	lw	ra,44(sp)
    5a80:	5422                	lw	s0,40(sp)
    5a82:	5492                	lw	s1,36(sp)
    5a84:	5902                	lw	s2,32(sp)
    5a86:	49f2                	lw	s3,28(sp)
    5a88:	4a62                	lw	s4,24(sp)
    5a8a:	4ad2                	lw	s5,20(sp)
    5a8c:	4b42                	lw	s6,16(sp)
    5a8e:	6145                	addi	sp,sp,48
    5a90:	8082                	ret
    5a92:	04d582a3          	sb	a3,69(a1)
    5a96:	00001697          	auipc	a3,0x1
    5a9a:	15e68693          	addi	a3,a3,350 # 6bf4 <__clz_tab+0x154>
    5a9e:	400c                	lw	a1,0(s0)
    5aa0:	4308                	lw	a0,0(a4)
    5aa2:	0805f813          	andi	a6,a1,128
    5aa6:	411c                	lw	a5,0(a0)
    5aa8:	0511                	addi	a0,a0,4
    5aaa:	02080063          	beqz	a6,5aca <_printf_i+0x1e8>
    5aae:	c308                	sw	a0,0(a4)
    5ab0:	0015f713          	andi	a4,a1,1
    5ab4:	c701                	beqz	a4,5abc <_printf_i+0x1da>
    5ab6:	0205e593          	ori	a1,a1,32
    5aba:	c00c                	sw	a1,0(s0)
    5abc:	4741                	li	a4,16
    5abe:	fbb1                	bnez	a5,5a12 <_printf_i+0x130>
    5ac0:	400c                	lw	a1,0(s0)
    5ac2:	fdf5f593          	andi	a1,a1,-33
    5ac6:	c00c                	sw	a1,0(s0)
    5ac8:	b7a9                	j	5a12 <_printf_i+0x130>
    5aca:	0405f813          	andi	a6,a1,64
    5ace:	c308                	sw	a0,0(a4)
    5ad0:	fe0800e3          	beqz	a6,5ab0 <_printf_i+0x1ce>
    5ad4:	07c2                	slli	a5,a5,0x10
    5ad6:	83c1                	srli	a5,a5,0x10
    5ad8:	bfe1                	j	5ab0 <_printf_i+0x1ce>
    5ada:	00001697          	auipc	a3,0x1
    5ade:	11a68693          	addi	a3,a3,282 # 6bf4 <__clz_tab+0x154>
    5ae2:	4721                	li	a4,8
    5ae4:	b73d                	j	5a12 <_printf_i+0x130>
    5ae6:	87ae                	mv	a5,a1
    5ae8:	b791                	j	5a2c <_printf_i+0x14a>
    5aea:	4194                	lw	a3,0(a1)
    5aec:	431c                	lw	a5,0(a4)
    5aee:	49cc                	lw	a1,20(a1)
    5af0:	0806f813          	andi	a6,a3,128
    5af4:	00478513          	addi	a0,a5,4
    5af8:	00080663          	beqz	a6,5b04 <_printf_i+0x222>
    5afc:	c308                	sw	a0,0(a4)
    5afe:	439c                	lw	a5,0(a5)
    5b00:	c38c                	sw	a1,0(a5)
    5b02:	a801                	j	5b12 <_printf_i+0x230>
    5b04:	c308                	sw	a0,0(a4)
    5b06:	0406f693          	andi	a3,a3,64
    5b0a:	439c                	lw	a5,0(a5)
    5b0c:	daf5                	beqz	a3,5b00 <_printf_i+0x21e>
    5b0e:	00b79023          	sh	a1,0(a5)
    5b12:	00042823          	sw	zero,16(s0)
    5b16:	8ab2                	mv	s5,a2
    5b18:	bf81                	j	5a68 <_printf_i+0x186>
    5b1a:	431c                	lw	a5,0(a4)
    5b1c:	41d0                	lw	a2,4(a1)
    5b1e:	4581                	li	a1,0
    5b20:	00478693          	addi	a3,a5,4
    5b24:	c314                	sw	a3,0(a4)
    5b26:	0007aa83          	lw	s5,0(a5)
    5b2a:	8556                	mv	a0,s5
    5b2c:	2dfd                	jal	622a <memchr>
    5b2e:	c501                	beqz	a0,5b36 <_printf_i+0x254>
    5b30:	41550533          	sub	a0,a0,s5
    5b34:	c048                	sw	a0,4(s0)
    5b36:	405c                	lw	a5,4(s0)
    5b38:	c81c                	sw	a5,16(s0)
    5b3a:	040401a3          	sb	zero,67(s0)
    5b3e:	b72d                	j	5a68 <_printf_i+0x186>
    5b40:	4814                	lw	a3,16(s0)
    5b42:	8656                	mv	a2,s5
    5b44:	85ca                	mv	a1,s2
    5b46:	8526                	mv	a0,s1
    5b48:	9982                	jalr	s3
    5b4a:	f34509e3          	beq	a0,s4,5a7c <_printf_i+0x19a>
    5b4e:	401c                	lw	a5,0(s0)
    5b50:	8b89                	andi	a5,a5,2
    5b52:	e78d                	bnez	a5,5b7c <_printf_i+0x29a>
    5b54:	47b2                	lw	a5,12(sp)
    5b56:	4448                	lw	a0,12(s0)
    5b58:	f2f553e3          	bge	a0,a5,5a7e <_printf_i+0x19c>
    5b5c:	853e                	mv	a0,a5
    5b5e:	b705                	j	5a7e <_printf_i+0x19c>
    5b60:	4685                	li	a3,1
    5b62:	8656                	mv	a2,s5
    5b64:	85ca                	mv	a1,s2
    5b66:	8526                	mv	a0,s1
    5b68:	9982                	jalr	s3
    5b6a:	f16509e3          	beq	a0,s6,5a7c <_printf_i+0x19a>
    5b6e:	0a05                	addi	s4,s4,1
    5b70:	445c                	lw	a5,12(s0)
    5b72:	4732                	lw	a4,12(sp)
    5b74:	8f99                	sub	a5,a5,a4
    5b76:	fefa45e3          	blt	s4,a5,5b60 <_printf_i+0x27e>
    5b7a:	bfe9                	j	5b54 <_printf_i+0x272>
    5b7c:	4a01                	li	s4,0
    5b7e:	01940a93          	addi	s5,s0,25
    5b82:	5b7d                	li	s6,-1
    5b84:	b7f5                	j	5b70 <_printf_i+0x28e>

00005b86 <__swbuf_r>:
__swbuf_r():
    5b86:	1101                	addi	sp,sp,-32
    5b88:	cc22                	sw	s0,24(sp)
    5b8a:	ca26                	sw	s1,20(sp)
    5b8c:	c84a                	sw	s2,16(sp)
    5b8e:	ce06                	sw	ra,28(sp)
    5b90:	c64e                	sw	s3,12(sp)
    5b92:	84aa                	mv	s1,a0
    5b94:	892e                	mv	s2,a1
    5b96:	8432                	mv	s0,a2
    5b98:	c501                	beqz	a0,5ba0 <__swbuf_r+0x1a>
    5b9a:	4d1c                	lw	a5,24(a0)
    5b9c:	e391                	bnez	a5,5ba0 <__swbuf_r+0x1a>
    5b9e:	2939                	jal	5fbc <__sinit>
    5ba0:	00001797          	auipc	a5,0x1
    5ba4:	09c78793          	addi	a5,a5,156 # 6c3c <__sf_fake_stdin>
    5ba8:	06f41963          	bne	s0,a5,5c1a <__swbuf_r+0x94>
    5bac:	40c0                	lw	s0,4(s1)
    5bae:	4c1c                	lw	a5,24(s0)
    5bb0:	c41c                	sw	a5,8(s0)
    5bb2:	00c45783          	lhu	a5,12(s0)
    5bb6:	8ba1                	andi	a5,a5,8
    5bb8:	c3c9                	beqz	a5,5c3a <__swbuf_r+0xb4>
    5bba:	481c                	lw	a5,16(s0)
    5bbc:	cfbd                	beqz	a5,5c3a <__swbuf_r+0xb4>
    5bbe:	481c                	lw	a5,16(s0)
    5bc0:	4008                	lw	a0,0(s0)
    5bc2:	0ff97993          	andi	s3,s2,255
    5bc6:	0ff97913          	andi	s2,s2,255
    5bca:	8d1d                	sub	a0,a0,a5
    5bcc:	485c                	lw	a5,20(s0)
    5bce:	00f54663          	blt	a0,a5,5bda <__swbuf_r+0x54>
    5bd2:	85a2                	mv	a1,s0
    5bd4:	8526                	mv	a0,s1
    5bd6:	24d9                	jal	5e9c <_fflush_r>
    5bd8:	e52d                	bnez	a0,5c42 <__swbuf_r+0xbc>
    5bda:	441c                	lw	a5,8(s0)
    5bdc:	0505                	addi	a0,a0,1
    5bde:	17fd                	addi	a5,a5,-1
    5be0:	c41c                	sw	a5,8(s0)
    5be2:	401c                	lw	a5,0(s0)
    5be4:	00178713          	addi	a4,a5,1
    5be8:	c018                	sw	a4,0(s0)
    5bea:	01378023          	sb	s3,0(a5)
    5bee:	485c                	lw	a5,20(s0)
    5bf0:	00a78963          	beq	a5,a0,5c02 <__swbuf_r+0x7c>
    5bf4:	00c45783          	lhu	a5,12(s0)
    5bf8:	8b85                	andi	a5,a5,1
    5bfa:	cb81                	beqz	a5,5c0a <__swbuf_r+0x84>
    5bfc:	47a9                	li	a5,10
    5bfe:	00f91663          	bne	s2,a5,5c0a <__swbuf_r+0x84>
    5c02:	85a2                	mv	a1,s0
    5c04:	8526                	mv	a0,s1
    5c06:	2c59                	jal	5e9c <_fflush_r>
    5c08:	ed0d                	bnez	a0,5c42 <__swbuf_r+0xbc>
    5c0a:	40f2                	lw	ra,28(sp)
    5c0c:	4462                	lw	s0,24(sp)
    5c0e:	854a                	mv	a0,s2
    5c10:	44d2                	lw	s1,20(sp)
    5c12:	4942                	lw	s2,16(sp)
    5c14:	49b2                	lw	s3,12(sp)
    5c16:	6105                	addi	sp,sp,32
    5c18:	8082                	ret
    5c1a:	00001797          	auipc	a5,0x1
    5c1e:	04278793          	addi	a5,a5,66 # 6c5c <__sf_fake_stdout>
    5c22:	00f41463          	bne	s0,a5,5c2a <__swbuf_r+0xa4>
    5c26:	4480                	lw	s0,8(s1)
    5c28:	b759                	j	5bae <__swbuf_r+0x28>
    5c2a:	00001797          	auipc	a5,0x1
    5c2e:	ff278793          	addi	a5,a5,-14 # 6c1c <__sf_fake_stderr>
    5c32:	f6f41ee3          	bne	s0,a5,5bae <__swbuf_r+0x28>
    5c36:	44c0                	lw	s0,12(s1)
    5c38:	bf9d                	j	5bae <__swbuf_r+0x28>
    5c3a:	85a2                	mv	a1,s0
    5c3c:	8526                	mv	a0,s1
    5c3e:	2021                	jal	5c46 <__swsetup_r>
    5c40:	dd3d                	beqz	a0,5bbe <__swbuf_r+0x38>
    5c42:	597d                	li	s2,-1
    5c44:	b7d9                	j	5c0a <__swbuf_r+0x84>

00005c46 <__swsetup_r>:
__swsetup_r():
    5c46:	1141                	addi	sp,sp,-16
    5c48:	80818793          	addi	a5,gp,-2040 # 20000090 <_impure_ptr>
    5c4c:	c226                	sw	s1,4(sp)
    5c4e:	4384                	lw	s1,0(a5)
    5c50:	c422                	sw	s0,8(sp)
    5c52:	c04a                	sw	s2,0(sp)
    5c54:	c606                	sw	ra,12(sp)
    5c56:	892a                	mv	s2,a0
    5c58:	842e                	mv	s0,a1
    5c5a:	c489                	beqz	s1,5c64 <__swsetup_r+0x1e>
    5c5c:	4c9c                	lw	a5,24(s1)
    5c5e:	e399                	bnez	a5,5c64 <__swsetup_r+0x1e>
    5c60:	8526                	mv	a0,s1
    5c62:	2ea9                	jal	5fbc <__sinit>
    5c64:	00001797          	auipc	a5,0x1
    5c68:	fd878793          	addi	a5,a5,-40 # 6c3c <__sf_fake_stdin>
    5c6c:	02f41c63          	bne	s0,a5,5ca4 <__swsetup_r+0x5e>
    5c70:	40c0                	lw	s0,4(s1)
    5c72:	00c41703          	lh	a4,12(s0)
    5c76:	01071793          	slli	a5,a4,0x10
    5c7a:	83c1                	srli	a5,a5,0x10
    5c7c:	0087f693          	andi	a3,a5,8
    5c80:	eeb5                	bnez	a3,5cfc <__swsetup_r+0xb6>
    5c82:	0107f693          	andi	a3,a5,16
    5c86:	ee9d                	bnez	a3,5cc4 <__swsetup_r+0x7e>
    5c88:	47a5                	li	a5,9
    5c8a:	00f92023          	sw	a5,0(s2)
    5c8e:	04076713          	ori	a4,a4,64
    5c92:	00e41623          	sh	a4,12(s0)
    5c96:	557d                	li	a0,-1
    5c98:	40b2                	lw	ra,12(sp)
    5c9a:	4422                	lw	s0,8(sp)
    5c9c:	4492                	lw	s1,4(sp)
    5c9e:	4902                	lw	s2,0(sp)
    5ca0:	0141                	addi	sp,sp,16
    5ca2:	8082                	ret
    5ca4:	00001797          	auipc	a5,0x1
    5ca8:	fb878793          	addi	a5,a5,-72 # 6c5c <__sf_fake_stdout>
    5cac:	00f41463          	bne	s0,a5,5cb4 <__swsetup_r+0x6e>
    5cb0:	4480                	lw	s0,8(s1)
    5cb2:	b7c1                	j	5c72 <__swsetup_r+0x2c>
    5cb4:	00001797          	auipc	a5,0x1
    5cb8:	f6878793          	addi	a5,a5,-152 # 6c1c <__sf_fake_stderr>
    5cbc:	faf41be3          	bne	s0,a5,5c72 <__swsetup_r+0x2c>
    5cc0:	44c0                	lw	s0,12(s1)
    5cc2:	bf45                	j	5c72 <__swsetup_r+0x2c>
    5cc4:	8b91                	andi	a5,a5,4
    5cc6:	c78d                	beqz	a5,5cf0 <__swsetup_r+0xaa>
    5cc8:	584c                	lw	a1,52(s0)
    5cca:	c989                	beqz	a1,5cdc <__swsetup_r+0x96>
    5ccc:	04440793          	addi	a5,s0,68
    5cd0:	00f58463          	beq	a1,a5,5cd8 <__swsetup_r+0x92>
    5cd4:	854a                	mv	a0,s2
    5cd6:	23bd                	jal	6244 <_free_r>
    5cd8:	02042a23          	sw	zero,52(s0)
    5cdc:	00c45783          	lhu	a5,12(s0)
    5ce0:	00042223          	sw	zero,4(s0)
    5ce4:	fdb7f793          	andi	a5,a5,-37
    5ce8:	00f41623          	sh	a5,12(s0)
    5cec:	481c                	lw	a5,16(s0)
    5cee:	c01c                	sw	a5,0(s0)
    5cf0:	00c45783          	lhu	a5,12(s0)
    5cf4:	0087e793          	ori	a5,a5,8
    5cf8:	00f41623          	sh	a5,12(s0)
    5cfc:	481c                	lw	a5,16(s0)
    5cfe:	ef81                	bnez	a5,5d16 <__swsetup_r+0xd0>
    5d00:	00c45783          	lhu	a5,12(s0)
    5d04:	20000713          	li	a4,512
    5d08:	2807f793          	andi	a5,a5,640
    5d0c:	00e78563          	beq	a5,a4,5d16 <__swsetup_r+0xd0>
    5d10:	85a2                	mv	a1,s0
    5d12:	854a                	mv	a0,s2
    5d14:	29a5                	jal	618c <__smakebuf_r>
    5d16:	00c45783          	lhu	a5,12(s0)
    5d1a:	0017f713          	andi	a4,a5,1
    5d1e:	c705                	beqz	a4,5d46 <__swsetup_r+0x100>
    5d20:	485c                	lw	a5,20(s0)
    5d22:	00042423          	sw	zero,8(s0)
    5d26:	40f007b3          	neg	a5,a5
    5d2a:	cc1c                	sw	a5,24(s0)
    5d2c:	481c                	lw	a5,16(s0)
    5d2e:	4501                	li	a0,0
    5d30:	f7a5                	bnez	a5,5c98 <__swsetup_r+0x52>
    5d32:	00c41783          	lh	a5,12(s0)
    5d36:	0807f713          	andi	a4,a5,128
    5d3a:	df39                	beqz	a4,5c98 <__swsetup_r+0x52>
    5d3c:	0407e793          	ori	a5,a5,64
    5d40:	00f41623          	sh	a5,12(s0)
    5d44:	bf89                	j	5c96 <__swsetup_r+0x50>
    5d46:	8b89                	andi	a5,a5,2
    5d48:	4701                	li	a4,0
    5d4a:	e391                	bnez	a5,5d4e <__swsetup_r+0x108>
    5d4c:	4858                	lw	a4,20(s0)
    5d4e:	c418                	sw	a4,8(s0)
    5d50:	bff1                	j	5d2c <__swsetup_r+0xe6>

00005d52 <abort>:
abort():
    5d52:	1141                	addi	sp,sp,-16
    5d54:	4519                	li	a0,6
    5d56:	c606                	sw	ra,12(sp)
    5d58:	25e5                	jal	6440 <raise>
    5d5a:	4505                	li	a0,1
    5d5c:	14f000ef          	jal	ra,66aa <_exit>

00005d60 <__sflush_r>:
__sflush_r():
    5d60:	00c5d783          	lhu	a5,12(a1)
    5d64:	1101                	addi	sp,sp,-32
    5d66:	cc22                	sw	s0,24(sp)
    5d68:	ca26                	sw	s1,20(sp)
    5d6a:	ce06                	sw	ra,28(sp)
    5d6c:	c84a                	sw	s2,16(sp)
    5d6e:	c64e                	sw	s3,12(sp)
    5d70:	0087f713          	andi	a4,a5,8
    5d74:	84aa                	mv	s1,a0
    5d76:	842e                	mv	s0,a1
    5d78:	ef71                	bnez	a4,5e54 <__sflush_r+0xf4>
    5d7a:	41d8                	lw	a4,4(a1)
    5d7c:	00e04d63          	bgtz	a4,5d96 <__sflush_r+0x36>
    5d80:	41b8                	lw	a4,64(a1)
    5d82:	00e04a63          	bgtz	a4,5d96 <__sflush_r+0x36>
    5d86:	4501                	li	a0,0
    5d88:	40f2                	lw	ra,28(sp)
    5d8a:	4462                	lw	s0,24(sp)
    5d8c:	44d2                	lw	s1,20(sp)
    5d8e:	4942                	lw	s2,16(sp)
    5d90:	49b2                	lw	s3,12(sp)
    5d92:	6105                	addi	sp,sp,32
    5d94:	8082                	ret
    5d96:	5458                	lw	a4,44(s0)
    5d98:	d77d                	beqz	a4,5d86 <__sflush_r+0x26>
    5d9a:	0004a903          	lw	s2,0(s1)
    5d9e:	01379693          	slli	a3,a5,0x13
    5da2:	0004a023          	sw	zero,0(s1)
    5da6:	0606dd63          	bgez	a3,5e20 <__sflush_r+0xc0>
    5daa:	4870                	lw	a2,84(s0)
    5dac:	00c45783          	lhu	a5,12(s0)
    5db0:	8b91                	andi	a5,a5,4
    5db2:	c799                	beqz	a5,5dc0 <__sflush_r+0x60>
    5db4:	405c                	lw	a5,4(s0)
    5db6:	8e1d                	sub	a2,a2,a5
    5db8:	585c                	lw	a5,52(s0)
    5dba:	c399                	beqz	a5,5dc0 <__sflush_r+0x60>
    5dbc:	403c                	lw	a5,64(s0)
    5dbe:	8e1d                	sub	a2,a2,a5
    5dc0:	545c                	lw	a5,44(s0)
    5dc2:	500c                	lw	a1,32(s0)
    5dc4:	4681                	li	a3,0
    5dc6:	8526                	mv	a0,s1
    5dc8:	9782                	jalr	a5
    5dca:	57fd                	li	a5,-1
    5dcc:	00c45703          	lhu	a4,12(s0)
    5dd0:	00f51d63          	bne	a0,a5,5dea <__sflush_r+0x8a>
    5dd4:	4094                	lw	a3,0(s1)
    5dd6:	47f5                	li	a5,29
    5dd8:	06d7e863          	bltu	a5,a3,5e48 <__sflush_r+0xe8>
    5ddc:	204007b7          	lui	a5,0x20400
    5de0:	0785                	addi	a5,a5,1
    5de2:	00d7d7b3          	srl	a5,a5,a3
    5de6:	8b85                	andi	a5,a5,1
    5de8:	c3a5                	beqz	a5,5e48 <__sflush_r+0xe8>
    5dea:	481c                	lw	a5,16(s0)
    5dec:	00042223          	sw	zero,4(s0)
    5df0:	c01c                	sw	a5,0(s0)
    5df2:	01371793          	slli	a5,a4,0x13
    5df6:	0007d863          	bgez	a5,5e06 <__sflush_r+0xa6>
    5dfa:	57fd                	li	a5,-1
    5dfc:	00f51463          	bne	a0,a5,5e04 <__sflush_r+0xa4>
    5e00:	409c                	lw	a5,0(s1)
    5e02:	e391                	bnez	a5,5e06 <__sflush_r+0xa6>
    5e04:	c868                	sw	a0,84(s0)
    5e06:	584c                	lw	a1,52(s0)
    5e08:	0124a023          	sw	s2,0(s1)
    5e0c:	ddad                	beqz	a1,5d86 <__sflush_r+0x26>
    5e0e:	04440793          	addi	a5,s0,68
    5e12:	00f58463          	beq	a1,a5,5e1a <__sflush_r+0xba>
    5e16:	8526                	mv	a0,s1
    5e18:	2135                	jal	6244 <_free_r>
    5e1a:	02042a23          	sw	zero,52(s0)
    5e1e:	b7a5                	j	5d86 <__sflush_r+0x26>
    5e20:	500c                	lw	a1,32(s0)
    5e22:	4601                	li	a2,0
    5e24:	4685                	li	a3,1
    5e26:	8526                	mv	a0,s1
    5e28:	9702                	jalr	a4
    5e2a:	57fd                	li	a5,-1
    5e2c:	862a                	mv	a2,a0
    5e2e:	f6f51fe3          	bne	a0,a5,5dac <__sflush_r+0x4c>
    5e32:	409c                	lw	a5,0(s1)
    5e34:	dfa5                	beqz	a5,5dac <__sflush_r+0x4c>
    5e36:	4775                	li	a4,29
    5e38:	00e78563          	beq	a5,a4,5e42 <__sflush_r+0xe2>
    5e3c:	4759                	li	a4,22
    5e3e:	04e79463          	bne	a5,a4,5e86 <__sflush_r+0x126>
    5e42:	0124a023          	sw	s2,0(s1)
    5e46:	b781                	j	5d86 <__sflush_r+0x26>
    5e48:	04076713          	ori	a4,a4,64
    5e4c:	00e41623          	sh	a4,12(s0)
    5e50:	557d                	li	a0,-1
    5e52:	bf1d                	j	5d88 <__sflush_r+0x28>
    5e54:	0105a983          	lw	s3,16(a1)
    5e58:	f20987e3          	beqz	s3,5d86 <__sflush_r+0x26>
    5e5c:	0005a903          	lw	s2,0(a1)
    5e60:	8b8d                	andi	a5,a5,3
    5e62:	0135a023          	sw	s3,0(a1)
    5e66:	41390933          	sub	s2,s2,s3
    5e6a:	4701                	li	a4,0
    5e6c:	e391                	bnez	a5,5e70 <__sflush_r+0x110>
    5e6e:	49d8                	lw	a4,20(a1)
    5e70:	c418                	sw	a4,8(s0)
    5e72:	f1205ae3          	blez	s2,5d86 <__sflush_r+0x26>
    5e76:	541c                	lw	a5,40(s0)
    5e78:	500c                	lw	a1,32(s0)
    5e7a:	86ca                	mv	a3,s2
    5e7c:	864e                	mv	a2,s3
    5e7e:	8526                	mv	a0,s1
    5e80:	9782                	jalr	a5
    5e82:	00a04963          	bgtz	a0,5e94 <__sflush_r+0x134>
    5e86:	00c45783          	lhu	a5,12(s0)
    5e8a:	0407e793          	ori	a5,a5,64
    5e8e:	00f41623          	sh	a5,12(s0)
    5e92:	bf7d                	j	5e50 <__sflush_r+0xf0>
    5e94:	99aa                	add	s3,s3,a0
    5e96:	40a90933          	sub	s2,s2,a0
    5e9a:	bfe1                	j	5e72 <__sflush_r+0x112>

00005e9c <_fflush_r>:
_fflush_r():
    5e9c:	499c                	lw	a5,16(a1)
    5e9e:	c3a5                	beqz	a5,5efe <_fflush_r+0x62>
    5ea0:	1101                	addi	sp,sp,-32
    5ea2:	cc22                	sw	s0,24(sp)
    5ea4:	ce06                	sw	ra,28(sp)
    5ea6:	842a                	mv	s0,a0
    5ea8:	c511                	beqz	a0,5eb4 <_fflush_r+0x18>
    5eaa:	4d1c                	lw	a5,24(a0)
    5eac:	e781                	bnez	a5,5eb4 <_fflush_r+0x18>
    5eae:	c62e                	sw	a1,12(sp)
    5eb0:	2231                	jal	5fbc <__sinit>
    5eb2:	45b2                	lw	a1,12(sp)
    5eb4:	00001797          	auipc	a5,0x1
    5eb8:	d8878793          	addi	a5,a5,-632 # 6c3c <__sf_fake_stdin>
    5ebc:	00f59c63          	bne	a1,a5,5ed4 <_fflush_r+0x38>
    5ec0:	404c                	lw	a1,4(s0)
    5ec2:	00c59783          	lh	a5,12(a1)
    5ec6:	c79d                	beqz	a5,5ef4 <_fflush_r+0x58>
    5ec8:	8522                	mv	a0,s0
    5eca:	4462                	lw	s0,24(sp)
    5ecc:	40f2                	lw	ra,28(sp)
    5ece:	6105                	addi	sp,sp,32
    5ed0:	e91ff06f          	j	5d60 <__sflush_r>
    5ed4:	00001797          	auipc	a5,0x1
    5ed8:	d8878793          	addi	a5,a5,-632 # 6c5c <__sf_fake_stdout>
    5edc:	00f59463          	bne	a1,a5,5ee4 <_fflush_r+0x48>
    5ee0:	440c                	lw	a1,8(s0)
    5ee2:	b7c5                	j	5ec2 <_fflush_r+0x26>
    5ee4:	00001797          	auipc	a5,0x1
    5ee8:	d3878793          	addi	a5,a5,-712 # 6c1c <__sf_fake_stderr>
    5eec:	fcf59be3          	bne	a1,a5,5ec2 <_fflush_r+0x26>
    5ef0:	444c                	lw	a1,12(s0)
    5ef2:	bfc1                	j	5ec2 <_fflush_r+0x26>
    5ef4:	40f2                	lw	ra,28(sp)
    5ef6:	4462                	lw	s0,24(sp)
    5ef8:	4501                	li	a0,0
    5efa:	6105                	addi	sp,sp,32
    5efc:	8082                	ret
    5efe:	4501                	li	a0,0
    5f00:	8082                	ret

00005f02 <std>:
std():
    5f02:	1141                	addi	sp,sp,-16
    5f04:	c422                	sw	s0,8(sp)
    5f06:	c606                	sw	ra,12(sp)
    5f08:	842a                	mv	s0,a0
    5f0a:	00b51623          	sh	a1,12(a0)
    5f0e:	00c51723          	sh	a2,14(a0)
    5f12:	00052023          	sw	zero,0(a0)
    5f16:	00052223          	sw	zero,4(a0)
    5f1a:	00052423          	sw	zero,8(a0)
    5f1e:	06052223          	sw	zero,100(a0)
    5f22:	00052823          	sw	zero,16(a0)
    5f26:	00052a23          	sw	zero,20(a0)
    5f2a:	00052c23          	sw	zero,24(a0)
    5f2e:	4621                	li	a2,8
    5f30:	4581                	li	a1,0
    5f32:	05c50513          	addi	a0,a0,92
    5f36:	a0afa0ef          	jal	ra,140 <memset>
    5f3a:	00000797          	auipc	a5,0x0
    5f3e:	53e78793          	addi	a5,a5,1342 # 6478 <__sread>
    5f42:	d05c                	sw	a5,36(s0)
    5f44:	00000797          	auipc	a5,0x0
    5f48:	56478793          	addi	a5,a5,1380 # 64a8 <__swrite>
    5f4c:	d41c                	sw	a5,40(s0)
    5f4e:	00000797          	auipc	a5,0x0
    5f52:	5a878793          	addi	a5,a5,1448 # 64f6 <__sseek>
    5f56:	d45c                	sw	a5,44(s0)
    5f58:	00000797          	auipc	a5,0x0
    5f5c:	5d478793          	addi	a5,a5,1492 # 652c <__sclose>
    5f60:	d000                	sw	s0,32(s0)
    5f62:	d81c                	sw	a5,48(s0)
    5f64:	40b2                	lw	ra,12(sp)
    5f66:	4422                	lw	s0,8(sp)
    5f68:	0141                	addi	sp,sp,16
    5f6a:	8082                	ret

00005f6c <_cleanup_r>:
_cleanup_r():
    5f6c:	00000597          	auipc	a1,0x0
    5f70:	f3058593          	addi	a1,a1,-208 # 5e9c <_fflush_r>
    5f74:	aa91                	j	60c8 <_fwalk_reent>

00005f76 <__sfmoreglue>:
__sfmoreglue():
    5f76:	1141                	addi	sp,sp,-16
    5f78:	c226                	sw	s1,4(sp)
    5f7a:	06800613          	li	a2,104
    5f7e:	fff58493          	addi	s1,a1,-1
    5f82:	02c484b3          	mul	s1,s1,a2
    5f86:	c04a                	sw	s2,0(sp)
    5f88:	892e                	mv	s2,a1
    5f8a:	c422                	sw	s0,8(sp)
    5f8c:	c606                	sw	ra,12(sp)
    5f8e:	07448593          	addi	a1,s1,116
    5f92:	2e99                	jal	62e8 <_malloc_r>
    5f94:	842a                	mv	s0,a0
    5f96:	cd01                	beqz	a0,5fae <__sfmoreglue+0x38>
    5f98:	00052023          	sw	zero,0(a0)
    5f9c:	01252223          	sw	s2,4(a0)
    5fa0:	0531                	addi	a0,a0,12
    5fa2:	c408                	sw	a0,8(s0)
    5fa4:	06848613          	addi	a2,s1,104
    5fa8:	4581                	li	a1,0
    5faa:	996fa0ef          	jal	ra,140 <memset>
    5fae:	8522                	mv	a0,s0
    5fb0:	40b2                	lw	ra,12(sp)
    5fb2:	4422                	lw	s0,8(sp)
    5fb4:	4492                	lw	s1,4(sp)
    5fb6:	4902                	lw	s2,0(sp)
    5fb8:	0141                	addi	sp,sp,16
    5fba:	8082                	ret

00005fbc <__sinit>:
__sinit():
    5fbc:	4d1c                	lw	a5,24(a0)
    5fbe:	e7a5                	bnez	a5,6026 <__sinit+0x6a>
    5fc0:	1141                	addi	sp,sp,-16
    5fc2:	c606                	sw	ra,12(sp)
    5fc4:	c422                	sw	s0,8(sp)
    5fc6:	00000797          	auipc	a5,0x0
    5fca:	fa678793          	addi	a5,a5,-90 # 5f6c <_cleanup_r>
    5fce:	d51c                	sw	a5,40(a0)
    5fd0:	81418793          	addi	a5,gp,-2028 # 2000009c <_global_impure_ptr>
    5fd4:	439c                	lw	a5,0(a5)
    5fd6:	04052423          	sw	zero,72(a0)
    5fda:	04052623          	sw	zero,76(a0)
    5fde:	04052823          	sw	zero,80(a0)
    5fe2:	00f51463          	bne	a0,a5,5fea <__sinit+0x2e>
    5fe6:	4785                	li	a5,1
    5fe8:	cd1c                	sw	a5,24(a0)
    5fea:	842a                	mv	s0,a0
    5fec:	2835                	jal	6028 <__sfp>
    5fee:	c048                	sw	a0,4(s0)
    5ff0:	8522                	mv	a0,s0
    5ff2:	281d                	jal	6028 <__sfp>
    5ff4:	c408                	sw	a0,8(s0)
    5ff6:	8522                	mv	a0,s0
    5ff8:	2805                	jal	6028 <__sfp>
    5ffa:	c448                	sw	a0,12(s0)
    5ffc:	4048                	lw	a0,4(s0)
    5ffe:	4601                	li	a2,0
    6000:	4591                	li	a1,4
    6002:	f01ff0ef          	jal	ra,5f02 <std>
    6006:	4408                	lw	a0,8(s0)
    6008:	4605                	li	a2,1
    600a:	45a5                	li	a1,9
    600c:	ef7ff0ef          	jal	ra,5f02 <std>
    6010:	4448                	lw	a0,12(s0)
    6012:	4609                	li	a2,2
    6014:	45c9                	li	a1,18
    6016:	eedff0ef          	jal	ra,5f02 <std>
    601a:	4785                	li	a5,1
    601c:	cc1c                	sw	a5,24(s0)
    601e:	40b2                	lw	ra,12(sp)
    6020:	4422                	lw	s0,8(sp)
    6022:	0141                	addi	sp,sp,16
    6024:	8082                	ret
    6026:	8082                	ret

00006028 <__sfp>:
__sfp():
    6028:	1141                	addi	sp,sp,-16
    602a:	81418793          	addi	a5,gp,-2028 # 2000009c <_global_impure_ptr>
    602e:	c226                	sw	s1,4(sp)
    6030:	4384                	lw	s1,0(a5)
    6032:	c04a                	sw	s2,0(sp)
    6034:	c606                	sw	ra,12(sp)
    6036:	4c9c                	lw	a5,24(s1)
    6038:	c422                	sw	s0,8(sp)
    603a:	892a                	mv	s2,a0
    603c:	e781                	bnez	a5,6044 <__sfp+0x1c>
    603e:	8526                	mv	a0,s1
    6040:	f7dff0ef          	jal	ra,5fbc <__sinit>
    6044:	04848493          	addi	s1,s1,72
    6048:	4480                	lw	s0,8(s1)
    604a:	40dc                	lw	a5,4(s1)
    604c:	17fd                	addi	a5,a5,-1
    604e:	0007d663          	bgez	a5,605a <__sfp+0x32>
    6052:	409c                	lw	a5,0(s1)
    6054:	cfb9                	beqz	a5,60b2 <__sfp+0x8a>
    6056:	4084                	lw	s1,0(s1)
    6058:	bfc5                	j	6048 <__sfp+0x20>
    605a:	00c41703          	lh	a4,12(s0)
    605e:	e739                	bnez	a4,60ac <__sfp+0x84>
    6060:	77c1                	lui	a5,0xffff0
    6062:	0785                	addi	a5,a5,1
    6064:	06042223          	sw	zero,100(s0)
    6068:	00042023          	sw	zero,0(s0)
    606c:	00042223          	sw	zero,4(s0)
    6070:	00042423          	sw	zero,8(s0)
    6074:	c45c                	sw	a5,12(s0)
    6076:	00042823          	sw	zero,16(s0)
    607a:	00042a23          	sw	zero,20(s0)
    607e:	00042c23          	sw	zero,24(s0)
    6082:	4621                	li	a2,8
    6084:	4581                	li	a1,0
    6086:	05c40513          	addi	a0,s0,92
    608a:	8b6fa0ef          	jal	ra,140 <memset>
    608e:	02042a23          	sw	zero,52(s0)
    6092:	02042c23          	sw	zero,56(s0)
    6096:	04042423          	sw	zero,72(s0)
    609a:	04042623          	sw	zero,76(s0)
    609e:	8522                	mv	a0,s0
    60a0:	40b2                	lw	ra,12(sp)
    60a2:	4422                	lw	s0,8(sp)
    60a4:	4492                	lw	s1,4(sp)
    60a6:	4902                	lw	s2,0(sp)
    60a8:	0141                	addi	sp,sp,16
    60aa:	8082                	ret
    60ac:	06840413          	addi	s0,s0,104
    60b0:	bf71                	j	604c <__sfp+0x24>
    60b2:	4591                	li	a1,4
    60b4:	854a                	mv	a0,s2
    60b6:	ec1ff0ef          	jal	ra,5f76 <__sfmoreglue>
    60ba:	c088                	sw	a0,0(s1)
    60bc:	fd49                	bnez	a0,6056 <__sfp+0x2e>
    60be:	47b1                	li	a5,12
    60c0:	00f92023          	sw	a5,0(s2)
    60c4:	4401                	li	s0,0
    60c6:	bfe1                	j	609e <__sfp+0x76>

000060c8 <_fwalk_reent>:
_fwalk_reent():
    60c8:	7179                	addi	sp,sp,-48
    60ca:	d422                	sw	s0,40(sp)
    60cc:	d04a                	sw	s2,32(sp)
    60ce:	cc52                	sw	s4,24(sp)
    60d0:	ca56                	sw	s5,20(sp)
    60d2:	c85a                	sw	s6,16(sp)
    60d4:	c65e                	sw	s7,12(sp)
    60d6:	d606                	sw	ra,44(sp)
    60d8:	d226                	sw	s1,36(sp)
    60da:	ce4e                	sw	s3,28(sp)
    60dc:	8a2a                	mv	s4,a0
    60de:	8aae                	mv	s5,a1
    60e0:	04850413          	addi	s0,a0,72
    60e4:	4901                	li	s2,0
    60e6:	4b05                	li	s6,1
    60e8:	5bfd                	li	s7,-1
    60ea:	ec09                	bnez	s0,6104 <_fwalk_reent+0x3c>
    60ec:	50b2                	lw	ra,44(sp)
    60ee:	5422                	lw	s0,40(sp)
    60f0:	854a                	mv	a0,s2
    60f2:	5492                	lw	s1,36(sp)
    60f4:	5902                	lw	s2,32(sp)
    60f6:	49f2                	lw	s3,28(sp)
    60f8:	4a62                	lw	s4,24(sp)
    60fa:	4ad2                	lw	s5,20(sp)
    60fc:	4b42                	lw	s6,16(sp)
    60fe:	4bb2                	lw	s7,12(sp)
    6100:	6145                	addi	sp,sp,48
    6102:	8082                	ret
    6104:	4404                	lw	s1,8(s0)
    6106:	00442983          	lw	s3,4(s0)
    610a:	19fd                	addi	s3,s3,-1
    610c:	0009d463          	bgez	s3,6114 <_fwalk_reent+0x4c>
    6110:	4000                	lw	s0,0(s0)
    6112:	bfe1                	j	60ea <_fwalk_reent+0x22>
    6114:	00c4d783          	lhu	a5,12(s1)
    6118:	00fb7b63          	bgeu	s6,a5,612e <_fwalk_reent+0x66>
    611c:	00e49783          	lh	a5,14(s1)
    6120:	01778763          	beq	a5,s7,612e <_fwalk_reent+0x66>
    6124:	85a6                	mv	a1,s1
    6126:	8552                	mv	a0,s4
    6128:	9a82                	jalr	s5
    612a:	00a96933          	or	s2,s2,a0
    612e:	06848493          	addi	s1,s1,104
    6132:	bfe1                	j	610a <_fwalk_reent+0x42>

00006134 <__swhatbuf_r>:
__swhatbuf_r():
    6134:	7119                	addi	sp,sp,-128
    6136:	daa6                	sw	s1,116(sp)
    6138:	84ae                	mv	s1,a1
    613a:	00e59583          	lh	a1,14(a1)
    613e:	dca2                	sw	s0,120(sp)
    6140:	de86                	sw	ra,124(sp)
    6142:	8432                	mv	s0,a2
    6144:	0005dc63          	bgez	a1,615c <__swhatbuf_r+0x28>
    6148:	00c4d783          	lhu	a5,12(s1)
    614c:	0006a023          	sw	zero,0(a3)
    6150:	0807f793          	andi	a5,a5,128
    6154:	e39d                	bnez	a5,617a <__swhatbuf_r+0x46>
    6156:	40000793          	li	a5,1024
    615a:	a015                	j	617e <__swhatbuf_r+0x4a>
    615c:	0830                	addi	a2,sp,24
    615e:	c636                	sw	a3,12(sp)
    6160:	2125                	jal	6588 <_fstat_r>
    6162:	46b2                	lw	a3,12(sp)
    6164:	fe0542e3          	bltz	a0,6148 <__swhatbuf_r+0x14>
    6168:	4772                	lw	a4,28(sp)
    616a:	67bd                	lui	a5,0xf
    616c:	8ff9                	and	a5,a5,a4
    616e:	7779                	lui	a4,0xffffe
    6170:	97ba                	add	a5,a5,a4
    6172:	0017b793          	seqz	a5,a5
    6176:	c29c                	sw	a5,0(a3)
    6178:	bff9                	j	6156 <__swhatbuf_r+0x22>
    617a:	04000793          	li	a5,64
    617e:	c01c                	sw	a5,0(s0)
    6180:	50f6                	lw	ra,124(sp)
    6182:	5466                	lw	s0,120(sp)
    6184:	54d6                	lw	s1,116(sp)
    6186:	4501                	li	a0,0
    6188:	6109                	addi	sp,sp,128
    618a:	8082                	ret

0000618c <__smakebuf_r>:
__smakebuf_r():
    618c:	00c5d783          	lhu	a5,12(a1)
    6190:	1101                	addi	sp,sp,-32
    6192:	cc22                	sw	s0,24(sp)
    6194:	ce06                	sw	ra,28(sp)
    6196:	ca26                	sw	s1,20(sp)
    6198:	c84a                	sw	s2,16(sp)
    619a:	8b89                	andi	a5,a5,2
    619c:	842e                	mv	s0,a1
    619e:	cf89                	beqz	a5,61b8 <__smakebuf_r+0x2c>
    61a0:	04740793          	addi	a5,s0,71
    61a4:	c01c                	sw	a5,0(s0)
    61a6:	c81c                	sw	a5,16(s0)
    61a8:	4785                	li	a5,1
    61aa:	c85c                	sw	a5,20(s0)
    61ac:	40f2                	lw	ra,28(sp)
    61ae:	4462                	lw	s0,24(sp)
    61b0:	44d2                	lw	s1,20(sp)
    61b2:	4942                	lw	s2,16(sp)
    61b4:	6105                	addi	sp,sp,32
    61b6:	8082                	ret
    61b8:	0074                	addi	a3,sp,12
    61ba:	0030                	addi	a2,sp,8
    61bc:	84aa                	mv	s1,a0
    61be:	f77ff0ef          	jal	ra,6134 <__swhatbuf_r>
    61c2:	45a2                	lw	a1,8(sp)
    61c4:	892a                	mv	s2,a0
    61c6:	8526                	mv	a0,s1
    61c8:	2205                	jal	62e8 <_malloc_r>
    61ca:	ed01                	bnez	a0,61e2 <__smakebuf_r+0x56>
    61cc:	00c41783          	lh	a5,12(s0)
    61d0:	2007f713          	andi	a4,a5,512
    61d4:	ff61                	bnez	a4,61ac <__smakebuf_r+0x20>
    61d6:	9bf1                	andi	a5,a5,-4
    61d8:	0027e793          	ori	a5,a5,2
    61dc:	00f41623          	sh	a5,12(s0)
    61e0:	b7c1                	j	61a0 <__smakebuf_r+0x14>
    61e2:	00000797          	auipc	a5,0x0
    61e6:	d8a78793          	addi	a5,a5,-630 # 5f6c <_cleanup_r>
    61ea:	d49c                	sw	a5,40(s1)
    61ec:	00c45783          	lhu	a5,12(s0)
    61f0:	c008                	sw	a0,0(s0)
    61f2:	c808                	sw	a0,16(s0)
    61f4:	0807e793          	ori	a5,a5,128
    61f8:	00f41623          	sh	a5,12(s0)
    61fc:	47a2                	lw	a5,8(sp)
    61fe:	c85c                	sw	a5,20(s0)
    6200:	47b2                	lw	a5,12(sp)
    6202:	cf89                	beqz	a5,621c <__smakebuf_r+0x90>
    6204:	00e41583          	lh	a1,14(s0)
    6208:	8526                	mv	a0,s1
    620a:	2665                	jal	65b2 <_isatty_r>
    620c:	c901                	beqz	a0,621c <__smakebuf_r+0x90>
    620e:	00c45783          	lhu	a5,12(s0)
    6212:	9bf1                	andi	a5,a5,-4
    6214:	0017e793          	ori	a5,a5,1
    6218:	00f41623          	sh	a5,12(s0)
    621c:	00c45783          	lhu	a5,12(s0)
    6220:	00f96933          	or	s2,s2,a5
    6224:	01241623          	sh	s2,12(s0)
    6228:	b751                	j	61ac <__smakebuf_r+0x20>

0000622a <memchr>:
memchr():
    622a:	0ff5f593          	andi	a1,a1,255
    622e:	962a                	add	a2,a2,a0
    6230:	00c51463          	bne	a0,a2,6238 <memchr+0xe>
    6234:	4501                	li	a0,0
    6236:	8082                	ret
    6238:	00054783          	lbu	a5,0(a0)
    623c:	feb78de3          	beq	a5,a1,6236 <memchr+0xc>
    6240:	0505                	addi	a0,a0,1
    6242:	b7fd                	j	6230 <memchr+0x6>

00006244 <_free_r>:
_free_r():
    6244:	c1cd                	beqz	a1,62e6 <_free_r+0xa2>
    6246:	ffc5a783          	lw	a5,-4(a1)
    624a:	1141                	addi	sp,sp,-16
    624c:	c422                	sw	s0,8(sp)
    624e:	c606                	sw	ra,12(sp)
    6250:	c226                	sw	s1,4(sp)
    6252:	ffc58413          	addi	s0,a1,-4
    6256:	0007d363          	bgez	a5,625c <_free_r+0x18>
    625a:	943e                	add	s0,s0,a5
    625c:	84aa                	mv	s1,a0
    625e:	2665                	jal	6606 <__malloc_lock>
    6260:	84818793          	addi	a5,gp,-1976 # 200000d0 <__malloc_free_list>
    6264:	439c                	lw	a5,0(a5)
    6266:	eb99                	bnez	a5,627c <_free_r+0x38>
    6268:	00042223          	sw	zero,4(s0)
    626c:	8481a423          	sw	s0,-1976(gp) # 200000d0 <__malloc_free_list>
    6270:	4422                	lw	s0,8(sp)
    6272:	40b2                	lw	ra,12(sp)
    6274:	8526                	mv	a0,s1
    6276:	4492                	lw	s1,4(sp)
    6278:	0141                	addi	sp,sp,16
    627a:	a679                	j	6608 <__malloc_unlock>
    627c:	00f47e63          	bgeu	s0,a5,6298 <_free_r+0x54>
    6280:	4014                	lw	a3,0(s0)
    6282:	00d40733          	add	a4,s0,a3
    6286:	00e79663          	bne	a5,a4,6292 <_free_r+0x4e>
    628a:	4398                	lw	a4,0(a5)
    628c:	43dc                	lw	a5,4(a5)
    628e:	9736                	add	a4,a4,a3
    6290:	c018                	sw	a4,0(s0)
    6292:	c05c                	sw	a5,4(s0)
    6294:	bfe1                	j	626c <_free_r+0x28>
    6296:	87ba                	mv	a5,a4
    6298:	43d8                	lw	a4,4(a5)
    629a:	c319                	beqz	a4,62a0 <_free_r+0x5c>
    629c:	fee47de3          	bgeu	s0,a4,6296 <_free_r+0x52>
    62a0:	4394                	lw	a3,0(a5)
    62a2:	00d78633          	add	a2,a5,a3
    62a6:	00861f63          	bne	a2,s0,62c4 <_free_r+0x80>
    62aa:	4010                	lw	a2,0(s0)
    62ac:	96b2                	add	a3,a3,a2
    62ae:	c394                	sw	a3,0(a5)
    62b0:	00d78633          	add	a2,a5,a3
    62b4:	fac71ee3          	bne	a4,a2,6270 <_free_r+0x2c>
    62b8:	4310                	lw	a2,0(a4)
    62ba:	4358                	lw	a4,4(a4)
    62bc:	96b2                	add	a3,a3,a2
    62be:	c394                	sw	a3,0(a5)
    62c0:	c3d8                	sw	a4,4(a5)
    62c2:	b77d                	j	6270 <_free_r+0x2c>
    62c4:	00c47563          	bgeu	s0,a2,62ce <_free_r+0x8a>
    62c8:	47b1                	li	a5,12
    62ca:	c09c                	sw	a5,0(s1)
    62cc:	b755                	j	6270 <_free_r+0x2c>
    62ce:	4010                	lw	a2,0(s0)
    62d0:	00c406b3          	add	a3,s0,a2
    62d4:	00d71663          	bne	a4,a3,62e0 <_free_r+0x9c>
    62d8:	4314                	lw	a3,0(a4)
    62da:	4358                	lw	a4,4(a4)
    62dc:	96b2                	add	a3,a3,a2
    62de:	c014                	sw	a3,0(s0)
    62e0:	c058                	sw	a4,4(s0)
    62e2:	c3c0                	sw	s0,4(a5)
    62e4:	b771                	j	6270 <_free_r+0x2c>
    62e6:	8082                	ret

000062e8 <_malloc_r>:
_malloc_r():
    62e8:	1101                	addi	sp,sp,-32
    62ea:	ca26                	sw	s1,20(sp)
    62ec:	00358493          	addi	s1,a1,3
    62f0:	98f1                	andi	s1,s1,-4
    62f2:	ce06                	sw	ra,28(sp)
    62f4:	cc22                	sw	s0,24(sp)
    62f6:	c84a                	sw	s2,16(sp)
    62f8:	c64e                	sw	s3,12(sp)
    62fa:	04a1                	addi	s1,s1,8
    62fc:	47b1                	li	a5,12
    62fe:	04f4f163          	bgeu	s1,a5,6340 <_malloc_r+0x58>
    6302:	44b1                	li	s1,12
    6304:	04b4e063          	bltu	s1,a1,6344 <_malloc_r+0x5c>
    6308:	892a                	mv	s2,a0
    630a:	2cf5                	jal	6606 <__malloc_lock>
    630c:	84818793          	addi	a5,gp,-1976 # 200000d0 <__malloc_free_list>
    6310:	4398                	lw	a4,0(a5)
    6312:	843a                	mv	s0,a4
    6314:	e031                	bnez	s0,6358 <_malloc_r+0x70>
    6316:	84c18793          	addi	a5,gp,-1972 # 200000d4 <__malloc_sbrk_start>
    631a:	439c                	lw	a5,0(a5)
    631c:	e791                	bnez	a5,6328 <_malloc_r+0x40>
    631e:	4581                	li	a1,0
    6320:	854a                	mv	a0,s2
    6322:	2851                	jal	63b6 <_sbrk_r>
    6324:	84a1a623          	sw	a0,-1972(gp) # 200000d4 <__malloc_sbrk_start>
    6328:	85a6                	mv	a1,s1
    632a:	854a                	mv	a0,s2
    632c:	2069                	jal	63b6 <_sbrk_r>
    632e:	59fd                	li	s3,-1
    6330:	07351763          	bne	a0,s3,639e <_malloc_r+0xb6>
    6334:	47b1                	li	a5,12
    6336:	00f92023          	sw	a5,0(s2)
    633a:	854a                	mv	a0,s2
    633c:	24f1                	jal	6608 <__malloc_unlock>
    633e:	a029                	j	6348 <_malloc_r+0x60>
    6340:	fc04d2e3          	bgez	s1,6304 <_malloc_r+0x1c>
    6344:	47b1                	li	a5,12
    6346:	c11c                	sw	a5,0(a0)
    6348:	4501                	li	a0,0
    634a:	40f2                	lw	ra,28(sp)
    634c:	4462                	lw	s0,24(sp)
    634e:	44d2                	lw	s1,20(sp)
    6350:	4942                	lw	s2,16(sp)
    6352:	49b2                	lw	s3,12(sp)
    6354:	6105                	addi	sp,sp,32
    6356:	8082                	ret
    6358:	401c                	lw	a5,0(s0)
    635a:	8f85                	sub	a5,a5,s1
    635c:	0207ce63          	bltz	a5,6398 <_malloc_r+0xb0>
    6360:	46ad                	li	a3,11
    6362:	00f6f663          	bgeu	a3,a5,636e <_malloc_r+0x86>
    6366:	c01c                	sw	a5,0(s0)
    6368:	943e                	add	s0,s0,a5
    636a:	c004                	sw	s1,0(s0)
    636c:	a031                	j	6378 <_malloc_r+0x90>
    636e:	405c                	lw	a5,4(s0)
    6370:	02871263          	bne	a4,s0,6394 <_malloc_r+0xac>
    6374:	84f1a423          	sw	a5,-1976(gp) # 200000d0 <__malloc_free_list>
    6378:	854a                	mv	a0,s2
    637a:	2479                	jal	6608 <__malloc_unlock>
    637c:	00b40513          	addi	a0,s0,11
    6380:	00440793          	addi	a5,s0,4
    6384:	9961                	andi	a0,a0,-8
    6386:	40f50733          	sub	a4,a0,a5
    638a:	d361                	beqz	a4,634a <_malloc_r+0x62>
    638c:	943a                	add	s0,s0,a4
    638e:	8f89                	sub	a5,a5,a0
    6390:	c01c                	sw	a5,0(s0)
    6392:	bf65                	j	634a <_malloc_r+0x62>
    6394:	c35c                	sw	a5,4(a4)
    6396:	b7cd                	j	6378 <_malloc_r+0x90>
    6398:	8722                	mv	a4,s0
    639a:	4040                	lw	s0,4(s0)
    639c:	bfa5                	j	6314 <_malloc_r+0x2c>
    639e:	00350413          	addi	s0,a0,3
    63a2:	9871                	andi	s0,s0,-4
    63a4:	fc8503e3          	beq	a0,s0,636a <_malloc_r+0x82>
    63a8:	40a405b3          	sub	a1,s0,a0
    63ac:	854a                	mv	a0,s2
    63ae:	2021                	jal	63b6 <_sbrk_r>
    63b0:	fb351de3          	bne	a0,s3,636a <_malloc_r+0x82>
    63b4:	b741                	j	6334 <_malloc_r+0x4c>

000063b6 <_sbrk_r>:
_sbrk_r():
    63b6:	1141                	addi	sp,sp,-16
    63b8:	c422                	sw	s0,8(sp)
    63ba:	842a                	mv	s0,a0
    63bc:	852e                	mv	a0,a1
    63be:	9801a823          	sw	zero,-1648(gp) # 20000218 <errno>
    63c2:	c606                	sw	ra,12(sp)
    63c4:	24d9                	jal	668a <_sbrk>
    63c6:	57fd                	li	a5,-1
    63c8:	00f51763          	bne	a0,a5,63d6 <_sbrk_r+0x20>
    63cc:	99018793          	addi	a5,gp,-1648 # 20000218 <errno>
    63d0:	439c                	lw	a5,0(a5)
    63d2:	c391                	beqz	a5,63d6 <_sbrk_r+0x20>
    63d4:	c01c                	sw	a5,0(s0)
    63d6:	40b2                	lw	ra,12(sp)
    63d8:	4422                	lw	s0,8(sp)
    63da:	0141                	addi	sp,sp,16
    63dc:	8082                	ret

000063de <_raise_r>:
_raise_r():
    63de:	47fd                	li	a5,31
    63e0:	00b7f663          	bgeu	a5,a1,63ec <_raise_r+0xe>
    63e4:	47d9                	li	a5,22
    63e6:	c11c                	sw	a5,0(a0)
    63e8:	557d                	li	a0,-1
    63ea:	8082                	ret
    63ec:	417c                	lw	a5,68(a0)
    63ee:	1101                	addi	sp,sp,-32
    63f0:	cc22                	sw	s0,24(sp)
    63f2:	ce06                	sw	ra,28(sp)
    63f4:	862e                	mv	a2,a1
    63f6:	842a                	mv	s0,a0
    63f8:	c791                	beqz	a5,6404 <_raise_r+0x26>
    63fa:	00259713          	slli	a4,a1,0x2
    63fe:	97ba                	add	a5,a5,a4
    6400:	4398                	lw	a4,0(a5)
    6402:	eb19                	bnez	a4,6418 <_raise_r+0x3a>
    6404:	8522                	mv	a0,s0
    6406:	c632                	sw	a2,12(sp)
    6408:	20bd                	jal	6476 <_getpid_r>
    640a:	85aa                	mv	a1,a0
    640c:	8522                	mv	a0,s0
    640e:	4462                	lw	s0,24(sp)
    6410:	4632                	lw	a2,12(sp)
    6412:	40f2                	lw	ra,28(sp)
    6414:	6105                	addi	sp,sp,32
    6416:	a81d                	j	644c <_kill_r>
    6418:	4685                	li	a3,1
    641a:	4501                	li	a0,0
    641c:	00d70863          	beq	a4,a3,642c <_raise_r+0x4e>
    6420:	56fd                	li	a3,-1
    6422:	00d71963          	bne	a4,a3,6434 <_raise_r+0x56>
    6426:	47d9                	li	a5,22
    6428:	c01c                	sw	a5,0(s0)
    642a:	4505                	li	a0,1
    642c:	40f2                	lw	ra,28(sp)
    642e:	4462                	lw	s0,24(sp)
    6430:	6105                	addi	sp,sp,32
    6432:	8082                	ret
    6434:	852e                	mv	a0,a1
    6436:	0007a023          	sw	zero,0(a5)
    643a:	9702                	jalr	a4
    643c:	4501                	li	a0,0
    643e:	b7fd                	j	642c <_raise_r+0x4e>

00006440 <raise>:
raise():
    6440:	80818793          	addi	a5,gp,-2040 # 20000090 <_impure_ptr>
    6444:	85aa                	mv	a1,a0
    6446:	4388                	lw	a0,0(a5)
    6448:	f97ff06f          	j	63de <_raise_r>

0000644c <_kill_r>:
_kill_r():
    644c:	1141                	addi	sp,sp,-16
    644e:	c422                	sw	s0,8(sp)
    6450:	842a                	mv	s0,a0
    6452:	852e                	mv	a0,a1
    6454:	85b2                	mv	a1,a2
    6456:	9801a823          	sw	zero,-1648(gp) # 20000218 <errno>
    645a:	c606                	sw	ra,12(sp)
    645c:	2429                	jal	6666 <_kill>
    645e:	57fd                	li	a5,-1
    6460:	00f51763          	bne	a0,a5,646e <_kill_r+0x22>
    6464:	99018793          	addi	a5,gp,-1648 # 20000218 <errno>
    6468:	439c                	lw	a5,0(a5)
    646a:	c391                	beqz	a5,646e <_kill_r+0x22>
    646c:	c01c                	sw	a5,0(s0)
    646e:	40b2                	lw	ra,12(sp)
    6470:	4422                	lw	s0,8(sp)
    6472:	0141                	addi	sp,sp,16
    6474:	8082                	ret

00006476 <_getpid_r>:
_getpid_r():
    6476:	aae1                	j	664e <_getpid>

00006478 <__sread>:
__sread():
    6478:	1141                	addi	sp,sp,-16
    647a:	c422                	sw	s0,8(sp)
    647c:	842e                	mv	s0,a1
    647e:	00e59583          	lh	a1,14(a1)
    6482:	c606                	sw	ra,12(sp)
    6484:	2259                	jal	660a <_read_r>
    6486:	00054963          	bltz	a0,6498 <__sread+0x20>
    648a:	487c                	lw	a5,84(s0)
    648c:	97aa                	add	a5,a5,a0
    648e:	c87c                	sw	a5,84(s0)
    6490:	40b2                	lw	ra,12(sp)
    6492:	4422                	lw	s0,8(sp)
    6494:	0141                	addi	sp,sp,16
    6496:	8082                	ret
    6498:	00c45783          	lhu	a5,12(s0)
    649c:	777d                	lui	a4,0xfffff
    649e:	177d                	addi	a4,a4,-1
    64a0:	8ff9                	and	a5,a5,a4
    64a2:	00f41623          	sh	a5,12(s0)
    64a6:	b7ed                	j	6490 <__sread+0x18>

000064a8 <__swrite>:
__swrite():
    64a8:	00c5d783          	lhu	a5,12(a1)
    64ac:	1101                	addi	sp,sp,-32
    64ae:	cc22                	sw	s0,24(sp)
    64b0:	ca26                	sw	s1,20(sp)
    64b2:	c84a                	sw	s2,16(sp)
    64b4:	c64e                	sw	s3,12(sp)
    64b6:	ce06                	sw	ra,28(sp)
    64b8:	1007f793          	andi	a5,a5,256
    64bc:	84aa                	mv	s1,a0
    64be:	842e                	mv	s0,a1
    64c0:	8932                	mv	s2,a2
    64c2:	89b6                	mv	s3,a3
    64c4:	c791                	beqz	a5,64d0 <__swrite+0x28>
    64c6:	00e59583          	lh	a1,14(a1)
    64ca:	4689                	li	a3,2
    64cc:	4601                	li	a2,0
    64ce:	2231                	jal	65da <_lseek_r>
    64d0:	00c45783          	lhu	a5,12(s0)
    64d4:	777d                	lui	a4,0xfffff
    64d6:	177d                	addi	a4,a4,-1
    64d8:	8ff9                	and	a5,a5,a4
    64da:	00f41623          	sh	a5,12(s0)
    64de:	00e41583          	lh	a1,14(s0)
    64e2:	4462                	lw	s0,24(sp)
    64e4:	40f2                	lw	ra,28(sp)
    64e6:	86ce                	mv	a3,s3
    64e8:	864a                	mv	a2,s2
    64ea:	49b2                	lw	s3,12(sp)
    64ec:	4942                	lw	s2,16(sp)
    64ee:	8526                	mv	a0,s1
    64f0:	44d2                	lw	s1,20(sp)
    64f2:	6105                	addi	sp,sp,32
    64f4:	a83d                	j	6532 <_write_r>

000064f6 <__sseek>:
__sseek():
    64f6:	1141                	addi	sp,sp,-16
    64f8:	c422                	sw	s0,8(sp)
    64fa:	842e                	mv	s0,a1
    64fc:	00e59583          	lh	a1,14(a1)
    6500:	c606                	sw	ra,12(sp)
    6502:	28e1                	jal	65da <_lseek_r>
    6504:	57fd                	li	a5,-1
    6506:	00c45703          	lhu	a4,12(s0)
    650a:	00f51b63          	bne	a0,a5,6520 <__sseek+0x2a>
    650e:	77fd                	lui	a5,0xfffff
    6510:	17fd                	addi	a5,a5,-1
    6512:	8ff9                	and	a5,a5,a4
    6514:	00f41623          	sh	a5,12(s0)
    6518:	40b2                	lw	ra,12(sp)
    651a:	4422                	lw	s0,8(sp)
    651c:	0141                	addi	sp,sp,16
    651e:	8082                	ret
    6520:	6785                	lui	a5,0x1
    6522:	8fd9                	or	a5,a5,a4
    6524:	00f41623          	sh	a5,12(s0)
    6528:	c868                	sw	a0,84(s0)
    652a:	b7fd                	j	6518 <__sseek+0x22>

0000652c <__sclose>:
__sclose():
    652c:	00e59583          	lh	a1,14(a1)
    6530:	a805                	j	6560 <_close_r>

00006532 <_write_r>:
_write_r():
    6532:	1141                	addi	sp,sp,-16
    6534:	c422                	sw	s0,8(sp)
    6536:	842a                	mv	s0,a0
    6538:	852e                	mv	a0,a1
    653a:	85b2                	mv	a1,a2
    653c:	8636                	mv	a2,a3
    653e:	9801a823          	sw	zero,-1648(gp) # 20000218 <errno>
    6542:	c606                	sw	ra,12(sp)
    6544:	ef2fd0ef          	jal	ra,3c36 <_write>
    6548:	57fd                	li	a5,-1
    654a:	00f51763          	bne	a0,a5,6558 <_write_r+0x26>
    654e:	99018793          	addi	a5,gp,-1648 # 20000218 <errno>
    6552:	439c                	lw	a5,0(a5)
    6554:	c391                	beqz	a5,6558 <_write_r+0x26>
    6556:	c01c                	sw	a5,0(s0)
    6558:	40b2                	lw	ra,12(sp)
    655a:	4422                	lw	s0,8(sp)
    655c:	0141                	addi	sp,sp,16
    655e:	8082                	ret

00006560 <_close_r>:
_close_r():
    6560:	1141                	addi	sp,sp,-16
    6562:	c422                	sw	s0,8(sp)
    6564:	842a                	mv	s0,a0
    6566:	852e                	mv	a0,a1
    6568:	9801a823          	sw	zero,-1648(gp) # 20000218 <errno>
    656c:	c606                	sw	ra,12(sp)
    656e:	20e1                	jal	6636 <_close>
    6570:	57fd                	li	a5,-1
    6572:	00f51763          	bne	a0,a5,6580 <_close_r+0x20>
    6576:	99018793          	addi	a5,gp,-1648 # 20000218 <errno>
    657a:	439c                	lw	a5,0(a5)
    657c:	c391                	beqz	a5,6580 <_close_r+0x20>
    657e:	c01c                	sw	a5,0(s0)
    6580:	40b2                	lw	ra,12(sp)
    6582:	4422                	lw	s0,8(sp)
    6584:	0141                	addi	sp,sp,16
    6586:	8082                	ret

00006588 <_fstat_r>:
_fstat_r():
    6588:	1141                	addi	sp,sp,-16
    658a:	c422                	sw	s0,8(sp)
    658c:	842a                	mv	s0,a0
    658e:	852e                	mv	a0,a1
    6590:	85b2                	mv	a1,a2
    6592:	9801a823          	sw	zero,-1648(gp) # 20000218 <errno>
    6596:	c606                	sw	ra,12(sp)
    6598:	206d                	jal	6642 <_fstat>
    659a:	57fd                	li	a5,-1
    659c:	00f51763          	bne	a0,a5,65aa <_fstat_r+0x22>
    65a0:	99018793          	addi	a5,gp,-1648 # 20000218 <errno>
    65a4:	439c                	lw	a5,0(a5)
    65a6:	c391                	beqz	a5,65aa <_fstat_r+0x22>
    65a8:	c01c                	sw	a5,0(s0)
    65aa:	40b2                	lw	ra,12(sp)
    65ac:	4422                	lw	s0,8(sp)
    65ae:	0141                	addi	sp,sp,16
    65b0:	8082                	ret

000065b2 <_isatty_r>:
_isatty_r():
    65b2:	1141                	addi	sp,sp,-16
    65b4:	c422                	sw	s0,8(sp)
    65b6:	842a                	mv	s0,a0
    65b8:	852e                	mv	a0,a1
    65ba:	9801a823          	sw	zero,-1648(gp) # 20000218 <errno>
    65be:	c606                	sw	ra,12(sp)
    65c0:	2869                	jal	665a <_isatty>
    65c2:	57fd                	li	a5,-1
    65c4:	00f51763          	bne	a0,a5,65d2 <_isatty_r+0x20>
    65c8:	99018793          	addi	a5,gp,-1648 # 20000218 <errno>
    65cc:	439c                	lw	a5,0(a5)
    65ce:	c391                	beqz	a5,65d2 <_isatty_r+0x20>
    65d0:	c01c                	sw	a5,0(s0)
    65d2:	40b2                	lw	ra,12(sp)
    65d4:	4422                	lw	s0,8(sp)
    65d6:	0141                	addi	sp,sp,16
    65d8:	8082                	ret

000065da <_lseek_r>:
_lseek_r():
    65da:	1141                	addi	sp,sp,-16
    65dc:	c422                	sw	s0,8(sp)
    65de:	842a                	mv	s0,a0
    65e0:	852e                	mv	a0,a1
    65e2:	85b2                	mv	a1,a2
    65e4:	8636                	mv	a2,a3
    65e6:	9801a823          	sw	zero,-1648(gp) # 20000218 <errno>
    65ea:	c606                	sw	ra,12(sp)
    65ec:	2059                	jal	6672 <_lseek>
    65ee:	57fd                	li	a5,-1
    65f0:	00f51763          	bne	a0,a5,65fe <_lseek_r+0x24>
    65f4:	99018793          	addi	a5,gp,-1648 # 20000218 <errno>
    65f8:	439c                	lw	a5,0(a5)
    65fa:	c391                	beqz	a5,65fe <_lseek_r+0x24>
    65fc:	c01c                	sw	a5,0(s0)
    65fe:	40b2                	lw	ra,12(sp)
    6600:	4422                	lw	s0,8(sp)
    6602:	0141                	addi	sp,sp,16
    6604:	8082                	ret

00006606 <__malloc_lock>:
__malloc_lock():
    6606:	8082                	ret

00006608 <__malloc_unlock>:
__malloc_unlock():
    6608:	8082                	ret

0000660a <_read_r>:
_read_r():
    660a:	1141                	addi	sp,sp,-16
    660c:	c422                	sw	s0,8(sp)
    660e:	842a                	mv	s0,a0
    6610:	852e                	mv	a0,a1
    6612:	85b2                	mv	a1,a2
    6614:	8636                	mv	a2,a3
    6616:	9801a823          	sw	zero,-1648(gp) # 20000218 <errno>
    661a:	c606                	sw	ra,12(sp)
    661c:	208d                	jal	667e <_read>
    661e:	57fd                	li	a5,-1
    6620:	00f51763          	bne	a0,a5,662e <_read_r+0x24>
    6624:	99018793          	addi	a5,gp,-1648 # 20000218 <errno>
    6628:	439c                	lw	a5,0(a5)
    662a:	c391                	beqz	a5,662e <_read_r+0x24>
    662c:	c01c                	sw	a5,0(s0)
    662e:	40b2                	lw	ra,12(sp)
    6630:	4422                	lw	s0,8(sp)
    6632:	0141                	addi	sp,sp,16
    6634:	8082                	ret

00006636 <_close>:
_close():
    6636:	05800793          	li	a5,88
    663a:	98f1a823          	sw	a5,-1648(gp) # 20000218 <errno>
    663e:	557d                	li	a0,-1
    6640:	8082                	ret

00006642 <_fstat>:
_fstat():
    6642:	05800793          	li	a5,88
    6646:	98f1a823          	sw	a5,-1648(gp) # 20000218 <errno>
    664a:	557d                	li	a0,-1
    664c:	8082                	ret

0000664e <_getpid>:
_getpid():
    664e:	05800793          	li	a5,88
    6652:	98f1a823          	sw	a5,-1648(gp) # 20000218 <errno>
    6656:	557d                	li	a0,-1
    6658:	8082                	ret

0000665a <_isatty>:
_isatty():
    665a:	05800793          	li	a5,88
    665e:	98f1a823          	sw	a5,-1648(gp) # 20000218 <errno>
    6662:	4501                	li	a0,0
    6664:	8082                	ret

00006666 <_kill>:
_kill():
    6666:	05800793          	li	a5,88
    666a:	98f1a823          	sw	a5,-1648(gp) # 20000218 <errno>
    666e:	557d                	li	a0,-1
    6670:	8082                	ret

00006672 <_lseek>:
_lseek():
    6672:	05800793          	li	a5,88
    6676:	98f1a823          	sw	a5,-1648(gp) # 20000218 <errno>
    667a:	557d                	li	a0,-1
    667c:	8082                	ret

0000667e <_read>:
_read():
    667e:	05800793          	li	a5,88
    6682:	98f1a823          	sw	a5,-1648(gp) # 20000218 <errno>
    6686:	557d                	li	a0,-1
    6688:	8082                	ret

0000668a <_sbrk>:
_sbrk():
    668a:	85018793          	addi	a5,gp,-1968 # 200000d8 <heap_end.1518>
    668e:	439c                	lw	a5,0(a5)
    6690:	c791                	beqz	a5,669c <_sbrk+0x12>
    6692:	953e                	add	a0,a0,a5
    6694:	84a1a823          	sw	a0,-1968(gp) # 200000d8 <heap_end.1518>
    6698:	853e                	mv	a0,a5
    669a:	8082                	ret
    669c:	99418793          	addi	a5,gp,-1644 # 2000021c <_ebss>
    66a0:	953e                	add	a0,a0,a5
    66a2:	84a1a823          	sw	a0,-1968(gp) # 200000d8 <heap_end.1518>
    66a6:	853e                	mv	a0,a5
    66a8:	8082                	ret

000066aa <_exit>:
_exit():
    66aa:	a001                	j	66aa <_exit>
    66ac:	5f58                	lw	a4,60(a4)
    66ae:	54444957          	0x54444957
    66b2:	3e48                	fld	fa0,184(a2)
    66b4:	0078                	addi	a4,sp,12
    66b6:	0000                	unimp
    66b8:	2e2e                	fld	ft8,200(sp)
    66ba:	62694c2f          	0x62694c2f
    66be:	6172                	flw	ft2,28(sp)
    66c0:	6972                	flw	fs2,28(sp)
    66c2:	7365                	lui	t1,0xffff9
    66c4:	6565732f          	0x6565732f
    66c8:	6572666b          	0x6572666b
    66cc:	5f65                	li	t5,-7
    66ce:	6570                	flw	fa2,76(a0)
    66d0:	6972                	flw	fs2,28(sp)
    66d2:	6870                	flw	fa2,84(s0)
    66d4:	7265                	lui	tp,0xffff9
    66d6:	6c61                	lui	s8,0x18
    66d8:	4545532f          	0x4545532f
    66dc:	4552464b          	0x4552464b
    66e0:	5f45                	li	t5,-15
    66e2:	44454c4f          	0x44454c4f
    66e6:	632e                	flw	ft6,200(sp)
    66e8:	0000                	unimp
    66ea:	0000                	unimp
    66ec:	5928                	lw	a0,112(a0)
    66ee:	575f 4449 4854      	0x48544449575f
    66f4:	3e29382f          	0x3e29382f
    66f8:	0079                	c.nop	30
    66fa:	0000                	unimp
    66fc:	002d                	c.nop	11
    66fe:	0000                	unimp
    6700:	0020                	addi	s0,sp,8
    6702:	0000                	unimp
    6704:	0000002b          	0x2b
    6708:	6425                	lui	s0,0x9
    670a:	0000                	unimp
    670c:	6625                	lui	a2,0x9
    670e:	0000                	unimp
    6710:	6e756f63          	bltu	a0,t2,6e0e <_data_lma+0x192>
    6714:	0074                	addi	a3,sp,12
    6716:	0000                	unimp
    6718:	2e2e                	fld	ft8,200(sp)
    671a:	62694c2f          	0x62694c2f
    671e:	6172                	flw	ft2,28(sp)
    6720:	6972                	flw	fs2,28(sp)
    6722:	7365                	lui	t1,0xffff9
    6724:	6565732f          	0x6565732f
    6728:	6572666b          	0x6572666b
    672c:	5f65                	li	t5,-7
    672e:	696c                	flw	fa1,84(a0)
    6730:	7262                	flw	ft4,56(sp)
    6732:	7261                	lui	tp,0xffff8
    6734:	6569                	lui	a0,0x1a
    6736:	667a2f73          	csrrs	t5,0x667,s4
    673a:	705f 7469 632e      	0x632e7469705f
    6740:	0000                	unimp
    6742:	0000                	unimp
    6744:	7375                	lui	t1,0xffffd
    6746:	0000                	unimp
    6748:	0030                	addi	a2,sp,8
    674a:	0000                	unimp
    674c:	2e2e                	fld	ft8,200(sp)
    674e:	62694c2f          	0x62694c2f
    6752:	6172                	flw	ft2,28(sp)
    6754:	6972                	flw	fs2,28(sp)
    6756:	7365                	lui	t1,0xffff9
    6758:	6565732f          	0x6565732f
    675c:	6572666b          	0x6572666b
    6760:	5f65                	li	t5,-7
    6762:	696c                	flw	fa1,84(a0)
    6764:	7262                	flw	ft4,56(sp)
    6766:	7261                	lui	tp,0xffff8
    6768:	6569                	lui	a0,0x1a
    676a:	667a2f73          	csrrs	t5,0x667,s4
    676e:	735f 6970 632e      	0x632e6970735f
	...
    677c:	a000                	fsd	fs0,0(s0)
    677e:	4090                	lw	a2,0(s1)
    6780:	0000                	unimp
    6782:	0000                	unimp
    6784:	0000                	unimp
    6786:	4068                	lw	a0,68(s0)
    6788:	0000                	unimp
    678a:	0000                	unimp
    678c:	0000                	unimp
    678e:	4024                	lw	s1,64(s0)

00006790 <oled_6x8>:
	...
    6798:	2f00 0000 0000 0007 0007 1400 147f 147f     ./..............
    67a8:	2400 7f2a 122a 6200 0864 2313 3600 5549     .$*.*..bd..#.6IU
    67b8:	5022 0000 0305 0000 0000 221c 0041 0000     "P........."A...
    67c8:	2241 001c 1400 3e08 1408 0800 3e08 0808     A".....>.....>..
    67d8:	0000 a000 0060 0800 0808 0808 0000 6060     ....`.........``
    67e8:	0000 2000 0810 0204 3e00 4951 3e45 0000     ... .....>QIE>..
    67f8:	7f42 0040 4200 5161 4649 2100 4541 314b     B.@..BaQIF.!AEK1
    6808:	1800 1214 107f 2700 4545 3945 3c00 494a     .......'EEE9.<JI
    6818:	3049 0100 0971 0305 3600 4949 3649 0600     I0..q....6III6..
    6828:	4949 1e29 0000 3636 0000 0000 3656 0000     II)...66....V6..
    6838:	0800 2214 0041 1400 1414 1414 0000 2241     ..."A.........A"
    6848:	0814 0200 5101 0609 3200 5949 3e51 7c00     .....Q...2IYQ>.|
    6858:	1112 7c12 7f00 4949 3649 3e00 4141 2241     ...|..III6.>AAA"
    6868:	7f00 4141 1c22 7f00 4949 4149 7f00 0909     ..AA"...IIIA....
    6878:	0109 3e00 4941 7a49 7f00 0808 7f08 0000     ...>AIIz........
    6888:	7f41 0041 2000 4140 013f 7f00 1408 4122     A.A.. @A?....."A
    6898:	7f00 4040 4040 7f00 0c02 7f02 7f00 0804     ..@@@@..........
    68a8:	7f10 3e00 4141 3e41 7f00 0909 0609 3e00     ...>AAA>.......>
    68b8:	5141 5e21 7f00 1909 4629 4600 4949 3149     AQ!^....)F.FIII1
    68c8:	0100 7f01 0101 3f00 4040 3f40 1f00 4020     .......?@@@?.. @
    68d8:	1f20 3f00 3840 3f40 6300 0814 6314 0700      ..?@8@?.c...c..
    68e8:	7008 0708 6100 4951 4345 0000 417f 0041     .p...aQIEC...AA.
    68f8:	5500 552a 552a 0000 4141 007f 0400 0102     .U*U*U..AA......
    6908:	0402 4000 4040 4040 0000 0201 0004 2000     ...@@@@@....... 
    6918:	5454 7854 7f00 4448 3844 3800 4444 2044     TTTx..HDD8.8DDD 
    6928:	3800 4444 7f48 3800 5454 1854 0800 097e     .8DDH..8TTT...~.
    6938:	0201 1800 a4a4 7ca4 7f00 0408 7804 0000     .......|.....x..
    6948:	7d44 0040 4000 8480 007d 7f00 2810 0044     D}@..@..}....(D.
    6958:	0000 7f41 0040 7c00 1804 7804 7c00 0408     ..A.@..|...x.|..
    6968:	7804 3800 4444 3844 fc00 2424 1824 1800     .x.8DDD8..$$$...
    6978:	2424 fc18 7c00 0408 0804 4800 5454 2054     $$...|.....HTTT 
    6988:	0400 443f 2040 3c00 4040 7c20 1c00 4020     ..?D@ .<@@ |.. @
    6998:	1c20 3c00 3040 3c40 4400 1028 4428 1c00      ..<@0@<.D(.(D..
    69a8:	a0a0 7ca0 4400 5464 444c 1414 1414 1414     ...|.DdTLD......

000069b8 <__func__.3179>:
    69b8:	6c6f 6465 735f 7465 705f 736f 0000 0000     oled_set_pos....

000069c8 <GPION>:
    69c8:	0800 4001 0c00 4001 1000 4001 1400 4001     ...@...@...@...@

000069d8 <__func__.3543>:
    69d8:	6974 656d 5f72 6970 5f74 6e69 6574 7272     timer_pit_interr
    69e8:	7075 5f74 736d 0000                         upt_ms..

000069f0 <TIMERN>:
    69f0:	2c00 4001 0000 4000 0400 4000 0800 4000     .,.@...@...@...@

00006a00 <__func__.3348>:
    6a00:	7073 5f69 7067 6f69 695f 696e 0074 0000     spi_gpio_init...

00006a10 <UARTN>:
    6a10:	3800 4001 4400 4000 4800 4000 4c00 4000     .8.@.D.@.H.@.L.@
    6a20:	e0de ffff df62 ffff e072 ffff e07a ffff     ....b...r...z...
    6a30:	e072 ffff df92 ffff e072 ffff e07a ffff     r.......r...z...
    6a40:	df62 ffff df62 ffff df92 ffff e07a ffff     b...b.......z...
    6a50:	e0d4 ffff e0d4 ffff e0d4 ffff df92 ffff     ................
    6a60:	e618 ffff e50e ffff e50e ffff e50c ffff     ................
    6a70:	e514 ffff e514 ffff e4da ffff e50c ffff     ................
    6a80:	e514 ffff e4da ffff e514 ffff e50c ffff     ................
    6a90:	e604 ffff e604 ffff e604 ffff e4da ffff     ................

00006aa0 <__clz_tab>:
    6aa0:	0100 0202 0303 0303 0404 0404 0404 0404     ................
    6ab0:	0505 0505 0505 0505 0505 0505 0505 0505     ................
    6ac0:	0606 0606 0606 0606 0606 0606 0606 0606     ................
    6ad0:	0606 0606 0606 0606 0606 0606 0606 0606     ................
    6ae0:	0707 0707 0707 0707 0707 0707 0707 0707     ................
    6af0:	0707 0707 0707 0707 0707 0707 0707 0707     ................
    6b00:	0707 0707 0707 0707 0707 0707 0707 0707     ................
    6b10:	0707 0707 0707 0707 0707 0707 0707 0707     ................
    6b20:	0808 0808 0808 0808 0808 0808 0808 0808     ................
    6b30:	0808 0808 0808 0808 0808 0808 0808 0808     ................
    6b40:	0808 0808 0808 0808 0808 0808 0808 0808     ................
    6b50:	0808 0808 0808 0808 0808 0808 0808 0808     ................
    6b60:	0808 0808 0808 0808 0808 0808 0808 0808     ................
    6b70:	0808 0808 0808 0808 0808 0808 0808 0808     ................
    6b80:	0808 0808 0808 0808 0808 0808 0808 0808     ................
    6b90:	0808 0808 0808 0808 0808 0808 0808 0808     ................
    6ba0:	202c 7566 636e 6974 6e6f 203a 0000 0000     , function: ....
    6bb0:	7361 6573 7472 6f69 206e 2522 2273 6620     assertion "%s" f
    6bc0:	6961 656c 3a64 6620 6c69 2065 2522 2273     ailed: file "%s"
    6bd0:	202c 696c 656e 2520 2564 2573 0a73 0000     , line %d%s%s...
    6be0:	2d23 2b30 0020 0000 6c68 004c 6665 4567     #-0+ ...hlL.efgE
    6bf0:	4746 0000 3130 3332 3534 3736 3938 4241     FG..0123456789AB
    6c00:	4443 4645 0000 0000 3130 3332 3534 3736     CDEF....01234567
    6c10:	3938 6261 6463 6665 0000 0000               89abcdef....

00006c1c <__sf_fake_stderr>:
	...

00006c3c <__sf_fake_stdin>:
	...

00006c5c <__sf_fake_stdout>:
	...
